ARM GAS  /cygdrive/c/DOCUME~1/mkwapisz/LOCALS~1/Temp/ccd1rULD.s 			page 1


   1              		.file	"pff.c"
   2              		.section	.debug_abbrev,"",%progbits
   3              	.Ldebug_abbrev0:
   4              		.section	.debug_info,"",%progbits
   5              	.Ldebug_info0:
   6              		.section	.debug_line,"",%progbits
   7              	.Ldebug_line0:
   8 0000 8E020000 		.text
   8      02004200 
   8      00000201 
   8      FB0E0D00 
   8      01010101 
   9              	.Ltext0:
  10              		.align	2
  11              		.type	clust2sect, %function
  12              	clust2sect:
  13              	.LFB5:
  14              		.file 1 "src/pff.c"
   1:src/pff.c     **** /*----------------------------------------------------------------------------/
   2:src/pff.c     ****  /  Petit FatFs - FAT file system module  R0.02                 (C)ChaN, 2009
   3:src/pff.c     ****  /-----------------------------------------------------------------------------/
   4:src/pff.c     ****  / Petit FatFs module is an open source software to implement FAT file system to
   5:src/pff.c     ****  / small embedded systems. This is a free software and is opened for education,
   6:src/pff.c     ****  / research and commercial developments under license policy of following trems.
   7:src/pff.c     ****  /
   8:src/pff.c     ****  /  Copyright (C) 2009, ChaN, all right reserved.
   9:src/pff.c     ****  /
  10:src/pff.c     ****  / * The Petit FatFs module is a free software and there is NO WARRANTY.
  11:src/pff.c     ****  / * No restriction on use. You can use, modify and redistribute it for
  12:src/pff.c     ****  /   personal, non-profit or commercial use UNDER YOUR RESPONSIBILITY.
  13:src/pff.c     ****  / * Redistributions of source code must retain the above copyright notice.
  14:src/pff.c     ****  /
  15:src/pff.c     ****  /-----------------------------------------------------------------------------/
  16:src/pff.c     ****  / Jun 15,'09  R0.01a  First release. (Branched from FatFs R0.07b.)
  17:src/pff.c     ****  /
  18:src/pff.c     ****  / Dec 14,'09  R0.02   Added multiple code page support.
  19:src/pff.c     ****  /                     Added write funciton.
  20:src/pff.c     ****  /                     Changed stream read mode interface.
  21:src/pff.c     ****  /----------------------------------------------------------------------------*/
  22:src/pff.c     **** 
  23:src/pff.c     **** #include "pff.h"		/* Petit FatFs configurations and declarations */
  24:src/pff.c     **** #include "diskio.h"		/* Declarations of low level disk I/O functions */
  25:src/pff.c     **** 
  26:src/pff.c     **** /*--------------------------------------------------------------------------
  27:src/pff.c     **** 
  28:src/pff.c     ****  Private Functions
  29:src/pff.c     **** 
  30:src/pff.c     ****  ---------------------------------------------------------------------------*/
  31:src/pff.c     **** 
  32:src/pff.c     **** static FATFS *FatFs; /* Pointer to the file system object (logical drive) */
  33:src/pff.c     **** 
  34:src/pff.c     **** /*-----------------------------------------------------------------------*/
  35:src/pff.c     **** /* String functions                                                      */
  36:src/pff.c     **** /*-----------------------------------------------------------------------*/
  37:src/pff.c     **** 
  38:src/pff.c     **** /* Fill memory */
  39:src/pff.c     **** static void mem_set (void* dst, int val, int cnt)
ARM GAS  /cygdrive/c/DOCUME~1/mkwapisz/LOCALS~1/Temp/ccd1rULD.s 			page 2


  40:src/pff.c     **** {
  41:src/pff.c     **** 	char *d = (char*) dst;
  42:src/pff.c     **** 	while (cnt--)
  43:src/pff.c     **** 		*d++ = (char) val;
  44:src/pff.c     **** }
  45:src/pff.c     **** 
  46:src/pff.c     **** /* Compare memory to memory */
  47:src/pff.c     **** static int mem_cmp (const void* dst, const void* src, int cnt)
  48:src/pff.c     **** {
  49:src/pff.c     **** 	const char *d = (const char *) dst, *s = (const char *) src;
  50:src/pff.c     **** 	int r = 0;
  51:src/pff.c     **** 	while (cnt-- && (r = *d++ - *s++) == 0)
  52:src/pff.c     **** 		;
  53:src/pff.c     **** 	return r;
  54:src/pff.c     **** }
  55:src/pff.c     **** 
  56:src/pff.c     **** /*-----------------------------------------------------------------------*/
  57:src/pff.c     **** /* FAT access - Read value of a FAT entry                                */
  58:src/pff.c     **** /*-----------------------------------------------------------------------*/
  59:src/pff.c     **** 
  60:src/pff.c     **** static CLUST get_fat (/* 1:IO error, Else:Cluster status */
  61:src/pff.c     **** CLUST clst /* Cluster# to get the link information */
  62:src/pff.c     **** )
  63:src/pff.c     **** {
  64:src/pff.c     **** 	WORD wc, bc, ofs;
  65:src/pff.c     **** 	BYTE buf[4];
  66:src/pff.c     **** 	FATFS *fs = FatFs;
  67:src/pff.c     **** 
  68:src/pff.c     **** 	if (clst < 2 || clst >= fs->max_clust) /* Range check */
  69:src/pff.c     **** 		return 1;
  70:src/pff.c     **** 
  71:src/pff.c     **** 	switch (fs->fs_type)
  72:src/pff.c     **** 	{
  73:src/pff.c     **** 	case FS_FAT12:
  74:src/pff.c     **** 		bc = (WORD) clst;
  75:src/pff.c     **** 		bc += bc / 2;
  76:src/pff.c     **** 		ofs = bc % 512;
  77:src/pff.c     **** 		bc /= 512;
  78:src/pff.c     **** 		if (ofs != 511)
  79:src/pff.c     **** 		{
  80:src/pff.c     **** 			if (disk_readp (buf, fs->fatbase + bc, ofs, 2))
  81:src/pff.c     **** 				break;
  82:src/pff.c     **** 		} else
  83:src/pff.c     **** 		{
  84:src/pff.c     **** 			if (disk_readp (buf, fs->fatbase + bc, 511, 1))
  85:src/pff.c     **** 				break;
  86:src/pff.c     **** 			if (disk_readp (buf + 1, fs->fatbase + bc + 1, 0, 1))
  87:src/pff.c     **** 				break;
  88:src/pff.c     **** 		}
  89:src/pff.c     **** 		wc = LD_WORD(buf);
  90:src/pff.c     **** 		return (clst & 1) ? (wc >> 4) : (wc & 0xFFF);
  91:src/pff.c     **** 
  92:src/pff.c     **** 	case FS_FAT16:
  93:src/pff.c     **** 		if (disk_readp (buf, fs->fatbase + clst / 256, (WORD) (((WORD) clst % 256) * 2), 2))
  94:src/pff.c     **** 			break;
  95:src/pff.c     **** 		return LD_WORD(buf);
  96:src/pff.c     **** #if _FS_FAT32
ARM GAS  /cygdrive/c/DOCUME~1/mkwapisz/LOCALS~1/Temp/ccd1rULD.s 			page 3


  97:src/pff.c     **** 	case FS_FAT32:
  98:src/pff.c     **** 		if (disk_readp (buf, fs->fatbase + clst / 128, (WORD) (((WORD) clst % 128) * 4), 4))
  99:src/pff.c     **** 			break;
 100:src/pff.c     **** 		return LD_DWORD(buf) & 0x0FFFFFFF;
 101:src/pff.c     **** #endif
 102:src/pff.c     **** 	}
 103:src/pff.c     **** 
 104:src/pff.c     **** 	return 1; /* An error occured at the disk I/O layer */
 105:src/pff.c     **** }
 106:src/pff.c     **** 
 107:src/pff.c     **** /*-----------------------------------------------------------------------*/
 108:src/pff.c     **** /* Get sector# from cluster#                                             */
 109:src/pff.c     **** /*-----------------------------------------------------------------------*/
 110:src/pff.c     **** 
 111:src/pff.c     **** static DWORD clust2sect (/* !=0: Sector number, 0: Failed - invalid cluster# */
 112:src/pff.c     **** CLUST clst /* Cluster# to be converted */
 113:src/pff.c     **** )
 114:src/pff.c     **** {
  15              		.loc 1 114 0
  16              		@ Function supports interworking.
  17              		@ args = 0, pretend = 0, frame = 0
  18              		@ frame_needed = 0, uses_anonymous_args = 0
  19              		@ link register save eliminated.
  20              	.LVL0:
 115:src/pff.c     **** 	FATFS *fs = FatFs;
  21              		.loc 1 115 0
  22 0000 28309FE5 		ldr	r3, .L6
  23 0004 001093E5 		ldr	r1, [r3, #0]
  24              	.LVL1:
 116:src/pff.c     **** 
 117:src/pff.c     **** 	clst -= 2;
 118:src/pff.c     **** 	if (clst >= (fs->max_clust - 2))
  25              		.loc 1 118 0
  26 0008 0C3091E5 		ldr	r3, [r1, #12]
  27              		.loc 1 117 0
  28 000c 020040E2 		sub	r0, r0, #2
  29              	.LVL2:
  30              		.loc 1 118 0
  31 0010 023043E2 		sub	r3, r3, #2
  32 0014 030050E1 		cmp	r0, r3
 119:src/pff.c     **** 		return 0; /* Invalid cluster# */
 120:src/pff.c     **** 	return (DWORD) clst * fs->csize + fs->database;
  33              		.loc 1 120 0
  34 0018 18209135 		ldrcc	r2, [r1, #24]
  35              		.loc 1 118 0
  36 001c 0030A0E3 		mov	r3, #0
  37              		.loc 1 120 0
  38 0020 0130D135 		ldrccb	r3, [r1, #1]	@ zero_extendqisi2
  39 0024 90232330 		mlacc	r3, r0, r3, r2
 121:src/pff.c     **** }
  40              		.loc 1 121 0
  41 0028 0300A0E1 		mov	r0, r3
  42              	.LVL3:
  43              		.loc 1 114 0
  44              		@ lr needed for prologue
  45              		.loc 1 121 0
  46 002c 1EFF2FE1 		bx	lr
ARM GAS  /cygdrive/c/DOCUME~1/mkwapisz/LOCALS~1/Temp/ccd1rULD.s 			page 4


  47              	.L7:
  48              		.align	2
  49              	.L6:
  50 0030 00000000 		.word	FatFs
  51              	.LFE5:
  52              		.size	clust2sect, .-clust2sect
  53              		.align	2
  54              		.type	dir_rewind, %function
  55              	dir_rewind:
  56              	.LFB6:
 122:src/pff.c     **** 
 123:src/pff.c     **** /*-----------------------------------------------------------------------*/
 124:src/pff.c     **** /* Directory handling - Rewind directory index                           */
 125:src/pff.c     **** /*-----------------------------------------------------------------------*/
 126:src/pff.c     **** 
 127:src/pff.c     **** static FRESULT dir_rewind (DIR *dj /* Pointer to directory object */
 128:src/pff.c     **** )
 129:src/pff.c     **** {
  57              		.loc 1 129 0
  58              		@ Function supports interworking.
  59              		@ args = 0, pretend = 0, frame = 0
  60              		@ frame_needed = 0, uses_anonymous_args = 0
  61              	.LVL4:
 130:src/pff.c     **** 	CLUST clst;
 131:src/pff.c     **** 	FATFS *fs = FatFs;
  62              		.loc 1 131 0
  63 0034 7C309FE5 		ldr	r3, .L21
  64              		.loc 1 129 0
  65 0038 10402DE9 		stmfd	sp!, {r4, lr}
  66              	.LCFI0:
  67              		.loc 1 129 0
  68 003c 0040A0E1 		mov	r4, r0
 132:src/pff.c     **** 
 133:src/pff.c     **** 	dj->index = 0;
 134:src/pff.c     **** 	clst = dj->sclust;
  69              		.loc 1 134 0
  70 0040 080090E5 		ldr	r0, [r0, #8]
  71              	.LVL5:
  72              		.loc 1 131 0
  73 0044 002093E5 		ldr	r2, [r3, #0]
  74              	.LVL6:
 135:src/pff.c     **** 	if (clst == 1 || clst >= fs->max_clust) /* Check start cluster range */
  75              		.loc 1 135 0
  76 0048 010050E3 		cmp	r0, #1
  77              		.loc 1 133 0
  78 004c 0030A0E3 		mov	r3, #0	@ movhi
  79 0050 B030C4E1 		strh	r3, [r4, #0]	@ movhi
  80              		.loc 1 135 0
  81 0054 1300000A 		beq	.L9
  82 0058 0C3092E5 		ldr	r3, [r2, #12]
  83 005c 030050E1 		cmp	r0, r3
  84 0060 1000002A 		bcs	.L9
 136:src/pff.c     **** 		return FR_DISK_ERR;
 137:src/pff.c     **** #if _FS_FAT32
 138:src/pff.c     **** 	if (!clst && fs->fs_type == FS_FAT32) /* Replace cluster# 0 with root cluster# if in FAT32 */
  85              		.loc 1 138 0
  86 0064 000050E3 		cmp	r0, #0
ARM GAS  /cygdrive/c/DOCUME~1/mkwapisz/LOCALS~1/Temp/ccd1rULD.s 			page 5


 139:src/pff.c     **** 		clst = fs->dirbase;
 140:src/pff.c     **** #endif
 141:src/pff.c     **** 	dj->clust = clst; /* Current cluster */
  87              		.loc 1 141 0
  88 0068 0C008415 		strne	r0, [r4, #12]
  89              		.loc 1 138 0
  90 006c 0700001A 		bne	.L17
  91 0070 0030D2E5 		ldrb	r3, [r2, #0]	@ zero_extendqisi2
  92 0074 030053E3 		cmp	r3, #3
  93              		.loc 1 141 0
  94 0078 0C008415 		strne	r0, [r4, #12]
  95              		.loc 1 138 0
  96 007c 0500001A 		bne	.L16
  97              		.loc 1 139 0
  98 0080 140092E5 		ldr	r0, [r2, #20]
 142:src/pff.c     **** 	dj->sect = clst ? clust2sect (clst) : fs->dirbase; /* Current sector */
  99              		.loc 1 142 0
 100 0084 000050E3 		cmp	r0, #0
 101              		.loc 1 141 0
 102 0088 0C0084E5 		str	r0, [r4, #12]
 103              		.loc 1 142 0
 104 008c 0100000A 		beq	.L16
 105              	.L17:
 106 0090 DAFFFFEB 		bl	clust2sect
 107              	.LVL7:
 108 0094 000000EA 		b	.L18
 109              	.LVL8:
 110              	.L16:
 111 0098 140092E5 		ldr	r0, [r2, #20]
 112              	.LVL9:
 113              	.L18:
 114 009c 0030A0E3 		mov	r3, #0
 115 00a0 100084E5 		str	r0, [r4, #16]
 116 00a4 000000EA 		b	.L19
 117              	.LVL10:
 118              	.L9:
 143:src/pff.c     **** 
 144:src/pff.c     **** 	return FR_OK; /* Seek succeeded */
 119              		.loc 1 144 0
 120 00a8 0130A0E3 		mov	r3, #1
 121              	.L19:
 145:src/pff.c     **** }
 122              		.loc 1 145 0
 123 00ac 0300A0E1 		mov	r0, r3
 124              	.LVL11:
 125 00b0 1040BDE8 		ldmfd	sp!, {r4, lr}
 126 00b4 1EFF2FE1 		bx	lr
 127              	.L22:
 128              		.align	2
 129              	.L21:
 130 00b8 00000000 		.word	FatFs
 131              	.LFE6:
 132              		.size	dir_rewind, .-dir_rewind
 133              		.align	2
 134              		.type	check_fs, %function
 135              	check_fs:
 136              	.LFB13:
ARM GAS  /cygdrive/c/DOCUME~1/mkwapisz/LOCALS~1/Temp/ccd1rULD.s 			page 6


 146:src/pff.c     **** 
 147:src/pff.c     **** /*-----------------------------------------------------------------------*/
 148:src/pff.c     **** /* Directory handling - Move directory index next                        */
 149:src/pff.c     **** /*-----------------------------------------------------------------------*/
 150:src/pff.c     **** 
 151:src/pff.c     **** static FRESULT dir_next ( /* FR_OK:Succeeded, FR_NO_FILE:End of table */
 152:src/pff.c     **** DIR *dj /* Pointer to directory object */
 153:src/pff.c     **** )
 154:src/pff.c     **** {
 155:src/pff.c     **** 	CLUST clst;
 156:src/pff.c     **** 	WORD i;
 157:src/pff.c     **** 	FATFS *fs = FatFs;
 158:src/pff.c     **** 
 159:src/pff.c     **** 	i = dj->index + 1;
 160:src/pff.c     **** 	if (!i || !dj->sect) /* Report EOT when index has reached 65535 */
 161:src/pff.c     **** 		return FR_NO_FILE;
 162:src/pff.c     **** 
 163:src/pff.c     **** 	if (!(i & (16 - 1)))
 164:src/pff.c     **** 	{ /* Sector changed? */
 165:src/pff.c     **** 		dj->sect++; /* Next sector */
 166:src/pff.c     **** 
 167:src/pff.c     **** 		if (dj->clust == 0)
 168:src/pff.c     **** 		{ /* Static table */
 169:src/pff.c     **** 			if (i >= fs->n_rootdir) /* Report EOT when end of table */
 170:src/pff.c     **** 				return FR_NO_FILE;
 171:src/pff.c     **** 		} else
 172:src/pff.c     **** 		{ /* Dynamic table */
 173:src/pff.c     **** 			if (((i / 16) & (fs->csize - 1)) == 0)
 174:src/pff.c     **** 			{ /* Cluster changed? */
 175:src/pff.c     **** 				clst = get_fat (dj->clust); /* Get next cluster */
 176:src/pff.c     **** 				if (clst <= 1)
 177:src/pff.c     **** 					return FR_DISK_ERR;
 178:src/pff.c     **** 				if (clst >= fs->max_clust) /* When it reached end of dynamic table */
 179:src/pff.c     **** 					return FR_NO_FILE; /* Report EOT */
 180:src/pff.c     **** 				dj->clust = clst; /* Initialize data for new cluster */
 181:src/pff.c     **** 				dj->sect = clust2sect (clst);
 182:src/pff.c     **** 			}
 183:src/pff.c     **** 		}
 184:src/pff.c     **** 	}
 185:src/pff.c     **** 
 186:src/pff.c     **** 	dj->index = i;
 187:src/pff.c     **** 
 188:src/pff.c     **** 	return FR_OK;
 189:src/pff.c     **** }
 190:src/pff.c     **** 
 191:src/pff.c     **** /*-----------------------------------------------------------------------*/
 192:src/pff.c     **** /* Directory handling - Find an object in the directory                  */
 193:src/pff.c     **** /*-----------------------------------------------------------------------*/
 194:src/pff.c     **** 
 195:src/pff.c     **** static FRESULT dir_find (DIR *dj /* Pointer to the directory object linked to the file name */
 196:src/pff.c     **** )
 197:src/pff.c     **** {
 198:src/pff.c     **** 	FRESULT res;
 199:src/pff.c     **** 	BYTE c, *dir;
 200:src/pff.c     **** 
 201:src/pff.c     **** 	res = dir_rewind (dj); /* Rewind directory object */
 202:src/pff.c     **** 	if (res != FR_OK)
ARM GAS  /cygdrive/c/DOCUME~1/mkwapisz/LOCALS~1/Temp/ccd1rULD.s 			page 7


 203:src/pff.c     **** 		return res;
 204:src/pff.c     **** 
 205:src/pff.c     **** 	dir = FatFs->buf;
 206:src/pff.c     **** 	do
 207:src/pff.c     **** 	{
 208:src/pff.c     **** 		res = disk_readp (dir, dj->sect, (WORD) ((dj->index % 16) * 32), 32) /* Read an entry */
 209:src/pff.c     **** 		? FR_DISK_ERR : FR_OK;
 210:src/pff.c     **** 		if (res != FR_OK)
 211:src/pff.c     **** 			break;
 212:src/pff.c     **** 		c = dir[DIR_Name]; /* First character */
 213:src/pff.c     **** 		if (c == 0)
 214:src/pff.c     **** 		{
 215:src/pff.c     **** 			res = FR_NO_FILE;
 216:src/pff.c     **** 			break;
 217:src/pff.c     **** 		} /* Reached to end of table */
 218:src/pff.c     **** 		if (!(dir[DIR_Attr] & AM_VOL) && !mem_cmp (dir, dj->fn, 11)) /* Is it a valid entry? */
 219:src/pff.c     **** 			break;
 220:src/pff.c     **** 		res = dir_next (dj); /* Next entry */
 221:src/pff.c     **** 	} while (res == FR_OK);
 222:src/pff.c     **** 
 223:src/pff.c     **** 	return res;
 224:src/pff.c     **** }
 225:src/pff.c     **** 
 226:src/pff.c     **** /*-----------------------------------------------------------------------*/
 227:src/pff.c     **** /* Read an object from the directory                                     */
 228:src/pff.c     **** /*-----------------------------------------------------------------------*/
 229:src/pff.c     **** #if _USE_DIR
 230:src/pff.c     **** static FRESULT dir_read (DIR *dj /* Pointer to the directory object to store read object name */
 231:src/pff.c     **** )
 232:src/pff.c     **** {
 233:src/pff.c     **** 	FRESULT res;
 234:src/pff.c     **** 	BYTE a, c, *dir;
 235:src/pff.c     **** 
 236:src/pff.c     **** 	res = FR_NO_FILE;
 237:src/pff.c     **** 	dir = FatFs->buf;
 238:src/pff.c     **** 	while (dj->sect)
 239:src/pff.c     **** 	{
 240:src/pff.c     **** 		res = disk_readp (dir, dj->sect, (WORD) ((dj->index % 16) * 32), 32) /* Read an entry */
 241:src/pff.c     **** 		? FR_DISK_ERR : FR_OK;
 242:src/pff.c     **** 		if (res != FR_OK)
 243:src/pff.c     **** 			break;
 244:src/pff.c     **** 		c = dir[DIR_Name];
 245:src/pff.c     **** 		if (c == 0)
 246:src/pff.c     **** 		{
 247:src/pff.c     **** 			res = FR_NO_FILE;
 248:src/pff.c     **** 			break;
 249:src/pff.c     **** 		} /* Reached to end of table */
 250:src/pff.c     **** 		a = dir[DIR_Attr] & AM_MASK;
 251:src/pff.c     **** 		if (c != 0xE5 && c != '.' && !(a & AM_VOL)) /* Is it a valid entry? */
 252:src/pff.c     **** 			break;
 253:src/pff.c     **** 		res = dir_next (dj); /* Next entry */
 254:src/pff.c     **** 		if (res != FR_OK)
 255:src/pff.c     **** 			break;
 256:src/pff.c     **** 	}
 257:src/pff.c     **** 
 258:src/pff.c     **** 	if (res != FR_OK)
 259:src/pff.c     **** 		dj->sect = 0;
ARM GAS  /cygdrive/c/DOCUME~1/mkwapisz/LOCALS~1/Temp/ccd1rULD.s 			page 8


 260:src/pff.c     **** 
 261:src/pff.c     **** 	return res;
 262:src/pff.c     **** }
 263:src/pff.c     **** #endif
 264:src/pff.c     **** 
 265:src/pff.c     **** /*-----------------------------------------------------------------------*/
 266:src/pff.c     **** /* Pick a segment and create the object name in directory form           */
 267:src/pff.c     **** /*-----------------------------------------------------------------------*/
 268:src/pff.c     **** 
 269:src/pff.c     **** #ifdef _EXCVT
 270:src/pff.c     **** static const BYTE cvt[] = _EXCVT;
 271:src/pff.c     **** #endif
 272:src/pff.c     **** 
 273:src/pff.c     **** static FRESULT create_name (DIR *dj, /* Pointer to the directory object */
 274:src/pff.c     **** const char **path /* Pointer to pointer to the segment in the path string */
 275:src/pff.c     **** )
 276:src/pff.c     **** {
 277:src/pff.c     **** 	BYTE c, d, ni, si, i, *sfn;
 278:src/pff.c     **** 	const char *p;
 279:src/pff.c     **** 
 280:src/pff.c     **** 	/* Create file name in directory form */
 281:src/pff.c     **** 	sfn = dj->fn;
 282:src/pff.c     **** 	mem_set (sfn, ' ', 11);
 283:src/pff.c     **** 	si = i = 0;
 284:src/pff.c     **** 	ni = 8;
 285:src/pff.c     **** 	p = *path;
 286:src/pff.c     **** 	for (;;)
 287:src/pff.c     **** 	{
 288:src/pff.c     **** 		c = p[si++];
 289:src/pff.c     **** 		if (c <= ' ' || c == '/')
 290:src/pff.c     **** 			break; /* Break on end of segment */
 291:src/pff.c     **** 		if (c == '.' || i >= ni)
 292:src/pff.c     **** 		{
 293:src/pff.c     **** 			if (ni != 8 || c != '.')
 294:src/pff.c     **** 				break;
 295:src/pff.c     **** 			i = 8;
 296:src/pff.c     **** 			ni = 11;
 297:src/pff.c     **** 			continue;
 298:src/pff.c     **** 		}
 299:src/pff.c     **** #ifdef _EXCVT
 300:src/pff.c     **** 		if (c >= 0x80) /* To upper extended char (SBCS) */
 301:src/pff.c     **** 		c = cvt[c - 0x80];
 302:src/pff.c     **** #endif
 303:src/pff.c     **** 		if (IsDBCS1(c) && i >= ni - 1)
 304:src/pff.c     **** 		{ /* DBC 1st byte? */
 305:src/pff.c     **** 			d = p[si++]; /* Get 2nd byte */
 306:src/pff.c     **** 			sfn[i++] = c;
 307:src/pff.c     **** 			sfn[i++] = d;
 308:src/pff.c     **** 		} else
 309:src/pff.c     **** 		{ /* Single byte code */
 310:src/pff.c     **** 			if (IsLower(c))
 311:src/pff.c     **** 				c -= 0x20; /* toupper */
 312:src/pff.c     **** 			sfn[i++] = c;
 313:src/pff.c     **** 		}
 314:src/pff.c     **** 	}
 315:src/pff.c     **** 	*path = &p[si]; /* Rerurn pointer to the next segment */
 316:src/pff.c     **** 
ARM GAS  /cygdrive/c/DOCUME~1/mkwapisz/LOCALS~1/Temp/ccd1rULD.s 			page 9


 317:src/pff.c     **** 	sfn[11] = (c <= ' ') ? 1 : 0; /* Set last segment flag if end of path */
 318:src/pff.c     **** 
 319:src/pff.c     **** 	return FR_OK;
 320:src/pff.c     **** }
 321:src/pff.c     **** 
 322:src/pff.c     **** /*-----------------------------------------------------------------------*/
 323:src/pff.c     **** /* Get file information from directory entry                             */
 324:src/pff.c     **** /*-----------------------------------------------------------------------*/
 325:src/pff.c     **** #if _USE_DIR
 326:src/pff.c     **** static
 327:src/pff.c     **** void get_fileinfo ( /* No return code */
 328:src/pff.c     **** DIR *dj, /* Pointer to the directory object */
 329:src/pff.c     **** FILINFO *fno /* Pointer to store the file information */
 330:src/pff.c     **** )
 331:src/pff.c     **** {
 332:src/pff.c     **** 	BYTE i, c, *dir;
 333:src/pff.c     **** 	char *p;
 334:src/pff.c     **** 
 335:src/pff.c     **** 	p = fno->fname;
 336:src/pff.c     **** 	if (dj->sect)
 337:src/pff.c     **** 	{
 338:src/pff.c     **** 		dir = FatFs->buf;
 339:src/pff.c     **** 		for (i = 0; i < 8; i++)
 340:src/pff.c     **** 		{ /* Copy file name body */
 341:src/pff.c     **** 			c = dir[i];
 342:src/pff.c     **** 			if (c == ' ')
 343:src/pff.c     **** 				break;
 344:src/pff.c     **** 			if (c == 0x05)
 345:src/pff.c     **** 				c = 0xE5;
 346:src/pff.c     **** 			*p++ = c;
 347:src/pff.c     **** 		}
 348:src/pff.c     **** 		if (dir[8] != ' ')
 349:src/pff.c     **** 		{ /* Copy file name extension */
 350:src/pff.c     **** 			*p++ = '.';
 351:src/pff.c     **** 			for (i = 8; i < 11; i++)
 352:src/pff.c     **** 			{
 353:src/pff.c     **** 				c = dir[i];
 354:src/pff.c     **** 				if (c == ' ')
 355:src/pff.c     **** 					break;
 356:src/pff.c     **** 				*p++ = c;
 357:src/pff.c     **** 			}
 358:src/pff.c     **** 		}
 359:src/pff.c     **** 		fno->fattrib = dir[DIR_Attr]; /* Attribute */
 360:src/pff.c     **** 		fno->fsize = LD_DWORD(dir+DIR_FileSize); /* Size */
 361:src/pff.c     **** 		fno->fdate = LD_WORD(dir+DIR_WrtDate); /* Date */
 362:src/pff.c     **** 		fno->ftime = LD_WORD(dir+DIR_WrtTime); /* Time */
 363:src/pff.c     **** 	}
 364:src/pff.c     **** 	*p = 0;
 365:src/pff.c     **** }
 366:src/pff.c     **** #endif /* _USE_DIR */
 367:src/pff.c     **** 
 368:src/pff.c     **** /*-----------------------------------------------------------------------*/
 369:src/pff.c     **** /* Follow a file path                                                    */
 370:src/pff.c     **** /*-----------------------------------------------------------------------*/
 371:src/pff.c     **** 
 372:src/pff.c     **** static FRESULT follow_path ( /* FR_OK(0): successful, !=0: error code */
 373:src/pff.c     **** DIR *dj, /* Directory object to return last directory and found object */
ARM GAS  /cygdrive/c/DOCUME~1/mkwapisz/LOCALS~1/Temp/ccd1rULD.s 			page 10


 374:src/pff.c     **** const char *path /* Full-path string to find a file or directory */
 375:src/pff.c     **** )
 376:src/pff.c     **** {
 377:src/pff.c     **** 	FRESULT res;
 378:src/pff.c     **** 	BYTE *dir;
 379:src/pff.c     **** 
 380:src/pff.c     **** 	while (*path == ' ')
 381:src/pff.c     **** 		path++; /* Skip leading spaces */
 382:src/pff.c     **** 	if (*path == '/')
 383:src/pff.c     **** 		path++; /* Strip heading separator */
 384:src/pff.c     **** 	dj->sclust = 0; /* Set start directory (always root dir) */
 385:src/pff.c     **** 
 386:src/pff.c     **** 	if ((BYTE) *path <= ' ')
 387:src/pff.c     **** 	{ /* Null path means the root directory */
 388:src/pff.c     **** 		res = dir_rewind (dj);
 389:src/pff.c     **** 		FatFs->buf[0] = 0;
 390:src/pff.c     **** 
 391:src/pff.c     **** 	} else
 392:src/pff.c     **** 	{ /* Follow path */
 393:src/pff.c     **** 		for (;;)
 394:src/pff.c     **** 		{
 395:src/pff.c     **** 			res = create_name (dj, &path); /* Get a segment */
 396:src/pff.c     **** 			if (res != FR_OK)
 397:src/pff.c     **** 				break;
 398:src/pff.c     **** 			res = dir_find (dj); /* Find it */
 399:src/pff.c     **** 			if (res != FR_OK)
 400:src/pff.c     **** 			{ /* Could not find the object */
 401:src/pff.c     **** 				if (res == FR_NO_FILE && !*(dj->fn + 11))
 402:src/pff.c     **** 					res = FR_NO_PATH;
 403:src/pff.c     **** 				break;
 404:src/pff.c     **** 			}
 405:src/pff.c     **** 			if (*(dj->fn + 11))
 406:src/pff.c     **** 				break; /* Last segment match. Function completed. */
 407:src/pff.c     **** 			dir = FatFs->buf; /* There is next segment. Follow the sub directory */
 408:src/pff.c     **** 			if (!(dir[DIR_Attr] & AM_DIR))
 409:src/pff.c     **** 			{ /* Cannot follow because it is a file */
 410:src/pff.c     **** 				res = FR_NO_PATH;
 411:src/pff.c     **** 				break;
 412:src/pff.c     **** 			}
 413:src/pff.c     **** 			dj->sclust =
 414:src/pff.c     **** #if _FS_FAT32
 415:src/pff.c     **** 					((DWORD) LD_WORD(dir+DIR_FstClusHI) << 16) |
 416:src/pff.c     **** #endif
 417:src/pff.c     **** 							LD_WORD(dir+DIR_FstClusLO);
 418:src/pff.c     **** 		}
 419:src/pff.c     **** 	}
 420:src/pff.c     **** 
 421:src/pff.c     **** 	return res;
 422:src/pff.c     **** }
 423:src/pff.c     **** 
 424:src/pff.c     **** /*-----------------------------------------------------------------------*/
 425:src/pff.c     **** /* Check a sector if it is an FAT boot record                            */
 426:src/pff.c     **** /*-----------------------------------------------------------------------*/
 427:src/pff.c     **** 
 428:src/pff.c     **** static BYTE check_fs ( /* 0:The FAT boot record, 1:Valid boot record but not an FAT, 2:Not a boot r
 429:src/pff.c     **** BYTE *buf, /* Working buffer */
 430:src/pff.c     **** DWORD sect /* Sector# (lba) to check if it is an FAT boot record or not */
ARM GAS  /cygdrive/c/DOCUME~1/mkwapisz/LOCALS~1/Temp/ccd1rULD.s 			page 11


 431:src/pff.c     **** )
 432:src/pff.c     **** {
 137              		.loc 1 432 0
 138              		@ Function supports interworking.
 139              		@ args = 0, pretend = 0, frame = 0
 140              		@ frame_needed = 0, uses_anonymous_args = 0
 141              	.LVL12:
 142 00bc 70402DE9 		stmfd	sp!, {r4, r5, r6, lr}
 143              	.LCFI1:
 433:src/pff.c     **** 	if (disk_readp (buf, sect, 510, 2)) /* Read the boot sector */
 144              		.loc 1 433 0
 145 00c0 AC209FE5 		ldr	r2, .L35
 146 00c4 0230A0E3 		mov	r3, #2
 147              		.loc 1 432 0
 148 00c8 0040A0E1 		mov	r4, r0
 149 00cc 0150A0E1 		mov	r5, r1
 150              		.loc 1 433 0
 151 00d0 FEFFFFEB 		bl	disk_readp
 152              	.LVL13:
 153 00d4 000050E3 		cmp	r0, #0
 154 00d8 0300A013 		movne	r0, #3
 155 00dc 2200001A 		bne	.L26
 434:src/pff.c     **** 		return 3;
 435:src/pff.c     **** 	if (LD_WORD(buf) != 0xAA55) /* Check record signature */
 156              		.loc 1 435 0
 157 00e0 0130D4E5 		ldrb	r3, [r4, #1]	@ zero_extendqisi2
 158 00e4 0020D4E5 		ldrb	r2, [r4, #0]	@ zero_extendqisi2
 159 00e8 032482E1 		orr	r2, r2, r3, asl #8
 160 00ec 84309FE5 		ldr	r3, .L35+4
 161 00f0 030052E1 		cmp	r2, r3
 162 00f4 016084E2 		add	r6, r4, #1
 163 00f8 0200A013 		movne	r0, #2
 164 00fc 1A00001A 		bne	.L26
 436:src/pff.c     **** 		return 2;
 437:src/pff.c     **** 
 438:src/pff.c     **** 	if (!disk_readp (buf, sect, BS_FilSysType, 2) && LD_WORD(buf) == 0x4146) /* Check FAT12/16 */
 165              		.loc 1 438 0
 166 0100 0400A0E1 		mov	r0, r4
 167 0104 0510A0E1 		mov	r1, r5
 168 0108 3620A0E3 		mov	r2, #54
 169 010c 0230A0E3 		mov	r3, #2
 170 0110 FEFFFFEB 		bl	disk_readp
 171 0114 000050E3 		cmp	r0, #0
 172 0118 0500001A 		bne	.L29
 173 011c 0130D4E5 		ldrb	r3, [r4, #1]	@ zero_extendqisi2
 174 0120 0020D4E5 		ldrb	r2, [r4, #0]	@ zero_extendqisi2
 175 0124 032482E1 		orr	r2, r2, r3, asl #8
 176 0128 4C309FE5 		ldr	r3, .L35+8
 177 012c 030052E1 		cmp	r2, r3
 178 0130 0D00000A 		beq	.L26
 179              	.L29:
 439:src/pff.c     **** 		return 0;
 440:src/pff.c     **** #if _FS_FAT32
 441:src/pff.c     **** 	if (!disk_readp (buf, sect, BS_FilSysType32, 2) && LD_WORD(buf) == 0x4146) /* Check FAT32 */
 180              		.loc 1 441 0
 181 0134 0510A0E1 		mov	r1, r5
 182 0138 0400A0E1 		mov	r0, r4
ARM GAS  /cygdrive/c/DOCUME~1/mkwapisz/LOCALS~1/Temp/ccd1rULD.s 			page 12


 183 013c 5220A0E3 		mov	r2, #82
 184 0140 0230A0E3 		mov	r3, #2
 185 0144 FEFFFFEB 		bl	disk_readp
 186 0148 000050E3 		cmp	r0, #0
 187 014c 0100A013 		movne	r0, #1
 188 0150 0500001A 		bne	.L26
 189 0154 0030D6E5 		ldrb	r3, [r6, #0]	@ zero_extendqisi2
 190 0158 0020D4E5 		ldrb	r2, [r4, #0]	@ zero_extendqisi2
 191 015c 032482E1 		orr	r2, r2, r3, asl #8
 192 0160 14309FE5 		ldr	r3, .L35+8
 193 0164 030052E0 		subs	r0, r2, r3
 194 0168 0100A013 		movne	r0, #1
 195              	.L26:
 442:src/pff.c     **** 		return 0;
 443:src/pff.c     **** #endif
 444:src/pff.c     **** 	return 1;
 445:src/pff.c     **** }
 196              		.loc 1 445 0
 197 016c 7040BDE8 		ldmfd	sp!, {r4, r5, r6, lr}
 198 0170 1EFF2FE1 		bx	lr
 199              	.L36:
 200              		.align	2
 201              	.L35:
 202 0174 FE010000 		.word	510
 203 0178 55AA0000 		.word	43605
 204 017c 46410000 		.word	16710
 205              	.LFE13:
 206              		.size	check_fs, .-check_fs
 207              		.align	2
 208              		.type	get_fat, %function
 209              	get_fat:
 210              	.LFB4:
 211              		.loc 1 63 0
 212              		@ Function supports interworking.
 213              		@ args = 0, pretend = 0, frame = 4
 214              		@ frame_needed = 0, uses_anonymous_args = 0
 215              	.LVL14:
 216 0180 F0412DE9 		stmfd	sp!, {r4, r5, r6, r7, r8, lr}
 217              	.LCFI2:
 218              		.loc 1 66 0
 219 0184 68319FE5 		ldr	r3, .L56
 220              		.loc 1 68 0
 221 0188 010050E3 		cmp	r0, #1
 222              		.loc 1 63 0
 223 018c 04D04DE2 		sub	sp, sp, #4
 224              	.LCFI3:
 225              		.loc 1 63 0
 226 0190 0060A0E1 		mov	r6, r0
 227              		.loc 1 66 0
 228 0194 005093E5 		ldr	r5, [r3, #0]
 229              	.LVL15:
 230              		.loc 1 68 0
 231 0198 5100009A 		bls	.L38
 232              	.LVL16:
 233 019c 0C3095E5 		ldr	r3, [r5, #12]
 234 01a0 030050E1 		cmp	r0, r3
 235 01a4 4E00002A 		bcs	.L38
ARM GAS  /cygdrive/c/DOCUME~1/mkwapisz/LOCALS~1/Temp/ccd1rULD.s 			page 13


 236              	.LVL17:
 237              		.loc 1 71 0
 238 01a8 0070D5E5 		ldrb	r7, [r5, #0]	@ zero_extendqisi2
 239 01ac 020057E3 		cmp	r7, #2
 240 01b0 2B00000A 		beq	.L42
 241 01b4 030057E3 		cmp	r7, #3
 242 01b8 3600000A 		beq	.L43
 243 01bc 010057E3 		cmp	r7, #1
 244 01c0 4700001A 		bne	.L38
 245              		.loc 1 74 0
 246 01c4 0038A0E1 		mov	r3, r0, asl #16
 247              		.loc 1 75 0
 248 01c8 A328A0E1 		mov	r2, r3, lsr #17
 249 01cc 232882E0 		add	r2, r2, r3, lsr #16
 250              		.loc 1 76 0
 251 01d0 82CBA0E1 		mov	ip, r2, asl #23
 252              	.LVL18:
 253              		.loc 1 78 0
 254 01d4 1C319FE5 		ldr	r3, .L56+4
 255              		.loc 1 76 0
 256 01d8 ACCBA0E1 		mov	ip, ip, lsr #23
 257              		.loc 1 78 0
 258 01dc 03005CE1 		cmp	ip, r3
 259              		.loc 1 77 0
 260 01e0 A224A0E1 		mov	r2, r2, lsr #9
 261 01e4 7F4002E2 		and	r4, r2, #127
 262              	.LVL19:
 263 01e8 0D80A0E1 		mov	r8, sp
 264 01ec 103095E5 		ldr	r3, [r5, #16]
 265              		.loc 1 78 0
 266              		.loc 1 80 0
 267 01f0 03108410 		addne	r1, r4, r3
 268 01f4 0D00A011 		movne	r0, sp
 269              	.LVL20:
 270 01f8 0C20A011 		movne	r2, ip
 271 01fc 0230A013 		movne	r3, #2
 272 0200 0B00001A 		bne	.L54
 273              	.LVL21:
 274              	.L44:
 275              		.loc 1 84 0
 276 0204 031084E0 		add	r1, r4, r3
 277 0208 0C20A0E1 		mov	r2, ip
 278 020c 0D00A0E1 		mov	r0, sp
 279              	.LVL22:
 280 0210 0730A0E1 		mov	r3, r7
 281 0214 FEFFFFEB 		bl	disk_readp
 282              	.LVL23:
 283 0218 002050E2 		subs	r2, r0, #0
 284 021c 3000001A 		bne	.L38
 285              		.loc 1 86 0
 286 0220 101095E5 		ldr	r1, [r5, #16]
 287 0224 011081E2 		add	r1, r1, #1
 288 0228 011084E0 		add	r1, r4, r1
 289 022c 01008DE2 		add	r0, sp, #1
 290 0230 0730A0E1 		mov	r3, r7
 291              	.LVL24:
 292              	.L54:
ARM GAS  /cygdrive/c/DOCUME~1/mkwapisz/LOCALS~1/Temp/ccd1rULD.s 			page 14


 293 0234 FEFFFFEB 		bl	disk_readp
 294              	.LVL25:
 295 0238 000050E3 		cmp	r0, #0
 296 023c 2800001A 		bne	.L38
 297              		.loc 1 89 0
 298 0240 0120DDE5 		ldrb	r2, [sp, #1]	@ zero_extendqisi2
 299 0244 0030DDE5 		ldrb	r3, [sp, #0]	@ zero_extendqisi2
 300 0248 023483E1 		orr	r3, r3, r2, asl #8
 301 024c 0308A0E1 		mov	r0, r3, asl #16
 302 0250 2038A0E1 		mov	r3, r0, lsr #16
 303              	.LVL26:
 304              		.loc 1 90 0
 305 0254 010016E3 		tst	r6, #1
 306 0258 030AA001 		moveq	r0, r3, asl #20
 307 025c 200AA0E1 		mov	r0, r0, lsr #20
 308 0260 200000EA 		b	.L50
 309              	.LVL27:
 310              	.L42:
 311              		.loc 1 93 0
 312 0264 101095E5 		ldr	r1, [r5, #16]
 313              	.LVL28:
 314 0268 FF2000E2 		and	r2, r0, #255
 315 026c 8220A0E1 		mov	r2, r2, asl #1
 316 0270 0730A0E1 		mov	r3, r7
 317 0274 201481E0 		add	r1, r1, r0, lsr #8
 318 0278 0D00A0E1 		mov	r0, sp
 319 027c FEFFFFEB 		bl	disk_readp
 320 0280 000050E3 		cmp	r0, #0
 321              		.loc 1 95 0
 322 0284 0120DD05 		ldreqb	r2, [sp, #1]	@ zero_extendqisi2
 323 0288 0030DD05 		ldreqb	r3, [sp, #0]	@ zero_extendqisi2
 324 028c 02048301 		orreq	r0, r3, r2, asl #8
 325              		.loc 1 93 0
 326 0290 1400000A 		beq	.L50
 327 0294 120000EA 		b	.L38
 328              	.LVL29:
 329              	.L43:
 330              		.loc 1 98 0
 331 0298 101095E5 		ldr	r1, [r5, #16]
 332 029c 7F2000E2 		and	r2, r0, #127
 333 02a0 A01381E0 		add	r1, r1, r0, lsr #7
 334 02a4 0221A0E1 		mov	r2, r2, asl #2
 335 02a8 0D00A0E1 		mov	r0, sp
 336              	.LVL30:
 337 02ac 0430A0E3 		mov	r3, #4
 338 02b0 FEFFFFEB 		bl	disk_readp
 339 02b4 000050E3 		cmp	r0, #0
 340 02b8 0900001A 		bne	.L38
 341              		.loc 1 100 0
 342 02bc 0230DDE5 		ldrb	r3, [sp, #2]	@ zero_extendqisi2
 343 02c0 0320DDE5 		ldrb	r2, [sp, #3]	@ zero_extendqisi2
 344 02c4 0338A0E1 		mov	r3, r3, asl #16
 345 02c8 0010DDE5 		ldrb	r1, [sp, #0]	@ zero_extendqisi2
 346 02cc 023C83E1 		orr	r3, r3, r2, asl #24
 347 02d0 0120DDE5 		ldrb	r2, [sp, #1]	@ zero_extendqisi2
 348 02d4 013083E1 		orr	r3, r3, r1
 349 02d8 023483E1 		orr	r3, r3, r2, asl #8
ARM GAS  /cygdrive/c/DOCUME~1/mkwapisz/LOCALS~1/Temp/ccd1rULD.s 			page 15


 350 02dc 0F02C3E3 		bic	r0, r3, #-268435456
 351 02e0 000000EA 		b	.L50
 352              	.LVL31:
 353              	.L38:
 354 02e4 0100A0E3 		mov	r0, #1
 355              	.LVL32:
 356              	.L50:
 357              		.loc 1 105 0
 358 02e8 04D08DE2 		add	sp, sp, #4
 359 02ec F041BDE8 		ldmfd	sp!, {r4, r5, r6, r7, r8, lr}
 360 02f0 1EFF2FE1 		bx	lr
 361              	.L57:
 362              		.align	2
 363              	.L56:
 364 02f4 00000000 		.word	FatFs
 365 02f8 FF010000 		.word	511
 366              	.LFE4:
 367              		.size	get_fat, .-get_fat
 368              		.global	__udivsi3
 369              		.align	2
 370              		.global	pf_lseek
 371              		.type	pf_lseek, %function
 372              	pf_lseek:
 373              	.LFB17:
 446:src/pff.c     **** 
 447:src/pff.c     **** /*--------------------------------------------------------------------------
 448:src/pff.c     **** 
 449:src/pff.c     ****  Public Functions
 450:src/pff.c     **** 
 451:src/pff.c     ****  --------------------------------------------------------------------------*/
 452:src/pff.c     **** 
 453:src/pff.c     **** /*-----------------------------------------------------------------------*/
 454:src/pff.c     **** /* Mount/Unmount a Locical Drive                                         */
 455:src/pff.c     **** /*-----------------------------------------------------------------------*/
 456:src/pff.c     **** 
 457:src/pff.c     **** FRESULT pf_mount (FATFS *fs /* Pointer to new file system object (NULL: Unmount) */
 458:src/pff.c     **** )
 459:src/pff.c     **** {
 460:src/pff.c     **** 	BYTE fmt, buf[36];
 461:src/pff.c     **** 	DWORD bsect, fsize, tsect, mclst;
 462:src/pff.c     **** 
 463:src/pff.c     **** 	FatFs = 0;
 464:src/pff.c     **** 	if (!fs)
 465:src/pff.c     **** 		return FR_OK; /* Unregister fs object */
 466:src/pff.c     **** 
 467:src/pff.c     **** 	if (disk_initialize () & STA_NOINIT) /* Check if the drive is ready or not */
 468:src/pff.c     **** 		return FR_NOT_READY;
 469:src/pff.c     **** 
 470:src/pff.c     **** 	/* Search FAT partition on the drive */
 471:src/pff.c     **** 	bsect = 0;
 472:src/pff.c     **** 	fmt = check_fs (buf, bsect); /* Check sector 0 as an SFD format */
 473:src/pff.c     **** 	if (fmt == 1)
 474:src/pff.c     **** 	{ /* Not an FAT boot record, it may be FDISK format */
 475:src/pff.c     **** 		/* Check a partition listed in top of the partition table */
 476:src/pff.c     **** 		if (disk_readp (buf, bsect, MBR_Table, 16))
 477:src/pff.c     **** 		{ /* 1st partition entry */
 478:src/pff.c     **** 			fmt = 3;
ARM GAS  /cygdrive/c/DOCUME~1/mkwapisz/LOCALS~1/Temp/ccd1rULD.s 			page 16


 479:src/pff.c     **** 		} else
 480:src/pff.c     **** 		{
 481:src/pff.c     **** 			if (buf[4])
 482:src/pff.c     **** 			{ /* Is the partition existing? */
 483:src/pff.c     **** 				bsect = LD_DWORD(&buf[8]); /* Partition offset in LBA */
 484:src/pff.c     **** 				fmt = check_fs (buf, bsect); /* Check the partition */
 485:src/pff.c     **** 			}
 486:src/pff.c     **** 		}
 487:src/pff.c     **** 	}
 488:src/pff.c     **** 	if (fmt == 3)
 489:src/pff.c     **** 		return FR_DISK_ERR;
 490:src/pff.c     **** 	if (fmt)
 491:src/pff.c     **** 		return FR_NO_FILESYSTEM; /* No valid FAT patition is found */
 492:src/pff.c     **** 
 493:src/pff.c     **** 	/* Initialize the file system object */
 494:src/pff.c     **** 	if (disk_readp (buf, bsect, 13, sizeof(buf)))
 495:src/pff.c     **** 		return FR_DISK_ERR;
 496:src/pff.c     **** 
 497:src/pff.c     **** 	fsize = LD_WORD(buf+BPB_FATSz16-13); /* Number of sectors per FAT */
 498:src/pff.c     **** 	if (!fsize)
 499:src/pff.c     **** 		fsize = LD_DWORD(buf+BPB_FATSz32-13);
 500:src/pff.c     **** 
 501:src/pff.c     **** 	fsize *= buf[BPB_NumFATs - 13]; /* Number of sectors in FAT area */
 502:src/pff.c     **** 	fs->fatbase = bsect + LD_WORD(buf+BPB_RsvdSecCnt-13); /* FAT start sector (lba) */
 503:src/pff.c     **** 	fs->csize = buf[BPB_SecPerClus - 13]; /* Number of sectors per cluster */
 504:src/pff.c     **** 	fs->n_rootdir = LD_WORD(buf+BPB_RootEntCnt-13); /* Nmuber of root directory entries */
 505:src/pff.c     **** 	tsect = LD_WORD(buf+BPB_TotSec16-13); /* Number of sectors on the file system */
 506:src/pff.c     **** 	if (!tsect)
 507:src/pff.c     **** 		tsect = LD_DWORD(buf+BPB_TotSec32-13);
 508:src/pff.c     **** 	mclst = (tsect /* Last cluster# + 1 */
 509:src/pff.c     **** 	- LD_WORD(buf+BPB_RsvdSecCnt-13) - fsize - fs->n_rootdir / 16) / fs->csize + 2;
 510:src/pff.c     **** 	fs->max_clust = (CLUST) mclst;
 511:src/pff.c     **** 
 512:src/pff.c     **** 	fmt = FS_FAT12; /* Determine the FAT sub type */
 513:src/pff.c     **** 	if (mclst >= 0xFF7)
 514:src/pff.c     **** 		fmt = FS_FAT16; /* Number of clusters >= 0xFF5 */
 515:src/pff.c     **** 	if (mclst >= 0xFFF7) /* Number of clusters >= 0xFFF5 */
 516:src/pff.c     **** #if _FS_FAT32
 517:src/pff.c     **** 		fmt = FS_FAT32;
 518:src/pff.c     **** #else
 519:src/pff.c     **** 	return FR_NO_FILESYSTEM;
 520:src/pff.c     **** #endif
 521:src/pff.c     **** 
 522:src/pff.c     **** 	fs->fs_type = fmt; /* FAT sub-type */
 523:src/pff.c     **** #if _FS_FAT32
 524:src/pff.c     **** 	if (fmt == FS_FAT32)
 525:src/pff.c     **** 		fs->dirbase = LD_DWORD(buf+(BPB_RootClus-13)); /* Root directory start cluster */
 526:src/pff.c     **** 	else
 527:src/pff.c     **** #endif
 528:src/pff.c     **** 		fs->dirbase = fs->fatbase + fsize; /* Root directory start sector (lba) */
 529:src/pff.c     **** 	fs->database = fs->fatbase + fsize + fs->n_rootdir / 16; /* Data start sector (lba) */
 530:src/pff.c     **** 
 531:src/pff.c     **** 	fs->flag = 0;
 532:src/pff.c     **** 	FatFs = fs;
 533:src/pff.c     **** 
 534:src/pff.c     **** 	return FR_OK;
 535:src/pff.c     **** }
ARM GAS  /cygdrive/c/DOCUME~1/mkwapisz/LOCALS~1/Temp/ccd1rULD.s 			page 17


 536:src/pff.c     **** 
 537:src/pff.c     **** /*-----------------------------------------------------------------------*/
 538:src/pff.c     **** /* Open or Create a File                                                 */
 539:src/pff.c     **** /*-----------------------------------------------------------------------*/
 540:src/pff.c     **** 
 541:src/pff.c     **** FRESULT pf_open (const char *path /* Pointer to the file name */
 542:src/pff.c     **** )
 543:src/pff.c     **** {
 544:src/pff.c     **** 	FRESULT res;
 545:src/pff.c     **** 	DIR dj;
 546:src/pff.c     **** 	BYTE sp[12], dir[32];
 547:src/pff.c     **** 	FATFS *fs = FatFs;
 548:src/pff.c     **** 
 549:src/pff.c     **** 	if (!fs) /* Check file system */
 550:src/pff.c     **** 		return FR_NOT_ENABLED;
 551:src/pff.c     **** 
 552:src/pff.c     **** 	fs->flag = 0;
 553:src/pff.c     **** 	fs->buf = dir;
 554:src/pff.c     **** 	dj.fn = sp;
 555:src/pff.c     **** 	res = follow_path (&dj, path); /* Follow the file path */
 556:src/pff.c     **** 	if (res != FR_OK)
 557:src/pff.c     **** 		return res; /* Follow failed */
 558:src/pff.c     **** 	if (!dir[0] || (dir[DIR_Attr] & AM_DIR)) /* It is a directory */
 559:src/pff.c     **** 		return FR_NO_FILE;
 560:src/pff.c     **** 
 561:src/pff.c     **** 	fs->org_clust = /* File start cluster */
 562:src/pff.c     **** #if _FS_FAT32
 563:src/pff.c     **** 			((DWORD) LD_WORD(dir+DIR_FstClusHI) << 16) |
 564:src/pff.c     **** #endif
 565:src/pff.c     **** 					LD_WORD(dir+DIR_FstClusLO);
 566:src/pff.c     **** 	fs->fsize = LD_DWORD(dir+DIR_FileSize); /* File size */
 567:src/pff.c     **** 	fs->fptr = 0; /* File pointer */
 568:src/pff.c     **** 	fs->flag = FA_OPENED;
 569:src/pff.c     **** 
 570:src/pff.c     **** 	return FR_OK;
 571:src/pff.c     **** }
 572:src/pff.c     **** 
 573:src/pff.c     **** /*-----------------------------------------------------------------------*/
 574:src/pff.c     **** /* Read File                                                             */
 575:src/pff.c     **** /*-----------------------------------------------------------------------*/
 576:src/pff.c     **** #if _USE_READ
 577:src/pff.c     **** 
 578:src/pff.c     **** DRESULT dr;
 579:src/pff.c     **** CLUST clst;
 580:src/pff.c     **** DWORD sect, remain;
 581:src/pff.c     **** BYTE *rbuff;
 582:src/pff.c     **** WORD rcnt;
 583:src/pff.c     **** FATFS *fs;
 584:src/pff.c     **** 
 585:src/pff.c     **** FRESULT pf_read (void* buff, /* Pointer to the read buffer (NULL:Forward data to the stream)*/
 586:src/pff.c     **** WORD btr, /* Number of bytes to read */
 587:src/pff.c     **** WORD* br /* Pointer to number of bytes read */
 588:src/pff.c     **** )
 589:src/pff.c     **** {
 590:src/pff.c     **** 	//DRESULT dr;
 591:src/pff.c     **** 	//CLUST clst;
 592:src/pff.c     **** 	//DWORD sect, remain;
ARM GAS  /cygdrive/c/DOCUME~1/mkwapisz/LOCALS~1/Temp/ccd1rULD.s 			page 18


 593:src/pff.c     **** 	rbuff = buff;
 594:src/pff.c     **** 	//WORD rcnt;
 595:src/pff.c     **** 	fs = FatFs;
 596:src/pff.c     **** 
 597:src/pff.c     **** 	*br = 0;
 598:src/pff.c     **** 	if (!fs)
 599:src/pff.c     **** 		return FR_NOT_ENABLED; /* Check file system */
 600:src/pff.c     **** 	if (!(fs->flag & FA_OPENED)) /* Check if opened */
 601:src/pff.c     **** 		return FR_NOT_OPENED;
 602:src/pff.c     **** 
 603:src/pff.c     **** 	remain = fs->fsize - fs->fptr;
 604:src/pff.c     **** 	if (btr > remain)
 605:src/pff.c     **** 		btr = (WORD) remain; /* Truncate btr by remaining bytes */
 606:src/pff.c     **** 
 607:src/pff.c     **** 	while (btr)
 608:src/pff.c     **** 	{ /* Repeat until all data transferred */
 609:src/pff.c     **** 		if ((fs->fptr % 512) == 0)
 610:src/pff.c     **** 		{ /* On the sector boundary? */
 611:src/pff.c     **** 			if ((fs->fptr / 512 % fs->csize) == 0)
 612:src/pff.c     **** 			{ /* On the cluster boundary? */
 613:src/pff.c     **** 				clst = (fs->fptr == 0) ? /* On the top of the file? */
 614:src/pff.c     **** 				fs->org_clust : get_fat (fs->curr_clust);
 615:src/pff.c     **** 				if (clst <= 1)
 616:src/pff.c     **** 					goto fr_abort;
 617:src/pff.c     **** 				fs->curr_clust = clst; /* Update current cluster */
 618:src/pff.c     **** 				fs->csect = 0; /* Reset sector offset in the cluster */
 619:src/pff.c     **** 			}
 620:src/pff.c     **** 			sect = clust2sect (fs->curr_clust); /* Get current sector */
 621:src/pff.c     **** 			if (!sect)
 622:src/pff.c     **** 				goto fr_abort;
 623:src/pff.c     **** 			fs->dsect = sect + fs->csect++;
 624:src/pff.c     **** 		}
 625:src/pff.c     **** 		rcnt = 512 - ((WORD) fs->fptr % 512); /* Get partial sector data from sector buffer */
 626:src/pff.c     **** 		if (rcnt > btr)
 627:src/pff.c     **** 			rcnt = btr;
 628:src/pff.c     **** 		dr = disk_readp (!buff ? 0 : rbuff, fs->dsect, (WORD) (fs->fptr % 512), rcnt);
 629:src/pff.c     **** 		if (dr)
 630:src/pff.c     **** 			goto fr_abort;
 631:src/pff.c     **** 		fs->fptr += rcnt;
 632:src/pff.c     **** 		rbuff += rcnt; /* Update pointers and counters */
 633:src/pff.c     **** 		btr -= rcnt;
 634:src/pff.c     **** 		*br += rcnt;
 635:src/pff.c     **** 	}
 636:src/pff.c     **** 
 637:src/pff.c     **** 	return FR_OK;
 638:src/pff.c     **** 
 639:src/pff.c     **** 	fr_abort: fs->flag = 0;
 640:src/pff.c     **** 	return FR_DISK_ERR;
 641:src/pff.c     **** }
 642:src/pff.c     **** #endif
 643:src/pff.c     **** 
 644:src/pff.c     **** /*-----------------------------------------------------------------------*/
 645:src/pff.c     **** /* Write File                                                            */
 646:src/pff.c     **** /*-----------------------------------------------------------------------*/
 647:src/pff.c     **** #if _USE_WRITE
 648:src/pff.c     **** 
 649:src/pff.c     **** FRESULT pf_write (
ARM GAS  /cygdrive/c/DOCUME~1/mkwapisz/LOCALS~1/Temp/ccd1rULD.s 			page 19


 650:src/pff.c     **** 		const void* buff, /* Pointer to the data to be written */
 651:src/pff.c     **** 		WORD btw, /* Number of bytes to write (0:Finalize the current write operation) */
 652:src/pff.c     **** 		WORD* bw /* Pointer to number of bytes written */
 653:src/pff.c     **** )
 654:src/pff.c     **** {
 655:src/pff.c     **** 	CLUST clst;
 656:src/pff.c     **** 	DWORD sect, remain;
 657:src/pff.c     **** 	const BYTE *p = buff;
 658:src/pff.c     **** 	WORD wcnt;
 659:src/pff.c     **** 	FATFS *fs = FatFs;
 660:src/pff.c     **** 
 661:src/pff.c     **** 	*bw = 0;
 662:src/pff.c     **** 	if (!fs) return FR_NOT_ENABLED; /* Check file system */
 663:src/pff.c     **** 	if (!(fs->flag & FA_OPENED)) /* Check if opened */
 664:src/pff.c     **** 	return FR_NOT_OPENED;
 665:src/pff.c     **** 
 666:src/pff.c     **** 	if (!btw)
 667:src/pff.c     **** 	{ /* Finalize request */
 668:src/pff.c     **** 		if ((fs->flag & FA__WIP) && disk_writep(0, 0)) goto fw_abort;
 669:src/pff.c     **** 		fs->flag &= ~FA__WIP;
 670:src/pff.c     **** 		return FR_OK;
 671:src/pff.c     **** 	} else
 672:src/pff.c     **** 	{ /* Write data request */
 673:src/pff.c     **** 		if (!(fs->flag & FA__WIP)) /* Round down fptr to the sector boundary */
 674:src/pff.c     **** 		fs->fptr &= 0xFFFFFE00;
 675:src/pff.c     **** 	}
 676:src/pff.c     **** 	remain = fs->fsize - fs->fptr;
 677:src/pff.c     **** 	if (btw > remain) btw = (WORD)remain; /* Truncate btw by remaining bytes */
 678:src/pff.c     **** 
 679:src/pff.c     **** 	while (btw)
 680:src/pff.c     **** 	{ /* Repeat until all data transferred */
 681:src/pff.c     **** 		if (((WORD)fs->fptr % 512) == 0)
 682:src/pff.c     **** 		{ /* On the sector boundary? */
 683:src/pff.c     **** 			if ((fs->fptr / 512 % fs->csize) == 0)
 684:src/pff.c     **** 			{ /* On the cluster boundary? */
 685:src/pff.c     **** 				clst = (fs->fptr == 0) ? /* On the top of the file? */
 686:src/pff.c     **** 				fs->org_clust : get_fat(fs->curr_clust);
 687:src/pff.c     **** 				if (clst <= 1) goto fw_abort;
 688:src/pff.c     **** 				fs->curr_clust = clst; /* Update current cluster */
 689:src/pff.c     **** 				fs->csect = 0; /* Reset sector offset in the cluster */
 690:src/pff.c     **** 			}
 691:src/pff.c     **** 			sect = clust2sect(fs->curr_clust); /* Get current sector */
 692:src/pff.c     **** 			if (!sect) goto fw_abort;
 693:src/pff.c     **** 			fs->dsect = sect + fs->csect++;
 694:src/pff.c     **** 			if (disk_writep(0, fs->dsect)) goto fw_abort; /* Initiate a sector write operation */
 695:src/pff.c     **** 			fs->flag |= FA__WIP;
 696:src/pff.c     **** 		}
 697:src/pff.c     **** 		wcnt = 512 - ((WORD)fs->fptr % 512); /* Number of bytes to write to the sector */
 698:src/pff.c     **** 		if (wcnt > btw) wcnt = btw;
 699:src/pff.c     **** 		if (disk_writep(p, wcnt)) goto fw_abort; /* Send data to the sector */
 700:src/pff.c     **** 		fs->fptr += wcnt; p += wcnt; /* Update pointers and counters */
 701:src/pff.c     **** 		btw -= wcnt; *bw += wcnt;
 702:src/pff.c     **** 		if (((WORD)fs->fptr % 512) == 0)
 703:src/pff.c     **** 		{
 704:src/pff.c     **** 			if (disk_writep(0, 0)) goto fw_abort; /* Finalize the currtent secter write operation */
 705:src/pff.c     **** 			fs->flag &= ~FA__WIP;
 706:src/pff.c     **** 		}
ARM GAS  /cygdrive/c/DOCUME~1/mkwapisz/LOCALS~1/Temp/ccd1rULD.s 			page 20


 707:src/pff.c     **** 	}
 708:src/pff.c     **** 
 709:src/pff.c     **** 	return FR_OK;
 710:src/pff.c     **** 
 711:src/pff.c     **** 	fw_abort:
 712:src/pff.c     **** 	fs->flag = 0;
 713:src/pff.c     **** 	return FR_DISK_ERR;
 714:src/pff.c     **** }
 715:src/pff.c     **** #endif
 716:src/pff.c     **** 
 717:src/pff.c     **** /*-----------------------------------------------------------------------*/
 718:src/pff.c     **** /* Seek File R/W Pointer                                                 */
 719:src/pff.c     **** /*-----------------------------------------------------------------------*/
 720:src/pff.c     **** #if _USE_LSEEK
 721:src/pff.c     **** 
 722:src/pff.c     **** FRESULT pf_lseek (DWORD ofs /* File pointer from top of file */
 723:src/pff.c     **** )
 724:src/pff.c     **** {
 374              		.loc 1 724 0
 375              		@ Function supports interworking.
 376              		@ args = 0, pretend = 0, frame = 0
 377              		@ frame_needed = 0, uses_anonymous_args = 0
 378              	.LVL33:
 725:src/pff.c     **** 	CLUST clst;
 726:src/pff.c     **** 	DWORD bcs, sect, ifptr;
 727:src/pff.c     **** 	FATFS *fs = FatFs;
 379              		.loc 1 727 0
 380 02fc 3C319FE5 		ldr	r3, .L80
 381              		.loc 1 724 0
 382 0300 F0412DE9 		stmfd	sp!, {r4, r5, r6, r7, r8, lr}
 383              	.LCFI4:
 384              		.loc 1 727 0
 385 0304 005093E5 		ldr	r5, [r3, #0]
 386              	.LVL34:
 728:src/pff.c     **** 
 729:src/pff.c     **** 	if (!fs)
 387              		.loc 1 729 0
 388 0308 000055E3 		cmp	r5, #0
 389 030c 0600A003 		moveq	r0, #6
 390              	.LVL35:
 391 0310 4800000A 		beq	.L61
 730:src/pff.c     **** 		return FR_NOT_ENABLED; /* Check file system */
 731:src/pff.c     **** 	if (!(fs->flag & FA_OPENED)) /* Check if opened */
 392              		.loc 1 731 0
 393 0314 0230D5E5 		ldrb	r3, [r5, #2]	@ zero_extendqisi2
 394 0318 010013E3 		tst	r3, #1
 395 031c 0500A003 		moveq	r0, #5
 396 0320 4400000A 		beq	.L61
 397 0324 203095E5 		ldr	r3, [r5, #32]
 398              	.LVL36:
 399 0328 030050E1 		cmp	r0, r3
 400 032c 0060A031 		movcc	r6, r0
 401 0330 0360A021 		movcs	r6, r3
 402              	.LVL37:
 732:src/pff.c     **** 		return FR_NOT_OPENED;
 733:src/pff.c     **** 
 734:src/pff.c     **** 	if (ofs > fs->fsize)
ARM GAS  /cygdrive/c/DOCUME~1/mkwapisz/LOCALS~1/Temp/ccd1rULD.s 			page 21


 735:src/pff.c     **** 		ofs = fs->fsize; /* Clip offset with the file size */
 736:src/pff.c     **** 	ifptr = fs->fptr;
 737:src/pff.c     **** 	fs->fptr = 0;
 738:src/pff.c     **** 	if (ofs > 0)
 403              		.loc 1 738 0
 404 0334 000056E3 		cmp	r6, #0
 405              		.loc 1 737 0
 406 0338 0030A0E3 		mov	r3, #0
 407              		.loc 1 736 0
 408 033c 1C0095E5 		ldr	r0, [r5, #28]
 409              	.LVL38:
 410              		.loc 1 737 0
 411 0340 1C3085E5 		str	r3, [r5, #28]
 412              		.loc 1 738 0
 413 0344 3A00000A 		beq	.L64
 739:src/pff.c     **** 	{
 740:src/pff.c     **** 		bcs = (DWORD) fs->csize * 512; /* Cluster size (byte) */
 414              		.loc 1 740 0
 415 0348 0130D5E5 		ldrb	r3, [r5, #1]	@ zero_extendqisi2
 741:src/pff.c     **** 		if (ifptr > 0 && (ofs - 1) / bcs >= (ifptr - 1) / bcs)
 416              		.loc 1 741 0
 417 034c 000050E3 		cmp	r0, #0
 418              		.loc 1 740 0
 419 0350 8374A0E1 		mov	r7, r3, asl #9
 420              	.LVL39:
 421              		.loc 1 741 0
 422 0354 0D00000A 		beq	.L66
 423 0358 018040E2 		sub	r8, r0, #1
 424 035c 0710A0E1 		mov	r1, r7
 425 0360 010046E2 		sub	r0, r6, #1
 426              	.LVL40:
 427 0364 FEFFFFEB 		bl	__udivsi3
 428 0368 0710A0E1 		mov	r1, r7
 429 036c 0040A0E1 		mov	r4, r0
 430 0370 0800A0E1 		mov	r0, r8
 431 0374 FEFFFFEB 		bl	__udivsi3
 432 0378 000054E1 		cmp	r4, r0
 742:src/pff.c     **** 		{ /* When seek to same or following cluster, */
 743:src/pff.c     **** 			fs->fptr = (ifptr - 1) & ~(bcs - 1); /* start from the current cluster */
 433              		.loc 1 743 0
 434 037c 00306722 		rsbcs	r3, r7, #0
 435 0380 03300820 		andcs	r3, r8, r3
 744:src/pff.c     **** 			ofs -= fs->fptr;
 745:src/pff.c     **** 			clst = fs->curr_clust;
 436              		.loc 1 745 0
 437 0384 28209525 		ldrcs	r2, [r5, #40]
 438              	.LVL41:
 439              		.loc 1 744 0
 440 0388 06606320 		rsbcs	r6, r3, r6
 441 038c 0D00002A 		bcs	.L79
 442              	.LVL42:
 443              	.L66:
 746:src/pff.c     **** 		} else
 747:src/pff.c     **** 		{ /* When seek to back cluster, */
 748:src/pff.c     **** 			clst = fs->org_clust; /* start from the first cluster */
 444              		.loc 1 748 0
 445 0390 242095E5 		ldr	r2, [r5, #36]
ARM GAS  /cygdrive/c/DOCUME~1/mkwapisz/LOCALS~1/Temp/ccd1rULD.s 			page 22


 446              	.LVL43:
 749:src/pff.c     **** 			fs->curr_clust = clst;
 447              		.loc 1 749 0
 448 0394 282085E5 		str	r2, [r5, #40]
 449 0398 0B0000EA 		b	.L78
 450              	.LVL44:
 451              	.L70:
 750:src/pff.c     **** 		}
 751:src/pff.c     **** 		while (ofs > bcs)
 752:src/pff.c     **** 		{ /* Cluster following loop */
 753:src/pff.c     **** 			clst = get_fat (clst); /* Follow cluster chain */
 452              		.loc 1 753 0
 453 039c 77FFFFEB 		bl	get_fat
 454              	.LVL45:
 455              	.LVL46:
 754:src/pff.c     **** 			if (clst <= 1 || clst >= fs->max_clust)
 456              		.loc 1 754 0
 457 03a0 010050E3 		cmp	r0, #1
 458              	.LVL47:
 459              		.loc 1 753 0
 460 03a4 0020A0E1 		mov	r2, r0
 461              	.LVL48:
 755:src/pff.c     **** 				goto fe_abort;
 756:src/pff.c     **** 			fs->curr_clust = clst;
 757:src/pff.c     **** 			fs->fptr += bcs;
 758:src/pff.c     **** 			ofs -= bcs;
 462              		.loc 1 758 0
 463 03a8 066067E0 		rsb	r6, r7, r6
 464              		.loc 1 754 0
 465 03ac 1C00009A 		bls	.L71
 466 03b0 0C3095E5 		ldr	r3, [r5, #12]
 467 03b4 030050E1 		cmp	r0, r3
 468 03b8 1900002A 		bcs	.L71
 469              	.LVL49:
 470              		.loc 1 757 0
 471 03bc 1C3095E5 		ldr	r3, [r5, #28]
 472              		.loc 1 756 0
 473 03c0 280085E5 		str	r0, [r5, #40]
 474              		.loc 1 757 0
 475 03c4 073083E0 		add	r3, r3, r7
 476              	.LVL50:
 477              	.L79:
 478 03c8 1C3085E5 		str	r3, [r5, #28]
 479              	.LVL51:
 480              	.L78:
 481              		.loc 1 751 0
 482 03cc 070056E1 		cmp	r6, r7
 483              		.loc 1 753 0
 484 03d0 0200A0E1 		mov	r0, r2
 485              	.LVL52:
 486              		.loc 1 751 0
 487 03d4 F0FFFF8A 		bhi	.L70
 488              	.LVL53:
 759:src/pff.c     **** 		}
 760:src/pff.c     **** 		fs->fptr += ofs;
 489              		.loc 1 760 0
 490 03d8 1C3095E5 		ldr	r3, [r5, #28]
ARM GAS  /cygdrive/c/DOCUME~1/mkwapisz/LOCALS~1/Temp/ccd1rULD.s 			page 23


 491 03dc 063083E0 		add	r3, r3, r6
 492 03e0 1C3085E5 		str	r3, [r5, #28]
 761:src/pff.c     **** 		sect = clust2sect (clst); /* Current sector */
 493              		.loc 1 761 0
 494 03e4 05FFFFEB 		bl	clust2sect
 495              	.LVL54:
 762:src/pff.c     **** 		if (!sect)
 496              		.loc 1 762 0
 497 03e8 001050E2 		subs	r1, r0, #0
 498              	.LVL55:
 499 03ec 0C00000A 		beq	.L71
 763:src/pff.c     **** 			goto fe_abort;
 764:src/pff.c     **** 		fs->csect = (BYTE) (ofs / 512); /* Sector offset in the cluster */
 765:src/pff.c     **** 		if (ofs % 512)
 500              		.loc 1 765 0
 501 03f0 863BA0E1 		mov	r3, r6, asl #23
 502 03f4 A33BA0E1 		mov	r3, r3, lsr #23
 503              		.loc 1 764 0
 504 03f8 A624A0E1 		mov	r2, r6, lsr #9
 505 03fc FF0002E2 		and	r0, r2, #255
 506              		.loc 1 765 0
 507 0400 000053E3 		cmp	r3, #0
 508              		.loc 1 764 0
 509 0404 0300C5E5 		strb	r0, [r5, #3]
 510              		.loc 1 765 0
 511 0408 0900000A 		beq	.L64
 766:src/pff.c     **** 			fs->dsect = sect + fs->csect++;
 512              		.loc 1 766 0
 513 040c 002081E0 		add	r2, r1, r0
 514 0410 013080E2 		add	r3, r0, #1
 515 0414 0000A0E3 		mov	r0, #0
 516 0418 0330C5E5 		strb	r3, [r5, #3]
 517 041c 2C2085E5 		str	r2, [r5, #44]
 518 0420 040000EA 		b	.L61
 519              	.LVL56:
 520              	.L71:
 767:src/pff.c     **** 	}
 768:src/pff.c     **** 
 769:src/pff.c     **** 	return FR_OK;
 770:src/pff.c     **** 
 771:src/pff.c     **** 	fe_abort: fs->flag = 0;
 521              		.loc 1 771 0
 522 0424 0030A0E3 		mov	r3, #0
 523 0428 0100A0E3 		mov	r0, #1
 524 042c 0230C5E5 		strb	r3, [r5, #2]
 525 0430 000000EA 		b	.L61
 526              	.LVL57:
 527              	.L64:
 772:src/pff.c     **** 	return FR_DISK_ERR;
 528              		.loc 1 772 0
 529 0434 0000A0E3 		mov	r0, #0
 530              	.LVL58:
 531              	.L61:
 773:src/pff.c     **** }
 532              		.loc 1 773 0
 533 0438 F041BDE8 		ldmfd	sp!, {r4, r5, r6, r7, r8, lr}
 534 043c 1EFF2FE1 		bx	lr
ARM GAS  /cygdrive/c/DOCUME~1/mkwapisz/LOCALS~1/Temp/ccd1rULD.s 			page 24


 535              	.L81:
 536              		.align	2
 537              	.L80:
 538 0440 00000000 		.word	FatFs
 539              	.LFE17:
 540              		.size	pf_lseek, .-pf_lseek
 541              		.global	__umodsi3
 542              		.align	2
 543              		.global	pf_read
 544              		.type	pf_read, %function
 545              	pf_read:
 546              	.LFB16:
 547              		.loc 1 589 0
 548              		@ Function supports interworking.
 549              		@ args = 0, pretend = 0, frame = 0
 550              		@ frame_needed = 0, uses_anonymous_args = 0
 551              	.LVL59:
 552              		.loc 1 595 0
 553 0444 D8319FE5 		ldr	r3, .L110
 554              		.loc 1 589 0
 555 0448 F0412DE9 		stmfd	sp!, {r4, r5, r6, r7, r8, lr}
 556              	.LCFI5:
 557              		.loc 1 595 0
 558 044c 00E093E5 		ldr	lr, [r3, #0]
 559              		.loc 1 593 0
 560 0450 D0319FE5 		ldr	r3, .L110+4
 561 0454 000083E5 		str	r0, [r3, #0]
 562              		.loc 1 595 0
 563 0458 CC319FE5 		ldr	r3, .L110+8
 564              		.loc 1 589 0
 565 045c 0118A0E1 		mov	r1, r1, asl #16
 566              	.LVL60:
 567              		.loc 1 598 0
 568 0460 00005EE3 		cmp	lr, #0
 569              		.loc 1 595 0
 570 0464 00E083E5 		str	lr, [r3, #0]
 571              		.loc 1 597 0
 572 0468 0030A0E3 		mov	r3, #0	@ movhi
 573              		.loc 1 589 0
 574 046c 0080A0E1 		mov	r8, r0
 575 0470 0270A0E1 		mov	r7, r2
 576 0474 2168A0E1 		mov	r6, r1, lsr #16
 577              	.LVL61:
 578              		.loc 1 597 0
 579 0478 B030C2E1 		strh	r3, [r2, #0]	@ movhi
 580              		.loc 1 598 0
 581 047c 0600A003 		moveq	r0, #6
 582              	.LVL62:
 583 0480 6500000A 		beq	.L85
 584              		.loc 1 600 0
 585 0484 0230DEE5 		ldrb	r3, [lr, #2]	@ zero_extendqisi2
 586 0488 010013E3 		tst	r3, #1
 587 048c 0500A003 		moveq	r0, #5
 588 0490 6100000A 		beq	.L85
 589              		.loc 1 603 0
 590 0494 20308EE2 		add	r3, lr, #32
 591 0498 0C0013E8 		ldmda	r3, {r2, r3}
ARM GAS  /cygdrive/c/DOCUME~1/mkwapisz/LOCALS~1/Temp/ccd1rULD.s 			page 25


 592 049c 022043E0 		sub	r2, r3, r2
 593              	.LVL63:
 594 04a0 88319FE5 		ldr	r3, .L110+12
 595              		.loc 1 604 0
 596 04a4 020056E1 		cmp	r6, r2
 597              		.loc 1 603 0
 598 04a8 002083E5 		str	r2, [r3, #0]
 599              		.loc 1 605 0
 600 04ac 0238A081 		movhi	r3, r2, asl #16
 601 04b0 2368A081 		movhi	r6, r3, lsr #16
 602 04b4 4F0000EA 		b	.L109
 603              	.L90:
 604              		.loc 1 609 0
 605 04b8 6C319FE5 		ldr	r3, .L110+8
 606 04bc 005093E5 		ldr	r5, [r3, #0]
 607 04c0 1C4095E5 		ldr	r4, [r5, #28]
 608 04c4 843BA0E1 		mov	r3, r4, asl #23
 609 04c8 A33BA0E1 		mov	r3, r3, lsr #23
 610 04cc 000053E3 		cmp	r3, #0
 611 04d0 1E00001A 		bne	.L91
 612              		.loc 1 611 0
 613 04d4 A404A0E1 		mov	r0, r4, lsr #9
 614 04d8 0110D5E5 		ldrb	r1, [r5, #1]	@ zero_extendqisi2
 615 04dc FEFFFFEB 		bl	__umodsi3
 616 04e0 000050E3 		cmp	r0, #0
 617 04e4 0C00001A 		bne	.L93
 618              		.loc 1 613 0
 619 04e8 000054E3 		cmp	r4, #0
 620 04ec 24009505 		ldreq	r0, [r5, #36]
 621 04f0 28009515 		ldrne	r0, [r5, #40]
 622 04f4 21FFFF1B 		blne	get_fat
 623              	.L97:
 624 04f8 34319FE5 		ldr	r3, .L110+16
 625              		.loc 1 615 0
 626 04fc 010050E3 		cmp	r0, #1
 627              		.loc 1 613 0
 628 0500 000083E5 		str	r0, [r3, #0]
 629              		.loc 1 615 0
 630 0504 3F00009A 		bls	.L98
 631              		.loc 1 617 0
 632 0508 1C319FE5 		ldr	r3, .L110+8
 633 050c 002093E5 		ldr	r2, [r3, #0]
 634              		.loc 1 618 0
 635 0510 0030A0E3 		mov	r3, #0
 636 0514 0330C2E5 		strb	r3, [r2, #3]
 637              		.loc 1 617 0
 638 0518 280082E5 		str	r0, [r2, #40]
 639              	.L93:
 640              		.loc 1 620 0
 641 051c 08319FE5 		ldr	r3, .L110+8
 642 0520 004093E5 		ldr	r4, [r3, #0]
 643 0524 280094E5 		ldr	r0, [r4, #40]
 644 0528 B4FEFFEB 		bl	clust2sect
 645 052c 04319FE5 		ldr	r3, .L110+20
 646              		.loc 1 621 0
 647 0530 000050E3 		cmp	r0, #0
 648              		.loc 1 620 0
ARM GAS  /cygdrive/c/DOCUME~1/mkwapisz/LOCALS~1/Temp/ccd1rULD.s 			page 26


 649 0534 000083E5 		str	r0, [r3, #0]
 650              		.loc 1 621 0
 651 0538 3200000A 		beq	.L98
 652              		.loc 1 623 0
 653 053c 0330D4E5 		ldrb	r3, [r4, #3]	@ zero_extendqisi2
 654 0540 032080E0 		add	r2, r0, r3
 655 0544 013083E2 		add	r3, r3, #1
 656 0548 0330C4E5 		strb	r3, [r4, #3]
 657 054c 2C2084E5 		str	r2, [r4, #44]
 658              	.L91:
 659              		.loc 1 625 0
 660 0550 D4309FE5 		ldr	r3, .L110+8
 661 0554 001093E5 		ldr	r1, [r3, #0]
 662 0558 1C3091E5 		ldr	r3, [r1, #28]
 663 055c FE3CC3E3 		bic	r3, r3, #65024
 664 0560 023C63E2 		rsb	r3, r3, #512
 665 0564 0338A0E1 		mov	r3, r3, asl #16
 666 0568 2338A0E1 		mov	r3, r3, lsr #16
 667 056c C8209FE5 		ldr	r2, .L110+24
 668              		.loc 1 626 0
 669 0570 060053E1 		cmp	r3, r6
 670              		.loc 1 625 0
 671 0574 B030C2E1 		strh	r3, [r2, #0]	@ movhi
 672              		.loc 1 627 0
 673 0578 B060C281 		strhih	r6, [r2, #0]	@ movhi
 674              		.loc 1 628 0
 675 057c 000058E3 		cmp	r8, #0
 676 0580 BC21D1E1 		ldrh	r2, [r1, #28]
 677 0584 9C309F15 		ldrne	r3, .L110+4
 678 0588 AC509FE5 		ldr	r5, .L110+24
 679 058c 822BA0E1 		mov	r2, r2, asl #23
 680 0590 00009315 		ldrne	r0, [r3, #0]
 681 0594 0800A001 		moveq	r0, r8
 682 0598 B030D5E1 		ldrh	r3, [r5, #0]
 683 059c 2C1091E5 		ldr	r1, [r1, #44]
 684 05a0 A22BA0E1 		mov	r2, r2, lsr #23
 685 05a4 FEFFFFEB 		bl	disk_readp
 686 05a8 90309FE5 		ldr	r3, .L110+28
 687              		.loc 1 629 0
 688 05ac 000050E3 		cmp	r0, #0
 689              		.loc 1 628 0
 690 05b0 000083E5 		str	r0, [r3, #0]
 691              		.loc 1 629 0
 692 05b4 1300001A 		bne	.L98
 693              		.loc 1 631 0
 694 05b8 6C309FE5 		ldr	r3, .L110+8
 695              		.loc 1 632 0
 696 05bc 64409FE5 		ldr	r4, .L110+4
 697              		.loc 1 631 0
 698 05c0 00E093E5 		ldr	lr, [r3, #0]
 699              		.loc 1 632 0
 700 05c4 001094E5 		ldr	r1, [r4, #0]
 701              		.loc 1 631 0
 702 05c8 B030D5E1 		ldrh	r3, [r5, #0]
 703 05cc 1C209EE5 		ldr	r2, [lr, #28]
 704              		.loc 1 634 0
 705 05d0 B000D7E1 		ldrh	r0, [r7, #0]
ARM GAS  /cygdrive/c/DOCUME~1/mkwapisz/LOCALS~1/Temp/ccd1rULD.s 			page 27


 706              		.loc 1 633 0
 707 05d4 06C063E0 		rsb	ip, r3, r6
 708              		.loc 1 634 0
 709 05d8 000083E0 		add	r0, r3, r0
 710              		.loc 1 631 0
 711 05dc 032082E0 		add	r2, r2, r3
 712              		.loc 1 632 0
 713 05e0 031081E0 		add	r1, r1, r3
 714              		.loc 1 633 0
 715 05e4 0CC8A0E1 		mov	ip, ip, asl #16
 716              		.loc 1 631 0
 717 05e8 1C208EE5 		str	r2, [lr, #28]
 718              		.loc 1 632 0
 719 05ec 001084E5 		str	r1, [r4, #0]
 720              		.loc 1 634 0
 721 05f0 B000C7E1 		strh	r0, [r7, #0]	@ movhi
 722              		.loc 1 633 0
 723 05f4 2C68A0E1 		mov	r6, ip, lsr #16
 724              	.L109:
 725              		.loc 1 607 0
 726 05f8 000056E3 		cmp	r6, #0
 727 05fc ADFFFF1A 		bne	.L90
 728 0600 0600A0E1 		mov	r0, r6
 729 0604 040000EA 		b	.L85
 730              	.L98:
 731              		.loc 1 639 0
 732 0608 1C309FE5 		ldr	r3, .L110+8
 733 060c 002093E5 		ldr	r2, [r3, #0]
 734 0610 0030A0E3 		mov	r3, #0
 735 0614 0230C2E5 		strb	r3, [r2, #2]
 736 0618 0100A0E3 		mov	r0, #1
 737              	.LVL64:
 738              	.L85:
 739              		.loc 1 641 0
 740 061c F041BDE8 		ldmfd	sp!, {r4, r5, r6, r7, r8, lr}
 741 0620 1EFF2FE1 		bx	lr
 742              	.L111:
 743              		.align	2
 744              	.L110:
 745 0624 00000000 		.word	FatFs
 746 0628 00000000 		.word	rbuff
 747 062c 00000000 		.word	fs
 748 0630 00000000 		.word	remain
 749 0634 00000000 		.word	clst
 750 0638 00000000 		.word	sect
 751 063c 00000000 		.word	rcnt
 752 0640 00000000 		.word	dr
 753              	.LFE16:
 754              		.size	pf_read, .-pf_read
 755              		.align	2
 756              		.type	dir_next, %function
 757              	dir_next:
 758              	.LFB7:
 759              		.loc 1 154 0
 760              		@ Function supports interworking.
 761              		@ args = 0, pretend = 0, frame = 0
 762              		@ frame_needed = 0, uses_anonymous_args = 0
ARM GAS  /cygdrive/c/DOCUME~1/mkwapisz/LOCALS~1/Temp/ccd1rULD.s 			page 28


 763              	.LVL65:
 764              		.loc 1 159 0
 765 0644 B030D0E1 		ldrh	r3, [r0, #0]
 766 0648 013083E2 		add	r3, r3, #1
 767 064c 0328A0E1 		mov	r2, r3, asl #16
 768              		.loc 1 157 0
 769 0650 9C309FE5 		ldr	r3, .L126
 770              		.loc 1 154 0
 771 0654 70402DE9 		stmfd	sp!, {r4, r5, r6, lr}
 772              	.LCFI6:
 773              		.loc 1 160 0
 774 0658 2268B0E1 		movs	r6, r2, lsr #16
 775              	.LVL66:
 776              		.loc 1 154 0
 777 065c 0040A0E1 		mov	r4, r0
 778              		.loc 1 157 0
 779 0660 005093E5 		ldr	r5, [r3, #0]
 780              	.LVL67:
 781              		.loc 1 160 0
 782 0664 1F00000A 		beq	.L113
 783              	.LVL68:
 784 0668 103090E5 		ldr	r3, [r0, #16]
 785 066c 000053E3 		cmp	r3, #0
 786 0670 1C00000A 		beq	.L113
 787              	.LVL69:
 788              		.loc 1 163 0
 789 0674 0F0016E3 		tst	r6, #15
 790 0678 1700001A 		bne	.L116
 791              		.loc 1 167 0
 792 067c 0C0090E5 		ldr	r0, [r0, #12]
 793              	.LVL70:
 794              		.loc 1 165 0
 795 0680 013083E2 		add	r3, r3, #1
 796              		.loc 1 167 0
 797 0684 000050E3 		cmp	r0, #0
 798              		.loc 1 165 0
 799 0688 103084E5 		str	r3, [r4, #16]
 800              		.loc 1 167 0
 801 068c 0300001A 		bne	.L118
 802              		.loc 1 169 0
 803 0690 B430D5E1 		ldrh	r3, [r5, #4]
 804 0694 060053E1 		cmp	r3, r6
 805 0698 0F00008A 		bhi	.L116
 806 069c 110000EA 		b	.L113
 807              	.L118:
 808              		.loc 1 173 0
 809 06a0 0130D5E5 		ldrb	r3, [r5, #1]	@ zero_extendqisi2
 810 06a4 013043E2 		sub	r3, r3, #1
 811 06a8 222A13E0 		ands	r2, r3, r2, lsr #20
 812 06ac 0A00001A 		bne	.L116
 813              		.loc 1 175 0
 814 06b0 B2FEFFEB 		bl	get_fat
 815              	.LVL71:
 816              		.loc 1 176 0
 817 06b4 010050E3 		cmp	r0, #1
 818              	.LVL72:
 819              		.loc 1 175 0
ARM GAS  /cygdrive/c/DOCUME~1/mkwapisz/LOCALS~1/Temp/ccd1rULD.s 			page 29


 820 06b8 0020A0E1 		mov	r2, r0
 821              	.LVL73:
 822              		.loc 1 176 0
 823 06bc 0100A093 		movls	r0, #1
 824 06c0 0900009A 		bls	.L123
 825              		.loc 1 178 0
 826 06c4 0C3095E5 		ldr	r3, [r5, #12]
 827 06c8 030052E1 		cmp	r2, r3
 828 06cc 0500002A 		bcs	.L113
 829              		.loc 1 180 0
 830 06d0 0C2084E5 		str	r2, [r4, #12]
 831              		.loc 1 181 0
 832 06d4 49FEFFEB 		bl	clust2sect
 833              	.LVL74:
 834 06d8 100084E5 		str	r0, [r4, #16]
 835              	.LVL75:
 836              	.L116:
 837              		.loc 1 186 0
 838 06dc 0000A0E3 		mov	r0, #0
 839 06e0 B060C4E1 		strh	r6, [r4, #0]	@ movhi
 840 06e4 000000EA 		b	.L123
 841              	.LVL76:
 842              	.L113:
 843              		.loc 1 188 0
 844 06e8 0300A0E3 		mov	r0, #3
 845              	.L123:
 846              		.loc 1 189 0
 847 06ec 7040BDE8 		ldmfd	sp!, {r4, r5, r6, lr}
 848 06f0 1EFF2FE1 		bx	lr
 849              	.L127:
 850              		.align	2
 851              	.L126:
 852 06f4 00000000 		.word	FatFs
 853              	.LFE7:
 854              		.size	dir_next, .-dir_next
 855              		.align	2
 856              		.global	pf_readdir
 857              		.type	pf_readdir, %function
 858              	pf_readdir:
 859              	.LFB19:
 774:src/pff.c     **** #endif
 775:src/pff.c     **** 
 776:src/pff.c     **** /*-----------------------------------------------------------------------*/
 777:src/pff.c     **** /* Create a Directroy Object                                             */
 778:src/pff.c     **** /*-----------------------------------------------------------------------*/
 779:src/pff.c     **** #if _USE_DIR
 780:src/pff.c     **** 
 781:src/pff.c     **** FRESULT pf_opendir (DIR *dj, /* Pointer to directory object to create */
 782:src/pff.c     **** const char *path /* Pointer to the directory path */
 783:src/pff.c     **** )
 784:src/pff.c     **** {
 785:src/pff.c     **** 	FRESULT res;
 786:src/pff.c     **** 	BYTE sp[12], dir[32];
 787:src/pff.c     **** 	FATFS *fs = FatFs;
 788:src/pff.c     **** 
 789:src/pff.c     **** 	if (!fs)
 790:src/pff.c     **** 	{ /* Check file system */
ARM GAS  /cygdrive/c/DOCUME~1/mkwapisz/LOCALS~1/Temp/ccd1rULD.s 			page 30


 791:src/pff.c     **** 		res = FR_NOT_ENABLED;
 792:src/pff.c     **** 	} else
 793:src/pff.c     **** 	{
 794:src/pff.c     **** 		fs->buf = dir;
 795:src/pff.c     **** 		dj->fn = sp;
 796:src/pff.c     **** 		res = follow_path (dj, path); /* Follow the path to the directory */
 797:src/pff.c     **** 		if (res == FR_OK)
 798:src/pff.c     **** 		{ /* Follow completed */
 799:src/pff.c     **** 			if (dir[0])
 800:src/pff.c     **** 			{ /* It is not the root dir */
 801:src/pff.c     **** 				if (dir[DIR_Attr] & AM_DIR)
 802:src/pff.c     **** 				{ /* The object is a directory */
 803:src/pff.c     **** 					dj->sclust =
 804:src/pff.c     **** #if _FS_FAT32
 805:src/pff.c     **** 							((DWORD) LD_WORD(dir+DIR_FstClusHI) << 16) |
 806:src/pff.c     **** #endif
 807:src/pff.c     **** 									LD_WORD(dir+DIR_FstClusLO);
 808:src/pff.c     **** 				} else
 809:src/pff.c     **** 				{ /* The object is not a directory */
 810:src/pff.c     **** 					res = FR_NO_PATH;
 811:src/pff.c     **** 				}
 812:src/pff.c     **** 			}
 813:src/pff.c     **** 			if (res == FR_OK)
 814:src/pff.c     **** 				res = dir_rewind (dj); /* Rewind dir */
 815:src/pff.c     **** 		}
 816:src/pff.c     **** 		if (res == FR_NO_FILE)
 817:src/pff.c     **** 			res = FR_NO_PATH;
 818:src/pff.c     **** 	}
 819:src/pff.c     **** 
 820:src/pff.c     **** 	return res;
 821:src/pff.c     **** }
 822:src/pff.c     **** 
 823:src/pff.c     **** /*-----------------------------------------------------------------------*/
 824:src/pff.c     **** /* Read Directory Entry in Sequense                                      */
 825:src/pff.c     **** /*-----------------------------------------------------------------------*/
 826:src/pff.c     **** 
 827:src/pff.c     **** FRESULT pf_readdir (DIR *dj, /* Pointer to the open directory object */
 828:src/pff.c     **** FILINFO *fno /* Pointer to file information to return */
 829:src/pff.c     **** )
 830:src/pff.c     **** {
 860              		.loc 1 830 0
 861              		@ Function supports interworking.
 862              		@ args = 0, pretend = 0, frame = 44
 863              		@ frame_needed = 0, uses_anonymous_args = 0
 864              	.LVL77:
 865 06f8 70402DE9 		stmfd	sp!, {r4, r5, r6, lr}
 866              	.LCFI7:
 831:src/pff.c     **** 	FRESULT res;
 832:src/pff.c     **** 	BYTE sp[12], dir[32];
 833:src/pff.c     **** 	FATFS *fs = FatFs;
 867              		.loc 1 833 0
 868 06fc E4319FE5 		ldr	r3, .L163
 869 0700 002093E5 		ldr	r2, [r3, #0]
 870              	.LVL78:
 834:src/pff.c     **** 
 835:src/pff.c     **** 	if (!fs)
 871              		.loc 1 835 0
ARM GAS  /cygdrive/c/DOCUME~1/mkwapisz/LOCALS~1/Temp/ccd1rULD.s 			page 31


 872 0704 000052E3 		cmp	r2, #0
 873              		.loc 1 830 0
 874 0708 2CD04DE2 		sub	sp, sp, #44
 875              	.LCFI8:
 876              		.loc 1 830 0
 877 070c 0160A0E1 		mov	r6, r1
 878 0710 0050A0E1 		mov	r5, r0
 879              		.loc 1 835 0
 880 0714 06C0A003 		moveq	ip, #6
 881              	.LVL79:
 882 0718 6E00000A 		beq	.L131
 883              	.LVL80:
 836:src/pff.c     **** 	{ /* Check file system */
 837:src/pff.c     **** 		res = FR_NOT_ENABLED;
 838:src/pff.c     **** 	} else
 839:src/pff.c     **** 	{
 840:src/pff.c     **** 		fs->buf = dir;
 841:src/pff.c     **** 		dj->fn = sp;
 884              		.loc 1 841 0
 885 071c 20308DE2 		add	r3, sp, #32
 886              		.loc 1 840 0
 887 0720 08D082E5 		str	sp, [r2, #8]
 888              		.loc 1 841 0
 889 0724 043080E5 		str	r3, [r0, #4]
 842:src/pff.c     **** 		if (!fno)
 890              		.loc 1 842 0
 891 0728 000051E3 		cmp	r1, #0
 892              	.LBB6:
 893              	.LBB7:
 894              		.loc 1 237 0
 895 072c 08409215 		ldrne	r4, [r2, #8]
 896              	.LVL81:
 897 0730 03C0A013 		movne	ip, #3
 898              	.LBE7:
 899              	.LBE6:
 900              		.loc 1 842 0
 901 0734 1700001A 		bne	.L134
 902              	.LVL82:
 843:src/pff.c     **** 		{
 844:src/pff.c     **** 			res = dir_rewind (dj);
 903              		.loc 1 844 0
 904 0738 3DFEFFEB 		bl	dir_rewind
 905              	.LVL83:
 906 073c 00C0A0E1 		mov	ip, r0
 907              	.LVL84:
 908 0740 640000EA 		b	.L131
 909              	.LVL85:
 910              	.L135:
 911              	.LBB8:
 912              		.loc 1 240 0
 913 0744 B020D5E1 		ldrh	r2, [r5, #0]
 914 0748 0F2002E2 		and	r2, r2, #15
 915 074c 8222A0E1 		mov	r2, r2, asl #5
 916 0750 FEFFFFEB 		bl	disk_readp
 917              	.LVL86:
 918              	.LBB9:
 919 0754 00C050E2 		subs	ip, r0, #0
ARM GAS  /cygdrive/c/DOCUME~1/mkwapisz/LOCALS~1/Temp/ccd1rULD.s 			page 32


 920 0758 01C0A013 		movne	ip, #1
 921              	.LVL87:
 922              		.loc 1 242 0
 923 075c 00005CE3 		cmp	ip, #0
 924              	.LBE9:
 925              		.loc 1 253 0
 926 0760 0500A0E1 		mov	r0, r5
 927              	.LBB10:
 928              		.loc 1 242 0
 929 0764 1200001A 		bne	.L136
 930              	.LVL88:
 931              		.loc 1 244 0
 932 0768 0030D4E5 		ldrb	r3, [r4, #0]	@ zero_extendqisi2
 933              	.LVL89:
 934              		.loc 1 245 0
 935 076c 000053E3 		cmp	r3, #0
 936 0770 5400000A 		beq	.L138
 937              		.loc 1 251 0
 938 0774 E50053E3 		cmp	r3, #229
 939 0778 2E005313 		cmpne	r3, #46
 940              		.loc 1 250 0
 941 077c 0B30D4E5 		ldrb	r3, [r4, #11]	@ zero_extendqisi2
 942              	.LVL90:
 943              		.loc 1 251 0
 944 0780 0100000A 		beq	.L140
 945 0784 080013E3 		tst	r3, #8
 946 0788 0F00000A 		beq	.L142
 947              	.L140:
 948              	.LBE10:
 949              		.loc 1 253 0
 950 078c ACFFFFEB 		bl	dir_next
 951              	.LVL91:
 952              	.LBB11:
 953              		.loc 1 254 0
 954 0790 00C050E2 		subs	ip, r0, #0
 955              	.LVL92:
 956 0794 0600001A 		bne	.L136
 957              	.LVL93:
 958              	.L134:
 959              		.loc 1 238 0
 960 0798 102095E5 		ldr	r2, [r5, #16]
 961              	.LVL94:
 962 079c 001052E2 		subs	r1, r2, #0
 963              	.LBE11:
 964              		.loc 1 240 0
 965 07a0 2030A0E3 		mov	r3, #32
 966 07a4 0400A0E1 		mov	r0, r4
 967              	.LBB12:
 968              		.loc 1 238 0
 969 07a8 E5FFFF1A 		bne	.L135
 970              	.LVL95:
 971              		.loc 1 258 0
 972 07ac 00005CE3 		cmp	ip, #0
 973 07b0 4600000A 		beq	.L144
 974              	.LVL96:
 975              	.L136:
 976              		.loc 1 259 0
ARM GAS  /cygdrive/c/DOCUME~1/mkwapisz/LOCALS~1/Temp/ccd1rULD.s 			page 33


 977 07b4 0030A0E3 		mov	r3, #0
 978              	.LVL97:
 979              	.LBE12:
 980              	.LBE8:
 845:src/pff.c     **** 		} else
 846:src/pff.c     **** 		{
 847:src/pff.c     **** 			res = dir_read (dj);
 848:src/pff.c     **** 			if (res == FR_NO_FILE)
 981              		.loc 1 848 0
 982 07b8 03005CE3 		cmp	ip, #3
 983              	.LBB13:
 984              	.LBB14:
 985              		.loc 1 259 0
 986 07bc 103085E5 		str	r3, [r5, #16]
 987              	.LBE14:
 988              	.LBE13:
 989              		.loc 1 848 0
 990 07c0 4200000A 		beq	.L144
 849:src/pff.c     **** 			{
 850:src/pff.c     **** 				dj->sect = 0;
 851:src/pff.c     **** 				res = FR_OK;
 852:src/pff.c     **** 			}
 853:src/pff.c     **** 			if (res == FR_OK)
 991              		.loc 1 853 0
 992 07c4 00005CE3 		cmp	ip, #0
 993 07c8 4200001A 		bne	.L131
 994              	.LVL98:
 995              	.L142:
 996              	.LBB15:
 997              	.LBB16:
 998              		.loc 1 336 0
 999 07cc 103095E5 		ldr	r3, [r5, #16]
 1000 07d0 000053E3 		cmp	r3, #0
 1001              		.loc 1 335 0
 1002 07d4 09C086E2 		add	ip, r6, #9
 1003              	.LVL99:
 1004              		.loc 1 336 0
 1005 07d8 3100000A 		beq	.L147
 1006              	.LVL100:
 1007              		.loc 1 338 0
 1008 07dc 04319FE5 		ldr	r3, .L163
 1009 07e0 003093E5 		ldr	r3, [r3, #0]
 1010 07e4 080093E5 		ldr	r0, [r3, #8]
 1011              	.LVL101:
 1012 07e8 0C10A0E1 		mov	r1, ip
 1013              	.LVL102:
 1014 07ec 0020A0E3 		mov	r2, #0
 1015              	.LVL103:
 1016              	.L149:
 1017              		.loc 1 341 0
 1018 07f0 0030D2E7 		ldrb	r3, [r2, r0]	@ zero_extendqisi2
 1019              		.loc 1 342 0
 1020 07f4 200053E3 		cmp	r3, #32
 1021 07f8 0600000A 		beq	.L150
 1022              		.loc 1 344 0
 1023 07fc 050053E3 		cmp	r3, #5
 1024 0800 E530A003 		moveq	r3, #229
ARM GAS  /cygdrive/c/DOCUME~1/mkwapisz/LOCALS~1/Temp/ccd1rULD.s 			page 34


 1025              		.loc 1 346 0
 1026 0804 0C30C2E7 		strb	r3, [r2, ip]
 1027 0808 012082E2 		add	r2, r2, #1
 1028              		.loc 1 339 0
 1029 080c 080052E3 		cmp	r2, #8
 1030              		.loc 1 346 0
 1031 0810 011081E2 		add	r1, r1, #1
 1032              		.loc 1 339 0
 1033 0814 F5FFFF1A 		bne	.L149
 1034              	.L150:
 1035              		.loc 1 348 0
 1036 0818 0830D0E5 		ldrb	r3, [r0, #8]	@ zero_extendqisi2
 1037              	.LVL104:
 1038 081c 200053E3 		cmp	r3, #32
 1039 0820 01C0A001 		moveq	ip, r1
 1040 0824 0B00000A 		beq	.L156
 1041              		.loc 1 350 0
 1042 0828 2E30A0E3 		mov	r3, #46
 1043 082c 01C0A0E1 		mov	ip, r1
 1044 0830 0130CCE4 		strb	r3, [ip], #1
 1045 0834 0030A0E1 		mov	r3, r0
 1046              	.LVL105:
 1047              	.L157:
 1048              		.loc 1 353 0
 1049 0838 0820D3E5 		ldrb	r2, [r3, #8]	@ zero_extendqisi2
 1050              		.loc 1 354 0
 1051 083c 200052E3 		cmp	r2, #32
 1052              		.loc 1 351 0
 1053 0840 04E081E2 		add	lr, r1, #4
 1054              		.loc 1 356 0
 1055 0844 013083E2 		add	r3, r3, #1
 1056              		.loc 1 354 0
 1057 0848 0200000A 		beq	.L156
 1058              		.loc 1 356 0
 1059 084c 0120CCE4 		strb	r2, [ip], #1
 1060              		.loc 1 351 0
 1061 0850 0E005CE1 		cmp	ip, lr
 1062 0854 F7FFFF1A 		bne	.L157
 1063              	.L156:
 1064              		.loc 1 359 0
 1065 0858 0B30D0E5 		ldrb	r3, [r0, #11]	@ zero_extendqisi2
 1066 085c 0830C6E5 		strb	r3, [r6, #8]
 1067              		.loc 1 360 0
 1068 0860 1E30D0E5 		ldrb	r3, [r0, #30]	@ zero_extendqisi2
 1069 0864 1F20D0E5 		ldrb	r2, [r0, #31]	@ zero_extendqisi2
 1070              	.LVL106:
 1071 0868 1C10D0E5 		ldrb	r1, [r0, #28]	@ zero_extendqisi2
 1072              	.LVL107:
 1073 086c 0338A0E1 		mov	r3, r3, asl #16
 1074 0870 023C83E1 		orr	r3, r3, r2, asl #24
 1075 0874 1D20D0E5 		ldrb	r2, [r0, #29]	@ zero_extendqisi2
 1076 0878 013083E1 		orr	r3, r3, r1
 1077 087c 023483E1 		orr	r3, r3, r2, asl #8
 1078 0880 003086E5 		str	r3, [r6, #0]
 1079              		.loc 1 361 0
 1080 0884 1920D0E5 		ldrb	r2, [r0, #25]	@ zero_extendqisi2
 1081 0888 1830D0E5 		ldrb	r3, [r0, #24]	@ zero_extendqisi2
ARM GAS  /cygdrive/c/DOCUME~1/mkwapisz/LOCALS~1/Temp/ccd1rULD.s 			page 35


 1082 088c 023483E1 		orr	r3, r3, r2, asl #8
 1083 0890 B430C6E1 		strh	r3, [r6, #4]	@ movhi
 1084              		.loc 1 362 0
 1085 0894 1630D0E5 		ldrb	r3, [r0, #22]	@ zero_extendqisi2
 1086 0898 1720D0E5 		ldrb	r2, [r0, #23]	@ zero_extendqisi2
 1087 089c 023483E1 		orr	r3, r3, r2, asl #8
 1088 08a0 B630C6E1 		strh	r3, [r6, #6]	@ movhi
 1089              	.LVL108:
 1090              	.L147:
 1091              		.loc 1 364 0
 1092 08a4 0040A0E3 		mov	r4, #0
 1093              	.LVL109:
 1094 08a8 0040CCE5 		strb	r4, [ip, #0]
 1095              	.LBE16:
 1096              	.LBE15:
 854:src/pff.c     **** 			{ /* A valid entry is found */
 855:src/pff.c     **** 				get_fileinfo (dj, fno); /* Get the object information */
 856:src/pff.c     **** 				res = dir_next (dj); /* Increment index for next */
 1097              		.loc 1 856 0
 1098 08ac 0500A0E1 		mov	r0, r5
 1099              	.LVL110:
 1100 08b0 63FFFFEB 		bl	dir_next
 1101              	.LVL111:
 1102              	.LVL112:
 857:src/pff.c     **** 				if (res == FR_NO_FILE)
 1103              		.loc 1 857 0
 1104 08b4 030050E3 		cmp	r0, #3
 1105              	.LVL113:
 1106              		.loc 1 856 0
 1107 08b8 00C0A0E1 		mov	ip, r0
 1108              	.LVL114:
 858:src/pff.c     **** 				{
 859:src/pff.c     **** 					dj->sect = 0;
 1109              		.loc 1 859 0
 1110 08bc 04C0A001 		moveq	ip, r4
 1111 08c0 10408505 		streq	r4, [r5, #16]
 1112 08c4 030000EA 		b	.L131
 1113              	.LVL115:
 1114              	.L138:
 1115 08c8 03C0A0E3 		mov	ip, #3
 1116 08cc B8FFFFEA 		b	.L136
 1117              	.LVL116:
 1118              	.L144:
 1119              	.LBB17:
 1120              	.LBB18:
 1121              		.loc 1 335 0
 1122 08d0 09C086E2 		add	ip, r6, #9
 1123              	.LVL117:
 1124 08d4 F2FFFFEA 		b	.L147
 1125              	.LVL118:
 1126              	.L131:
 1127              	.LBE18:
 1128              	.LBE17:
 860:src/pff.c     **** 					res = FR_OK;
 861:src/pff.c     **** 				}
 862:src/pff.c     **** 			}
 863:src/pff.c     **** 		}
ARM GAS  /cygdrive/c/DOCUME~1/mkwapisz/LOCALS~1/Temp/ccd1rULD.s 			page 36


 864:src/pff.c     **** 	}
 865:src/pff.c     **** 
 866:src/pff.c     **** 	return res;
 867:src/pff.c     **** }
 1129              		.loc 1 867 0
 1130 08d8 0C00A0E1 		mov	r0, ip
 1131 08dc 2CD08DE2 		add	sp, sp, #44
 1132 08e0 7040BDE8 		ldmfd	sp!, {r4, r5, r6, lr}
 1133 08e4 1EFF2FE1 		bx	lr
 1134              	.L164:
 1135              		.align	2
 1136              	.L163:
 1137 08e8 00000000 		.word	FatFs
 1138              	.LFE19:
 1139              		.size	pf_readdir, .-pf_readdir
 1140              		.align	2
 1141              		.type	follow_path, %function
 1142              	follow_path:
 1143              	.LFB12:
 1144              		.loc 1 376 0
 1145              		@ Function supports interworking.
 1146              		@ args = 0, pretend = 0, frame = 0
 1147              		@ frame_needed = 0, uses_anonymous_args = 0
 1148              	.LVL119:
 1149 08ec F0402DE9 		stmfd	sp!, {r4, r5, r6, r7, lr}
 1150              	.LCFI9:
 1151              		.loc 1 376 0
 1152 08f0 0050A0E1 		mov	r5, r0
 1153 08f4 0160A0E1 		mov	r6, r1
 1154 08f8 000000EA 		b	.L166
 1155              	.LVL120:
 1156              	.L167:
 1157              		.loc 1 381 0
 1158 08fc 016086E2 		add	r6, r6, #1
 1159              	.L166:
 1160              		.loc 1 380 0
 1161 0900 0030D6E5 		ldrb	r3, [r6, #0]	@ zero_extendqisi2
 1162 0904 200053E3 		cmp	r3, #32
 1163 0908 FBFFFF0A 		beq	.L167
 1164              		.loc 1 384 0
 1165 090c 0040A0E3 		mov	r4, #0
 1166              		.loc 1 382 0
 1167 0910 2F0053E3 		cmp	r3, #47
 1168              		.loc 1 384 0
 1169 0914 084085E5 		str	r4, [r5, #8]
 1170              		.loc 1 383 0
 1171 0918 01608602 		addeq	r6, r6, #1
 1172              		.loc 1 386 0
 1173 091c 0030D6E5 		ldrb	r3, [r6, #0]	@ zero_extendqisi2
 1174 0920 200053E3 		cmp	r3, #32
 1175 0924 0600008A 		bhi	.L209
 1176              		.loc 1 388 0
 1177 0928 0500A0E1 		mov	r0, r5
 1178 092c C0FDFFEB 		bl	dir_rewind
 1179              		.loc 1 389 0
 1180 0930 B8319FE5 		ldr	r3, .L212
 1181 0934 003093E5 		ldr	r3, [r3, #0]
ARM GAS  /cygdrive/c/DOCUME~1/mkwapisz/LOCALS~1/Temp/ccd1rULD.s 			page 37


 1182 0938 083093E5 		ldr	r3, [r3, #8]
 1183 093c 0040C3E5 		strb	r4, [r3, #0]
 1184 0940 680000EA 		b	.L173
 1185              	.LVL121:
 1186              	.L209:
 1187              	.LBB27:
 1188              	.LBB28:
 1189              		.loc 1 281 0
 1190 0944 04C095E5 		ldr	ip, [r5, #4]
 1191              	.LVL122:
 1192 0948 0020A0E3 		mov	r2, #0
 1193              	.L174:
 1194              	.LBB29:
 1195              	.LBB30:
 1196              		.loc 1 43 0
 1197 094c 2030A0E3 		mov	r3, #32
 1198 0950 0C30C2E7 		strb	r3, [r2, ip]
 1199 0954 012082E2 		add	r2, r2, #1
 1200              		.loc 1 42 0
 1201 0958 0B0052E3 		cmp	r2, #11
 1202 095c FAFFFF1A 		bne	.L174
 1203 0960 0070A0E3 		mov	r7, #0
 1204 0964 08E0A0E3 		mov	lr, #8
 1205              	.LVL123:
 1206 0968 0710A0E1 		mov	r1, r7
 1207              	.LVL124:
 1208              	.LVL125:
 1209              	.L211:
 1210              	.LBE30:
 1211              	.LBE29:
 1212              		.loc 1 288 0
 1213 096c 0720D6E7 		ldrb	r2, [r6, r7]	@ zero_extendqisi2
 1214 0970 013087E2 		add	r3, r7, #1
 1215              	.LBE28:
 1216              		.loc 1 289 0
 1217 0974 2F0052E3 		cmp	r2, #47
 1218 0978 20005213 		cmpne	r2, #32
 1219              	.LBB31:
 1220              		.loc 1 312 0
 1221 097c 014081E2 		add	r4, r1, #1
 1222              	.LVL126:
 1223              		.loc 1 310 0
 1224 0980 610042E2 		sub	r0, r2, #97
 1225              		.loc 1 288 0
 1226 0984 FF7003E2 		and	r7, r3, #255
 1227              	.LBE31:
 1228              		.loc 1 289 0
 1229 0988 0E00009A 		bls	.L178
 1230              		.loc 1 291 0
 1231 098c 2E0052E3 		cmp	r2, #46
 1232 0990 0E005111 		cmpne	r1, lr
 1233 0994 0500003A 		bcc	.L180
 1234              		.loc 1 293 0
 1235 0998 2E0052E3 		cmp	r2, #46
 1236 099c 08005E03 		cmpeq	lr, #8
 1237              	.LBB32:
 1238              	.LBB33:
ARM GAS  /cygdrive/c/DOCUME~1/mkwapisz/LOCALS~1/Temp/ccd1rULD.s 			page 38


 1239              	.LBB34:
 1240              		.loc 1 42 0
 1241 09a0 0810A0E3 		mov	r1, #8
 1242 09a4 0BE0A0E3 		mov	lr, #11
 1243              	.LBE34:
 1244              	.LBE33:
 1245              	.LBE32:
 1246              		.loc 1 293 0
 1247 09a8 EFFFFF0A 		beq	.L211
 1248 09ac 050000EA 		b	.L178
 1249              	.L180:
 1250              	.LBB35:
 1251              		.loc 1 310 0
 1252 09b0 190050E3 		cmp	r0, #25
 1253              		.loc 1 311 0
 1254 09b4 203042E2 		sub	r3, r2, #32
 1255 09b8 FF200392 		andls	r2, r3, #255
 1256              		.loc 1 312 0
 1257 09bc 0120CCE7 		strb	r2, [ip, r1]
 1258 09c0 FF1004E2 		and	r1, r4, #255
 1259 09c4 E8FFFFEA 		b	.L211
 1260              	.L178:
 1261              		.loc 1 317 0
 1262 09c8 200052E3 		cmp	r2, #32
 1263 09cc 0030A083 		movhi	r3, #0
 1264 09d0 0130A093 		movls	r3, #1
 1265 09d4 0B30CCE5 		strb	r3, [ip, #11]
 1266              	.LBE35:
 1267              	.LBE27:
 1268              	.LBB36:
 1269              		.loc 1 201 0
 1270 09d8 0500A0E1 		mov	r0, r5
 1271 09dc 94FDFFEB 		bl	dir_rewind
 1272              	.LVL127:
 1273              	.LBB37:
 1274              		.loc 1 202 0
 1275 09e0 000050E3 		cmp	r0, #0
 1276              	.LVL128:
 1277 09e4 2600001A 		bne	.L184
 1278              		.loc 1 205 0
 1279 09e8 00319FE5 		ldr	r3, .L212
 1280 09ec 003093E5 		ldr	r3, [r3, #0]
 1281 09f0 084093E5 		ldr	r4, [r3, #8]
 1282              	.LVL129:
 1283              	.L186:
 1284              	.LBE37:
 1285              		.loc 1 208 0
 1286 09f4 B020D5E1 		ldrh	r2, [r5, #0]
 1287 09f8 0F2002E2 		and	r2, r2, #15
 1288 09fc 8222A0E1 		mov	r2, r2, asl #5
 1289 0a00 0400A0E1 		mov	r0, r4
 1290              	.LVL130:
 1291 0a04 101095E5 		ldr	r1, [r5, #16]
 1292 0a08 2030A0E3 		mov	r3, #32
 1293 0a0c FEFFFFEB 		bl	disk_readp
 1294              	.LBB38:
 1295 0a10 000050E2 		subs	r0, r0, #0
ARM GAS  /cygdrive/c/DOCUME~1/mkwapisz/LOCALS~1/Temp/ccd1rULD.s 			page 39


 1296 0a14 0100A013 		movne	r0, #1
 1297              	.LVL131:
 1298              		.loc 1 210 0
 1299 0a18 000050E3 		cmp	r0, #0
 1300 0a1c 1800001A 		bne	.L184
 1301              		.loc 1 213 0
 1302 0a20 0030D4E5 		ldrb	r3, [r4, #0]	@ zero_extendqisi2
 1303 0a24 000053E3 		cmp	r3, #0
 1304 0a28 1700000A 		beq	.L188
 1305              		.loc 1 218 0
 1306 0a2c 0B30D4E5 		ldrb	r3, [r4, #11]	@ zero_extendqisi2
 1307 0a30 080013E3 		tst	r3, #8
 1308 0a34 04C09505 		ldreq	ip, [r5, #4]
 1309 0a38 0010A001 		moveq	r1, r0
 1310 0a3c 0200000A 		beq	.L192
 1311 0a40 0B0000EA 		b	.L190
 1312              	.L193:
 1313              	.LBB39:
 1314              	.LBB40:
 1315              		.loc 1 51 0
 1316 0a44 0B0051E3 		cmp	r1, #11
 1317 0a48 0500000A 		beq	.L194
 1318              	.L192:
 1319 0a4c 0420D1E7 		ldrb	r2, [r1, r4]	@ zero_extendqisi2
 1320 0a50 0C30D1E7 		ldrb	r3, [r1, ip]	@ zero_extendqisi2
 1321 0a54 030052E1 		cmp	r2, r3
 1322              	.LBE40:
 1323              	.LBE39:
 1324              		.loc 1 218 0
 1325 0a58 011081E2 		add	r1, r1, #1
 1326              	.LBB41:
 1327              	.LBB42:
 1328              		.loc 1 51 0
 1329 0a5c F8FFFF0A 		beq	.L193
 1330 0a60 030000EA 		b	.L190
 1331              	.L194:
 1332              	.LBE42:
 1333              	.LBE41:
 1334              	.LBE38:
 1335              	.LBE36:
 1336              		.loc 1 405 0
 1337 0a64 0B30DCE5 		ldrb	r3, [ip, #11]	@ zero_extendqisi2
 1338 0a68 000053E3 		cmp	r3, #0
 1339 0a6c 0C00000A 		beq	.L208
 1340 0a70 1C0000EA 		b	.L173
 1341              	.L190:
 1342              	.LBB43:
 1343              		.loc 1 220 0
 1344 0a74 0500A0E1 		mov	r0, r5
 1345              	.LVL132:
 1346 0a78 F1FEFFEB 		bl	dir_next
 1347              	.LBB44:
 1348              		.loc 1 221 0
 1349 0a7c 000050E3 		cmp	r0, #0
 1350              	.LVL133:
 1351 0a80 DBFFFF0A 		beq	.L186
 1352              	.L184:
ARM GAS  /cygdrive/c/DOCUME~1/mkwapisz/LOCALS~1/Temp/ccd1rULD.s 			page 40


 1353              	.LBE44:
 1354              	.LBE43:
 1355              		.loc 1 401 0
 1356 0a84 030050E3 		cmp	r0, #3
 1357 0a88 1600001A 		bne	.L173
 1358              	.L188:
 1359 0a8c 043095E5 		ldr	r3, [r5, #4]
 1360 0a90 0B30D3E5 		ldrb	r3, [r3, #11]	@ zero_extendqisi2
 1361 0a94 000053E3 		cmp	r3, #0
 1362 0a98 0300A013 		movne	r0, #3
 1363 0a9c 1100001A 		bne	.L173
 1364 0aa0 0F0000EA 		b	.L196
 1365              	.L208:
 1366              		.loc 1 407 0
 1367 0aa4 44309FE5 		ldr	r3, .L212
 1368 0aa8 003093E5 		ldr	r3, [r3, #0]
 1369 0aac 081093E5 		ldr	r1, [r3, #8]
 1370              	.LVL134:
 1371              		.loc 1 408 0
 1372 0ab0 0B30D1E5 		ldrb	r3, [r1, #11]	@ zero_extendqisi2
 1373 0ab4 100013E3 		tst	r3, #16
 1374 0ab8 0900000A 		beq	.L196
 1375              		.loc 1 413 0
 1376 0abc 1A20D1E5 		ldrb	r2, [r1, #26]	@ zero_extendqisi2
 1377 0ac0 1500D1E5 		ldrb	r0, [r1, #21]	@ zero_extendqisi2
 1378              	.LVL135:
 1379 0ac4 1430D1E5 		ldrb	r3, [r1, #20]	@ zero_extendqisi2
 1380 0ac8 1B10D1E5 		ldrb	r1, [r1, #27]	@ zero_extendqisi2
 1381              	.LVL136:
 1382 0acc 003483E1 		orr	r3, r3, r0, asl #8
 1383 0ad0 012482E1 		orr	r2, r2, r1, asl #8
 1384 0ad4 032882E1 		orr	r2, r2, r3, asl #16
 1385              	.LBB45:
 1386              	.LBB46:
 1387              		.loc 1 315 0
 1388 0ad8 076086E0 		add	r6, r6, r7
 1389              	.LBE46:
 1390              	.LBE45:
 1391              		.loc 1 413 0
 1392 0adc 082085E5 		str	r2, [r5, #8]
 1393 0ae0 97FFFFEA 		b	.L209
 1394              	.LVL137:
 1395              	.L196:
 1396              		.loc 1 418 0
 1397 0ae4 0400A0E3 		mov	r0, #4
 1398              	.L173:
 1399              	.LVL138:
 1400              		.loc 1 422 0
 1401 0ae8 F040BDE8 		ldmfd	sp!, {r4, r5, r6, r7, lr}
 1402 0aec 1EFF2FE1 		bx	lr
 1403              	.L213:
 1404              		.align	2
 1405              	.L212:
 1406 0af0 00000000 		.word	FatFs
 1407              	.LFE12:
 1408              		.size	follow_path, .-follow_path
 1409              		.align	2
ARM GAS  /cygdrive/c/DOCUME~1/mkwapisz/LOCALS~1/Temp/ccd1rULD.s 			page 41


 1410              		.global	pf_opendir
 1411              		.type	pf_opendir, %function
 1412              	pf_opendir:
 1413              	.LFB18:
 1414              		.loc 1 784 0
 1415              		@ Function supports interworking.
 1416              		@ args = 0, pretend = 0, frame = 44
 1417              		@ frame_needed = 0, uses_anonymous_args = 0
 1418              	.LVL139:
 1419 0af4 10402DE9 		stmfd	sp!, {r4, lr}
 1420              	.LCFI10:
 1421              		.loc 1 787 0
 1422 0af8 8C309FE5 		ldr	r3, .L225
 1423 0afc 002093E5 		ldr	r2, [r3, #0]
 1424              	.LVL140:
 1425              		.loc 1 789 0
 1426 0b00 000052E3 		cmp	r2, #0
 1427              		.loc 1 784 0
 1428 0b04 2CD04DE2 		sub	sp, sp, #44
 1429              	.LCFI11:
 1430              		.loc 1 789 0
 1431 0b08 0630A0E3 		mov	r3, #6
 1432              	.LVL141:
 1433              		.loc 1 784 0
 1434 0b0c 0040A0E1 		mov	r4, r0
 1435              		.loc 1 789 0
 1436 0b10 1900000A 		beq	.L217
 1437              	.LVL142:
 1438              		.loc 1 795 0
 1439 0b14 20308DE2 		add	r3, sp, #32
 1440              	.LVL143:
 1441              		.loc 1 794 0
 1442 0b18 08D082E5 		str	sp, [r2, #8]
 1443              		.loc 1 795 0
 1444 0b1c 043080E5 		str	r3, [r0, #4]
 1445              		.loc 1 796 0
 1446 0b20 71FFFFEB 		bl	follow_path
 1447              	.LVL144:
 1448              		.loc 1 797 0
 1449 0b24 003050E2 		subs	r3, r0, #0
 1450              	.LVL145:
 1451 0b28 1000001A 		bne	.L218
 1452              		.loc 1 799 0
 1453 0b2c 0030DDE5 		ldrb	r3, [sp, #0]	@ zero_extendqisi2
 1454              	.LVL146:
 1455 0b30 000053E3 		cmp	r3, #0
 1456              		.loc 1 814 0
 1457 0b34 0400A0E1 		mov	r0, r4
 1458              		.loc 1 799 0
 1459 0b38 0A00000A 		beq	.L220
 1460              	.LVL147:
 1461              		.loc 1 801 0
 1462 0b3c 0B30DDE5 		ldrb	r3, [sp, #11]	@ zero_extendqisi2
 1463 0b40 100013E3 		tst	r3, #16
 1464 0b44 0B00000A 		beq	.L222
 1465              		.loc 1 803 0
 1466 0b48 15C0DDE5 		ldrb	ip, [sp, #21]	@ zero_extendqisi2
ARM GAS  /cygdrive/c/DOCUME~1/mkwapisz/LOCALS~1/Temp/ccd1rULD.s 			page 42


 1467 0b4c 1420DDE5 		ldrb	r2, [sp, #20]	@ zero_extendqisi2
 1468 0b50 1B10DDE5 		ldrb	r1, [sp, #27]	@ zero_extendqisi2
 1469 0b54 1A30DDE5 		ldrb	r3, [sp, #26]	@ zero_extendqisi2
 1470 0b58 0C2482E1 		orr	r2, r2, ip, asl #8
 1471 0b5c 013483E1 		orr	r3, r3, r1, asl #8
 1472 0b60 023883E1 		orr	r3, r3, r2, asl #16
 1473 0b64 083084E5 		str	r3, [r4, #8]
 1474              	.L220:
 1475              		.loc 1 814 0
 1476 0b68 31FDFFEB 		bl	dir_rewind
 1477              	.LVL148:
 1478 0b6c 0030A0E1 		mov	r3, r0
 1479              	.LVL149:
 1480              	.L218:
 1481              		.loc 1 816 0
 1482 0b70 030053E3 		cmp	r3, #3
 1483 0b74 0000001A 		bne	.L217
 1484              	.LVL150:
 1485              	.L222:
 1486 0b78 0430A0E3 		mov	r3, #4
 1487              	.LVL151:
 1488              	.L217:
 1489              		.loc 1 821 0
 1490 0b7c 0300A0E1 		mov	r0, r3
 1491 0b80 2CD08DE2 		add	sp, sp, #44
 1492 0b84 1040BDE8 		ldmfd	sp!, {r4, lr}
 1493 0b88 1EFF2FE1 		bx	lr
 1494              	.L226:
 1495              		.align	2
 1496              	.L225:
 1497 0b8c 00000000 		.word	FatFs
 1498              	.LFE18:
 1499              		.size	pf_opendir, .-pf_opendir
 1500              		.align	2
 1501              		.global	pf_open
 1502              		.type	pf_open, %function
 1503              	pf_open:
 1504              	.LFB15:
 1505              		.loc 1 543 0
 1506              		@ Function supports interworking.
 1507              		@ args = 0, pretend = 0, frame = 64
 1508              		@ frame_needed = 0, uses_anonymous_args = 0
 1509              	.LVL152:
 1510 0b90 10402DE9 		stmfd	sp!, {r4, lr}
 1511              	.LCFI12:
 1512              		.loc 1 547 0
 1513 0b94 B8309FE5 		ldr	r3, .L236
 1514 0b98 004093E5 		ldr	r4, [r3, #0]
 1515              	.LVL153:
 1516              		.loc 1 543 0
 1517 0b9c 40D04DE2 		sub	sp, sp, #64
 1518              	.LCFI13:
 1519              		.loc 1 549 0
 1520 0ba0 000054E3 		cmp	r4, #0
 1521              		.loc 1 543 0
 1522 0ba4 0010A0E1 		mov	r1, r0
 1523              		.loc 1 549 0
ARM GAS  /cygdrive/c/DOCUME~1/mkwapisz/LOCALS~1/Temp/ccd1rULD.s 			page 43


 1524 0ba8 06C0A0E3 		mov	ip, #6
 1525              	.LVL154:
 1526              		.loc 1 555 0
 1527 0bac 20008DE2 		add	r0, sp, #32
 1528              	.LVL155:
 1529              		.loc 1 549 0
 1530 0bb0 2300000A 		beq	.L230
 1531              		.loc 1 552 0
 1532 0bb4 0030A0E3 		mov	r3, #0
 1533 0bb8 0230C4E5 		strb	r3, [r4, #2]
 1534              		.loc 1 553 0
 1535 0bbc 08D084E5 		str	sp, [r4, #8]
 1536              		.loc 1 554 0
 1537 0bc0 34308DE2 		add	r3, sp, #52
 1538 0bc4 24308DE5 		str	r3, [sp, #36]
 1539              		.loc 1 555 0
 1540 0bc8 47FFFFEB 		bl	follow_path
 1541              	.LVL156:
 1542              		.loc 1 556 0
 1543 0bcc 00C050E2 		subs	ip, r0, #0
 1544              	.LVL157:
 1545 0bd0 1B00001A 		bne	.L230
 1546              		.loc 1 558 0
 1547 0bd4 0030DDE5 		ldrb	r3, [sp, #0]	@ zero_extendqisi2
 1548 0bd8 000053E3 		cmp	r3, #0
 1549 0bdc 1700000A 		beq	.L232
 1550 0be0 0B30DDE5 		ldrb	r3, [sp, #11]	@ zero_extendqisi2
 1551 0be4 100013E3 		tst	r3, #16
 1552 0be8 1400001A 		bne	.L232
 1553              		.loc 1 561 0
 1554 0bec 1B10DDE5 		ldrb	r1, [sp, #27]	@ zero_extendqisi2
 1555 0bf0 1500DDE5 		ldrb	r0, [sp, #21]	@ zero_extendqisi2
 1556 0bf4 1420DDE5 		ldrb	r2, [sp, #20]	@ zero_extendqisi2
 1557 0bf8 1A30DDE5 		ldrb	r3, [sp, #26]	@ zero_extendqisi2
 1558 0bfc 002482E1 		orr	r2, r2, r0, asl #8
 1559 0c00 013483E1 		orr	r3, r3, r1, asl #8
 1560 0c04 023883E1 		orr	r3, r3, r2, asl #16
 1561 0c08 243084E5 		str	r3, [r4, #36]
 1562              		.loc 1 566 0
 1563 0c0c 1E30DDE5 		ldrb	r3, [sp, #30]	@ zero_extendqisi2
 1564 0c10 1F20DDE5 		ldrb	r2, [sp, #31]	@ zero_extendqisi2
 1565 0c14 1C10DDE5 		ldrb	r1, [sp, #28]	@ zero_extendqisi2
 1566 0c18 0338A0E1 		mov	r3, r3, asl #16
 1567 0c1c 023C83E1 		orr	r3, r3, r2, asl #24
 1568 0c20 1D20DDE5 		ldrb	r2, [sp, #29]	@ zero_extendqisi2
 1569 0c24 013083E1 		orr	r3, r3, r1
 1570 0c28 023483E1 		orr	r3, r3, r2, asl #8
 1571              		.loc 1 568 0
 1572 0c2c 0120A0E3 		mov	r2, #1
 1573 0c30 0220C4E5 		strb	r2, [r4, #2]
 1574              		.loc 1 566 0
 1575 0c34 203084E5 		str	r3, [r4, #32]
 1576              		.loc 1 567 0
 1577 0c38 1CC084E5 		str	ip, [r4, #28]
 1578 0c3c 000000EA 		b	.L230
 1579              	.L232:
 1580              		.loc 1 570 0
ARM GAS  /cygdrive/c/DOCUME~1/mkwapisz/LOCALS~1/Temp/ccd1rULD.s 			page 44


 1581 0c40 03C0A0E3 		mov	ip, #3
 1582              	.LVL158:
 1583              	.L230:
 1584              		.loc 1 571 0
 1585 0c44 0C00A0E1 		mov	r0, ip
 1586 0c48 40D08DE2 		add	sp, sp, #64
 1587 0c4c 1040BDE8 		ldmfd	sp!, {r4, lr}
 1588 0c50 1EFF2FE1 		bx	lr
 1589              	.L237:
 1590              		.align	2
 1591              	.L236:
 1592 0c54 00000000 		.word	FatFs
 1593              	.LFE15:
 1594              		.size	pf_open, .-pf_open
 1595              		.align	2
 1596              		.global	pf_mount
 1597              		.type	pf_mount, %function
 1598              	pf_mount:
 1599              	.LFB14:
 1600              		.loc 1 459 0
 1601              		@ Function supports interworking.
 1602              		@ args = 0, pretend = 0, frame = 36
 1603              		@ frame_needed = 0, uses_anonymous_args = 0
 1604              	.LVL159:
 1605 0c58 70402DE9 		stmfd	sp!, {r4, r5, r6, lr}
 1606              	.LCFI14:
 1607              		.loc 1 463 0
 1608 0c5c 1C329FE5 		ldr	r3, .L268
 1609              		.loc 1 464 0
 1610 0c60 005050E2 		subs	r5, r0, #0
 1611              		.loc 1 463 0
 1612 0c64 0020A0E3 		mov	r2, #0
 1613              		.loc 1 459 0
 1614 0c68 24D04DE2 		sub	sp, sp, #36
 1615              	.LCFI15:
 1616              		.loc 1 463 0
 1617 0c6c 002083E5 		str	r2, [r3, #0]
 1618              		.loc 1 464 0
 1619 0c70 0500A001 		moveq	r0, r5
 1620              	.LVL160:
 1621 0c74 7E00000A 		beq	.L241
 1622              		.loc 1 467 0
 1623 0c78 FEFFFFEB 		bl	disk_initialize
 1624 0c7c 014010E2 		ands	r4, r0, #1
 1625 0c80 0200A013 		movne	r0, #2
 1626 0c84 7A00001A 		bne	.L241
 1627              		.loc 1 472 0
 1628 0c88 0D00A0E1 		mov	r0, sp
 1629 0c8c 0410A0E1 		mov	r1, r4
 1630 0c90 09FDFFEB 		bl	check_fs
 1631              	.LVL161:
 1632              		.loc 1 473 0
 1633 0c94 010050E3 		cmp	r0, #1
 1634              		.loc 1 472 0
 1635 0c98 0D60A0E1 		mov	r6, sp
 1636              		.loc 1 473 0
 1637 0c9c 1400001A 		bne	.L246
ARM GAS  /cygdrive/c/DOCUME~1/mkwapisz/LOCALS~1/Temp/ccd1rULD.s 			page 45


 1638              		.loc 1 476 0
 1639 0ca0 0410A0E1 		mov	r1, r4
 1640 0ca4 0D00A0E1 		mov	r0, sp
 1641              	.LVL162:
 1642 0ca8 D4219FE5 		ldr	r2, .L268+4
 1643 0cac 1030A0E3 		mov	r3, #16
 1644 0cb0 FEFFFFEB 		bl	disk_readp
 1645 0cb4 000050E3 		cmp	r0, #0
 1646 0cb8 5E00001A 		bne	.L247
 1647              		.loc 1 481 0
 1648 0cbc 0430DDE5 		ldrb	r3, [sp, #4]	@ zero_extendqisi2
 1649 0cc0 000053E3 		cmp	r3, #0
 1650 0cc4 5D00000A 		beq	.L249
 1651              		.loc 1 483 0
 1652 0cc8 0A30DDE5 		ldrb	r3, [sp, #10]	@ zero_extendqisi2
 1653 0ccc 0B20DDE5 		ldrb	r2, [sp, #11]	@ zero_extendqisi2
 1654 0cd0 0810DDE5 		ldrb	r1, [sp, #8]	@ zero_extendqisi2
 1655 0cd4 0338A0E1 		mov	r3, r3, asl #16
 1656 0cd8 023C83E1 		orr	r3, r3, r2, asl #24
 1657 0cdc 0920DDE5 		ldrb	r2, [sp, #9]	@ zero_extendqisi2
 1658 0ce0 013083E1 		orr	r3, r3, r1
 1659 0ce4 024483E1 		orr	r4, r3, r2, asl #8
 1660              	.LVL163:
 1661              		.loc 1 484 0
 1662 0ce8 0D00A0E1 		mov	r0, sp
 1663 0cec 0410A0E1 		mov	r1, r4
 1664 0cf0 F1FCFFEB 		bl	check_fs
 1665              	.LVL164:
 1666              	.L246:
 1667              		.loc 1 488 0
 1668 0cf4 030050E3 		cmp	r0, #3
 1669 0cf8 4E00000A 		beq	.L247
 1670              		.loc 1 490 0
 1671 0cfc 000050E3 		cmp	r0, #0
 1672 0d00 4E00001A 		bne	.L249
 1673              		.loc 1 494 0
 1674 0d04 0D00A0E1 		mov	r0, sp
 1675              	.LVL165:
 1676 0d08 0410A0E1 		mov	r1, r4
 1677 0d0c 0D20A0E3 		mov	r2, #13
 1678 0d10 2430A0E3 		mov	r3, #36
 1679 0d14 FEFFFFEB 		bl	disk_readp
 1680 0d18 000050E3 		cmp	r0, #0
 1681 0d1c 4500001A 		bne	.L247
 1682              		.loc 1 497 0
 1683 0d20 0A20DDE5 		ldrb	r2, [sp, #10]	@ zero_extendqisi2
 1684 0d24 0930DDE5 		ldrb	r3, [sp, #9]	@ zero_extendqisi2
 1685              		.loc 1 498 0
 1686 0d28 023493E1 		orrs	r3, r3, r2, asl #8
 1687              		.loc 1 499 0
 1688 0d2c 1930DD05 		ldreqb	r3, [sp, #25]	@ zero_extendqisi2
 1689 0d30 1A20DD05 		ldreqb	r2, [sp, #26]	@ zero_extendqisi2
 1690 0d34 1710DD05 		ldreqb	r1, [sp, #23]	@ zero_extendqisi2
 1691 0d38 0338A001 		moveq	r3, r3, asl #16
 1692 0d3c 023C8301 		orreq	r3, r3, r2, asl #24
 1693 0d40 1820DD05 		ldreqb	r2, [sp, #24]	@ zero_extendqisi2
 1694 0d44 01308301 		orreq	r3, r3, r1
ARM GAS  /cygdrive/c/DOCUME~1/mkwapisz/LOCALS~1/Temp/ccd1rULD.s 			page 46


 1695 0d48 02C48301 		orreq	ip, r3, r2, asl #8
 1696              	.LVL166:
 1697              		.loc 1 497 0
 1698 0d4c 03C0A011 		movne	ip, r3
 1699              		.loc 1 502 0
 1700 0d50 0220DDE5 		ldrb	r2, [sp, #2]	@ zero_extendqisi2
 1701 0d54 0130DDE5 		ldrb	r3, [sp, #1]	@ zero_extendqisi2
 1702 0d58 023483E1 		orr	r3, r3, r2, asl #8
 1703 0d5c 033084E0 		add	r3, r4, r3
 1704              		.loc 1 501 0
 1705 0d60 0310DDE5 		ldrb	r1, [sp, #3]	@ zero_extendqisi2
 1706              		.loc 1 502 0
 1707 0d64 103085E5 		str	r3, [r5, #16]
 1708              		.loc 1 503 0
 1709 0d68 0030DDE5 		ldrb	r3, [sp, #0]	@ zero_extendqisi2
 1710 0d6c 0130C5E5 		strb	r3, [r5, #1]
 1711              		.loc 1 504 0
 1712 0d70 0520DDE5 		ldrb	r2, [sp, #5]	@ zero_extendqisi2
 1713 0d74 0430DDE5 		ldrb	r3, [sp, #4]	@ zero_extendqisi2
 1714              		.loc 1 501 0
 1715 0d78 910C04E0 		mul	r4, r1, ip
 1716              	.LVL167:
 1717              		.loc 1 504 0
 1718 0d7c 02E483E1 		orr	lr, r3, r2, asl #8
 1719 0d80 B4E0C5E1 		strh	lr, [r5, #4]	@ movhi
 1720              		.loc 1 505 0
 1721 0d84 0720DDE5 		ldrb	r2, [sp, #7]	@ zero_extendqisi2
 1722 0d88 0630DDE5 		ldrb	r3, [sp, #6]	@ zero_extendqisi2
 1723              		.loc 1 506 0
 1724 0d8c 020493E1 		orrs	r0, r3, r2, asl #8
 1725              		.loc 1 507 0
 1726 0d90 1530DD05 		ldreqb	r3, [sp, #21]	@ zero_extendqisi2
 1727 0d94 1620DD05 		ldreqb	r2, [sp, #22]	@ zero_extendqisi2
 1728 0d98 0338A001 		moveq	r3, r3, asl #16
 1729 0d9c 1310DD05 		ldreqb	r1, [sp, #19]	@ zero_extendqisi2
 1730 0da0 023C8301 		orreq	r3, r3, r2, asl #24
 1731 0da4 1420DD05 		ldreqb	r2, [sp, #20]	@ zero_extendqisi2
 1732 0da8 01308301 		orreq	r3, r3, r1
 1733              		.loc 1 505 0
 1734 0dac 0020A011 		movne	r2, r0
 1735              	.LVL168:
 1736              	.LVL169:
 1737              		.loc 1 507 0
 1738 0db0 02248301 		orreq	r2, r3, r2, asl #8
 1739              	.LVL170:
 1740              		.loc 1 508 0
 1741 0db4 0100DDE5 		ldrb	r0, [sp, #1]	@ zero_extendqisi2
 1742 0db8 0230DDE5 		ldrb	r3, [sp, #2]	@ zero_extendqisi2
 1743 0dbc 030480E1 		orr	r0, r0, r3, asl #8
 1744 0dc0 020060E0 		rsb	r0, r0, r2
 1745 0dc4 000064E0 		rsb	r0, r4, r0
 1746 0dc8 2E0240E0 		sub	r0, r0, lr, lsr #4
 1747 0dcc 0110D5E5 		ldrb	r1, [r5, #1]	@ zero_extendqisi2
 1748 0dd0 FEFFFFEB 		bl	__udivsi3
 1749              	.LVL171:
 1750              		.loc 1 513 0
 1751 0dd4 AC309FE5 		ldr	r3, .L268+8
ARM GAS  /cygdrive/c/DOCUME~1/mkwapisz/LOCALS~1/Temp/ccd1rULD.s 			page 47


 1752              		.loc 1 508 0
 1753 0dd8 020080E2 		add	r0, r0, #2
 1754              	.LVL172:
 1755              		.loc 1 513 0
 1756 0ddc 030050E1 		cmp	r0, r3
 1757              		.loc 1 510 0
 1758 0de0 0C0085E5 		str	r0, [r5, #12]
 1759              		.loc 1 513 0
 1760 0de4 0120A093 		movls	r2, #1
 1761              	.LVL173:
 1762 0de8 0300009A 		bls	.L262
 1763              		.loc 1 515 0
 1764 0dec 98309FE5 		ldr	r3, .L268+12
 1765 0df0 030050E1 		cmp	r0, r3
 1766 0df4 1300008A 		bhi	.L263
 1767 0df8 0220A0E3 		mov	r2, #2
 1768              	.L262:
 1769              		.loc 1 528 0
 1770 0dfc 103095E5 		ldr	r3, [r5, #16]
 1771              		.loc 1 522 0
 1772 0e00 0020C5E5 		strb	r2, [r5, #0]
 1773              		.loc 1 528 0
 1774 0e04 043083E0 		add	r3, r3, r4
 1775              	.L267:
 1776              		.loc 1 529 0
 1777 0e08 B420D5E1 		ldrh	r2, [r5, #4]
 1778              	.LVL174:
 1779              		.loc 1 528 0
 1780 0e0c 143085E5 		str	r3, [r5, #20]
 1781              		.loc 1 529 0
 1782 0e10 103095E5 		ldr	r3, [r5, #16]
 1783 0e14 223283E0 		add	r3, r3, r2, lsr #4
 1784 0e18 033084E0 		add	r3, r4, r3
 1785              		.loc 1 531 0
 1786 0e1c 0020A0E3 		mov	r2, #0
 1787              		.loc 1 529 0
 1788 0e20 183085E5 		str	r3, [r5, #24]
 1789              		.loc 1 532 0
 1790 0e24 54309FE5 		ldr	r3, .L268
 1791 0e28 0200A0E1 		mov	r0, r2
 1792              	.LVL175:
 1793              		.loc 1 531 0
 1794 0e2c 0220C5E5 		strb	r2, [r5, #2]
 1795              		.loc 1 532 0
 1796 0e30 005083E5 		str	r5, [r3, #0]
 1797 0e34 0E0000EA 		b	.L241
 1798              	.LVL176:
 1799              	.L247:
 1800              		.loc 1 534 0
 1801 0e38 0100A0E3 		mov	r0, #1
 1802              	.LVL177:
 1803 0e3c 0C0000EA 		b	.L241
 1804              	.LVL178:
 1805              	.L249:
 1806 0e40 0700A0E3 		mov	r0, #7
 1807              	.LVL179:
 1808 0e44 0A0000EA 		b	.L241
ARM GAS  /cygdrive/c/DOCUME~1/mkwapisz/LOCALS~1/Temp/ccd1rULD.s 			page 48


 1809              	.LVL180:
 1810              	.L263:
 1811              		.loc 1 522 0
 1812 0e48 0330A0E3 		mov	r3, #3
 1813 0e4c 0030C5E5 		strb	r3, [r5, #0]
 1814              		.loc 1 525 0
 1815 0e50 2130DDE5 		ldrb	r3, [sp, #33]	@ zero_extendqisi2
 1816 0e54 2220DDE5 		ldrb	r2, [sp, #34]	@ zero_extendqisi2
 1817              	.LVL181:
 1818 0e58 0338A0E1 		mov	r3, r3, asl #16
 1819 0e5c 1F10DDE5 		ldrb	r1, [sp, #31]	@ zero_extendqisi2
 1820 0e60 023C83E1 		orr	r3, r3, r2, asl #24
 1821 0e64 2020DDE5 		ldrb	r2, [sp, #32]	@ zero_extendqisi2
 1822 0e68 013083E1 		orr	r3, r3, r1
 1823 0e6c 023483E1 		orr	r3, r3, r2, asl #8
 1824 0e70 E4FFFFEA 		b	.L267
 1825              	.LVL182:
 1826              	.L241:
 1827              		.loc 1 535 0
 1828 0e74 24D08DE2 		add	sp, sp, #36
 1829 0e78 7040BDE8 		ldmfd	sp!, {r4, r5, r6, lr}
 1830 0e7c 1EFF2FE1 		bx	lr
 1831              	.L269:
 1832              		.align	2
 1833              	.L268:
 1834 0e80 00000000 		.word	FatFs
 1835 0e84 BE010000 		.word	446
 1836 0e88 F60F0000 		.word	4086
 1837 0e8c F6FF0000 		.word	65526
 1838              	.LFE14:
 1839              		.size	pf_mount, .-pf_mount
 1840              		.bss
 1841              		.align	2
 1842              	FatFs:
 1843 0000 00000000 		.space	4
 1844              		.comm	dr,4,4
 1845              		.comm	clst,4,4
 1846              		.comm	sect,4,4
 1847              		.comm	remain,4,4
 1848              		.comm	rbuff,4,4
 1849              		.comm	rcnt,2,2
 1850              		.comm	fs,4,4
 1851              		.section	.debug_frame,"",%progbits
 1852              	.Lframe0:
 1853 0000 0C000000 		.4byte	.LECIE0-.LSCIE0
 1854              	.LSCIE0:
 1855 0004 FFFFFFFF 		.4byte	0xffffffff
 1856 0008 01       		.byte	0x1
 1857 0009 00       		.ascii	"\000"
 1858 000a 01       		.uleb128 0x1
 1859 000b 7C       		.sleb128 -4
 1860 000c 0E       		.byte	0xe
 1861 000d 0C       		.byte	0xc
 1862 000e 0D       		.uleb128 0xd
 1863 000f 00       		.uleb128 0x0
 1864              		.align	2
 1865              	.LECIE0:
ARM GAS  /cygdrive/c/DOCUME~1/mkwapisz/LOCALS~1/Temp/ccd1rULD.s 			page 49


 1866              	.LSFDE0:
 1867 0010 0C000000 		.4byte	.LEFDE0-.LASFDE0
 1868              	.LASFDE0:
 1869 0014 00000000 		.4byte	.Lframe0
 1870 0018 00000000 		.4byte	.LFB5
 1871 001c 34000000 		.4byte	.LFE5-.LFB5
 1872              		.align	2
 1873              	.LEFDE0:
 1874              	.LSFDE2:
 1875 0020 14000000 		.4byte	.LEFDE2-.LASFDE2
 1876              	.LASFDE2:
 1877 0024 00000000 		.4byte	.Lframe0
 1878 0028 34000000 		.4byte	.LFB6
 1879 002c 88000000 		.4byte	.LFE6-.LFB6
 1880 0030 48       		.byte	0x4
 1881              		.4byte	.LCFI0-.LFB6
 1882 0031 0E       		.byte	0xe
 1883 0032 08       		.uleb128 0x8
 1884 0033 8E       		.byte	0x8e
 1885 0034 01       		.uleb128 0x1
 1886 0035 84       		.byte	0x84
 1887 0036 02       		.uleb128 0x2
 1888 0037 00       		.align	2
 1889              	.LEFDE2:
 1890              	.LSFDE4:
 1891 0038 18000000 		.4byte	.LEFDE4-.LASFDE4
 1892              	.LASFDE4:
 1893 003c 00000000 		.4byte	.Lframe0
 1894 0040 BC000000 		.4byte	.LFB13
 1895 0044 C4000000 		.4byte	.LFE13-.LFB13
 1896 0048 44       		.byte	0x4
 1897              		.4byte	.LCFI1-.LFB13
 1898 0049 0E       		.byte	0xe
 1899 004a 10       		.uleb128 0x10
 1900 004b 8E       		.byte	0x8e
 1901 004c 01       		.uleb128 0x1
 1902 004d 86       		.byte	0x86
 1903 004e 02       		.uleb128 0x2
 1904 004f 85       		.byte	0x85
 1905 0050 03       		.uleb128 0x3
 1906 0051 84       		.byte	0x84
 1907 0052 04       		.uleb128 0x4
 1908 0053 00       		.align	2
 1909              	.LEFDE4:
 1910              	.LSFDE6:
 1911 0054 20000000 		.4byte	.LEFDE6-.LASFDE6
 1912              	.LASFDE6:
 1913 0058 00000000 		.4byte	.Lframe0
 1914 005c 80010000 		.4byte	.LFB4
 1915 0060 7C010000 		.4byte	.LFE4-.LFB4
 1916 0064 44       		.byte	0x4
 1917              		.4byte	.LCFI2-.LFB4
 1918 0065 0E       		.byte	0xe
 1919 0066 18       		.uleb128 0x18
 1920 0067 4C       		.byte	0x4
 1921              		.4byte	.LCFI3-.LCFI2
 1922 0068 0E       		.byte	0xe
ARM GAS  /cygdrive/c/DOCUME~1/mkwapisz/LOCALS~1/Temp/ccd1rULD.s 			page 50


 1923 0069 1C       		.uleb128 0x1c
 1924 006a 8E       		.byte	0x8e
 1925 006b 01       		.uleb128 0x1
 1926 006c 88       		.byte	0x88
 1927 006d 02       		.uleb128 0x2
 1928 006e 87       		.byte	0x87
 1929 006f 03       		.uleb128 0x3
 1930 0070 86       		.byte	0x86
 1931 0071 04       		.uleb128 0x4
 1932 0072 85       		.byte	0x85
 1933 0073 05       		.uleb128 0x5
 1934 0074 84       		.byte	0x84
 1935 0075 06       		.uleb128 0x6
 1936 0076 0000     		.align	2
 1937              	.LEFDE6:
 1938              	.LSFDE8:
 1939 0078 1C000000 		.4byte	.LEFDE8-.LASFDE8
 1940              	.LASFDE8:
 1941 007c 00000000 		.4byte	.Lframe0
 1942 0080 FC020000 		.4byte	.LFB17
 1943 0084 48010000 		.4byte	.LFE17-.LFB17
 1944 0088 48       		.byte	0x4
 1945              		.4byte	.LCFI4-.LFB17
 1946 0089 0E       		.byte	0xe
 1947 008a 18       		.uleb128 0x18
 1948 008b 8E       		.byte	0x8e
 1949 008c 01       		.uleb128 0x1
 1950 008d 88       		.byte	0x88
 1951 008e 02       		.uleb128 0x2
 1952 008f 87       		.byte	0x87
 1953 0090 03       		.uleb128 0x3
 1954 0091 86       		.byte	0x86
 1955 0092 04       		.uleb128 0x4
 1956 0093 85       		.byte	0x85
 1957 0094 05       		.uleb128 0x5
 1958 0095 84       		.byte	0x84
 1959 0096 06       		.uleb128 0x6
 1960 0097 00       		.align	2
 1961              	.LEFDE8:
 1962              	.LSFDE10:
 1963 0098 1C000000 		.4byte	.LEFDE10-.LASFDE10
 1964              	.LASFDE10:
 1965 009c 00000000 		.4byte	.Lframe0
 1966 00a0 44040000 		.4byte	.LFB16
 1967 00a4 00020000 		.4byte	.LFE16-.LFB16
 1968 00a8 48       		.byte	0x4
 1969              		.4byte	.LCFI5-.LFB16
 1970 00a9 0E       		.byte	0xe
 1971 00aa 18       		.uleb128 0x18
 1972 00ab 8E       		.byte	0x8e
 1973 00ac 01       		.uleb128 0x1
 1974 00ad 88       		.byte	0x88
 1975 00ae 02       		.uleb128 0x2
 1976 00af 87       		.byte	0x87
 1977 00b0 03       		.uleb128 0x3
 1978 00b1 86       		.byte	0x86
 1979 00b2 04       		.uleb128 0x4
ARM GAS  /cygdrive/c/DOCUME~1/mkwapisz/LOCALS~1/Temp/ccd1rULD.s 			page 51


 1980 00b3 85       		.byte	0x85
 1981 00b4 05       		.uleb128 0x5
 1982 00b5 84       		.byte	0x84
 1983 00b6 06       		.uleb128 0x6
 1984 00b7 00       		.align	2
 1985              	.LEFDE10:
 1986              	.LSFDE12:
 1987 00b8 18000000 		.4byte	.LEFDE12-.LASFDE12
 1988              	.LASFDE12:
 1989 00bc 00000000 		.4byte	.Lframe0
 1990 00c0 44060000 		.4byte	.LFB7
 1991 00c4 B4000000 		.4byte	.LFE7-.LFB7
 1992 00c8 54       		.byte	0x4
 1993              		.4byte	.LCFI6-.LFB7
 1994 00c9 0E       		.byte	0xe
 1995 00ca 10       		.uleb128 0x10
 1996 00cb 8E       		.byte	0x8e
 1997 00cc 01       		.uleb128 0x1
 1998 00cd 86       		.byte	0x86
 1999 00ce 02       		.uleb128 0x2
 2000 00cf 85       		.byte	0x85
 2001 00d0 03       		.uleb128 0x3
 2002 00d1 84       		.byte	0x84
 2003 00d2 04       		.uleb128 0x4
 2004 00d3 00       		.align	2
 2005              	.LEFDE12:
 2006              	.LSFDE14:
 2007 00d4 1C000000 		.4byte	.LEFDE14-.LASFDE14
 2008              	.LASFDE14:
 2009 00d8 00000000 		.4byte	.Lframe0
 2010 00dc F8060000 		.4byte	.LFB19
 2011 00e0 F4010000 		.4byte	.LFE19-.LFB19
 2012 00e4 44       		.byte	0x4
 2013              		.4byte	.LCFI7-.LFB19
 2014 00e5 0E       		.byte	0xe
 2015 00e6 10       		.uleb128 0x10
 2016 00e7 50       		.byte	0x4
 2017              		.4byte	.LCFI8-.LCFI7
 2018 00e8 0E       		.byte	0xe
 2019 00e9 3C       		.uleb128 0x3c
 2020 00ea 8E       		.byte	0x8e
 2021 00eb 01       		.uleb128 0x1
 2022 00ec 86       		.byte	0x86
 2023 00ed 02       		.uleb128 0x2
 2024 00ee 85       		.byte	0x85
 2025 00ef 03       		.uleb128 0x3
 2026 00f0 84       		.byte	0x84
 2027 00f1 04       		.uleb128 0x4
 2028 00f2 0000     		.align	2
 2029              	.LEFDE14:
 2030              	.LSFDE16:
 2031 00f4 1C000000 		.4byte	.LEFDE16-.LASFDE16
 2032              	.LASFDE16:
 2033 00f8 00000000 		.4byte	.Lframe0
 2034 00fc EC080000 		.4byte	.LFB12
 2035 0100 08020000 		.4byte	.LFE12-.LFB12
 2036 0104 44       		.byte	0x4
ARM GAS  /cygdrive/c/DOCUME~1/mkwapisz/LOCALS~1/Temp/ccd1rULD.s 			page 52


 2037              		.4byte	.LCFI9-.LFB12
 2038 0105 0E       		.byte	0xe
 2039 0106 14       		.uleb128 0x14
 2040 0107 8E       		.byte	0x8e
 2041 0108 01       		.uleb128 0x1
 2042 0109 87       		.byte	0x87
 2043 010a 02       		.uleb128 0x2
 2044 010b 86       		.byte	0x86
 2045 010c 03       		.uleb128 0x3
 2046 010d 85       		.byte	0x85
 2047 010e 04       		.uleb128 0x4
 2048 010f 84       		.byte	0x84
 2049 0110 05       		.uleb128 0x5
 2050 0111 000000   		.align	2
 2051              	.LEFDE16:
 2052              	.LSFDE18:
 2053 0114 18000000 		.4byte	.LEFDE18-.LASFDE18
 2054              	.LASFDE18:
 2055 0118 00000000 		.4byte	.Lframe0
 2056 011c F40A0000 		.4byte	.LFB18
 2057 0120 9C000000 		.4byte	.LFE18-.LFB18
 2058 0124 44       		.byte	0x4
 2059              		.4byte	.LCFI10-.LFB18
 2060 0125 0E       		.byte	0xe
 2061 0126 08       		.uleb128 0x8
 2062 0127 50       		.byte	0x4
 2063              		.4byte	.LCFI11-.LCFI10
 2064 0128 0E       		.byte	0xe
 2065 0129 34       		.uleb128 0x34
 2066 012a 8E       		.byte	0x8e
 2067 012b 01       		.uleb128 0x1
 2068 012c 84       		.byte	0x84
 2069 012d 02       		.uleb128 0x2
 2070 012e 0000     		.align	2
 2071              	.LEFDE18:
 2072              	.LSFDE20:
 2073 0130 18000000 		.4byte	.LEFDE20-.LASFDE20
 2074              	.LASFDE20:
 2075 0134 00000000 		.4byte	.Lframe0
 2076 0138 900B0000 		.4byte	.LFB15
 2077 013c C8000000 		.4byte	.LFE15-.LFB15
 2078 0140 44       		.byte	0x4
 2079              		.4byte	.LCFI12-.LFB15
 2080 0141 0E       		.byte	0xe
 2081 0142 08       		.uleb128 0x8
 2082 0143 8E       		.byte	0x8e
 2083 0144 01       		.uleb128 0x1
 2084 0145 84       		.byte	0x84
 2085 0146 02       		.uleb128 0x2
 2086 0147 4C       		.byte	0x4
 2087              		.4byte	.LCFI13-.LCFI12
 2088 0148 0E       		.byte	0xe
 2089 0149 48       		.uleb128 0x48
 2090 014a 0000     		.align	2
 2091              	.LEFDE20:
 2092              	.LSFDE22:
 2093 014c 1C000000 		.4byte	.LEFDE22-.LASFDE22
ARM GAS  /cygdrive/c/DOCUME~1/mkwapisz/LOCALS~1/Temp/ccd1rULD.s 			page 53


 2094              	.LASFDE22:
 2095 0150 00000000 		.4byte	.Lframe0
 2096 0154 580C0000 		.4byte	.LFB14
 2097 0158 38020000 		.4byte	.LFE14-.LFB14
 2098 015c 44       		.byte	0x4
 2099              		.4byte	.LCFI14-.LFB14
 2100 015d 0E       		.byte	0xe
 2101 015e 10       		.uleb128 0x10
 2102 015f 8E       		.byte	0x8e
 2103 0160 01       		.uleb128 0x1
 2104 0161 86       		.byte	0x86
 2105 0162 02       		.uleb128 0x2
 2106 0163 85       		.byte	0x85
 2107 0164 03       		.uleb128 0x3
 2108 0165 84       		.byte	0x84
 2109 0166 04       		.uleb128 0x4
 2110 0167 50       		.byte	0x4
 2111              		.4byte	.LCFI15-.LCFI14
 2112 0168 0E       		.byte	0xe
 2113 0169 34       		.uleb128 0x34
 2114 016a 0000     		.align	2
 2115              	.LEFDE22:
 2116              		.file 2 "src/integer.h"
 2117              		.file 3 "src/pff.h"
 2118              		.file 4 "src/diskio.h"
 2119              		.text
 2120              	.Letext0:
 2121              		.section	.debug_loc,"",%progbits
 2122              	.Ldebug_loc0:
 2123              	.LLST1:
 2124 0000 00000000 		.4byte	.LVL0-.Ltext0
 2125 0004 10000000 		.4byte	.LVL2-.Ltext0
 2126 0008 0100     		.2byte	0x1
 2127 000a 50       		.byte	0x50
 2128 000b 10000000 		.4byte	.LVL2-.Ltext0
 2129 000f 2C000000 		.4byte	.LVL3-.Ltext0
 2130 0013 0100     		.2byte	0x1
 2131 0015 50       		.byte	0x50
 2132 0016 00000000 		.4byte	0x0
 2133 001a 00000000 		.4byte	0x0
 2134              	.LLST2:
 2135 001e 34000000 		.4byte	.LFB6-.Ltext0
 2136 0022 3C000000 		.4byte	.LCFI0-.Ltext0
 2137 0026 0100     		.2byte	0x1
 2138 0028 5D       		.byte	0x5d
 2139 0029 3C000000 		.4byte	.LCFI0-.Ltext0
 2140 002d BC000000 		.4byte	.LFE6-.Ltext0
 2141 0031 0200     		.2byte	0x2
 2142 0033 7D       		.byte	0x7d
 2143 0034 08       		.sleb128 8
 2144 0035 00000000 		.4byte	0x0
 2145 0039 00000000 		.4byte	0x0
 2146              	.LLST3:
 2147 003d 34000000 		.4byte	.LVL4-.Ltext0
 2148 0041 44000000 		.4byte	.LVL5-.Ltext0
 2149 0045 0100     		.2byte	0x1
 2150 0047 50       		.byte	0x50
ARM GAS  /cygdrive/c/DOCUME~1/mkwapisz/LOCALS~1/Temp/ccd1rULD.s 			page 54


 2151 0048 44000000 		.4byte	.LVL5-.Ltext0
 2152 004c BC000000 		.4byte	.LFE6-.Ltext0
 2153 0050 0100     		.2byte	0x1
 2154 0052 54       		.byte	0x54
 2155 0053 00000000 		.4byte	0x0
 2156 0057 00000000 		.4byte	0x0
 2157              	.LLST4:
 2158 005b 44000000 		.4byte	.LVL5-.Ltext0
 2159 005f 94000000 		.4byte	.LVL7-.Ltext0
 2160 0063 0100     		.2byte	0x1
 2161 0065 50       		.byte	0x50
 2162 0066 98000000 		.4byte	.LVL8-.Ltext0
 2163 006a 9C000000 		.4byte	.LVL9-.Ltext0
 2164 006e 0100     		.2byte	0x1
 2165 0070 50       		.byte	0x50
 2166 0071 A8000000 		.4byte	.LVL10-.Ltext0
 2167 0075 B0000000 		.4byte	.LVL11-.Ltext0
 2168 0079 0100     		.2byte	0x1
 2169 007b 50       		.byte	0x50
 2170 007c 00000000 		.4byte	0x0
 2171 0080 00000000 		.4byte	0x0
 2172              	.LLST5:
 2173 0084 48000000 		.4byte	.LVL6-.Ltext0
 2174 0088 94000000 		.4byte	.LVL7-.Ltext0
 2175 008c 0100     		.2byte	0x1
 2176 008e 52       		.byte	0x52
 2177 008f 98000000 		.4byte	.LVL8-.Ltext0
 2178 0093 BC000000 		.4byte	.LFE6-.Ltext0
 2179 0097 0100     		.2byte	0x1
 2180 0099 52       		.byte	0x52
 2181 009a 00000000 		.4byte	0x0
 2182 009e 00000000 		.4byte	0x0
 2183              	.LLST6:
 2184 00a2 BC000000 		.4byte	.LFB13-.Ltext0
 2185 00a6 C0000000 		.4byte	.LCFI1-.Ltext0
 2186 00aa 0100     		.2byte	0x1
 2187 00ac 5D       		.byte	0x5d
 2188 00ad C0000000 		.4byte	.LCFI1-.Ltext0
 2189 00b1 80010000 		.4byte	.LFE13-.Ltext0
 2190 00b5 0200     		.2byte	0x2
 2191 00b7 7D       		.byte	0x7d
 2192 00b8 10       		.sleb128 16
 2193 00b9 00000000 		.4byte	0x0
 2194 00bd 00000000 		.4byte	0x0
 2195              	.LLST7:
 2196 00c1 BC000000 		.4byte	.LVL12-.Ltext0
 2197 00c5 D4000000 		.4byte	.LVL13-.Ltext0
 2198 00c9 0100     		.2byte	0x1
 2199 00cb 50       		.byte	0x50
 2200 00cc D4000000 		.4byte	.LVL13-.Ltext0
 2201 00d0 80010000 		.4byte	.LFE13-.Ltext0
 2202 00d4 0100     		.2byte	0x1
 2203 00d6 54       		.byte	0x54
 2204 00d7 00000000 		.4byte	0x0
 2205 00db 00000000 		.4byte	0x0
 2206              	.LLST8:
 2207 00df BC000000 		.4byte	.LVL12-.Ltext0
ARM GAS  /cygdrive/c/DOCUME~1/mkwapisz/LOCALS~1/Temp/ccd1rULD.s 			page 55


 2208 00e3 D4000000 		.4byte	.LVL13-.Ltext0
 2209 00e7 0100     		.2byte	0x1
 2210 00e9 51       		.byte	0x51
 2211 00ea D4000000 		.4byte	.LVL13-.Ltext0
 2212 00ee 80010000 		.4byte	.LFE13-.Ltext0
 2213 00f2 0100     		.2byte	0x1
 2214 00f4 55       		.byte	0x55
 2215 00f5 00000000 		.4byte	0x0
 2216 00f9 00000000 		.4byte	0x0
 2217              	.LLST9:
 2218 00fd 80010000 		.4byte	.LFB4-.Ltext0
 2219 0101 84010000 		.4byte	.LCFI2-.Ltext0
 2220 0105 0100     		.2byte	0x1
 2221 0107 5D       		.byte	0x5d
 2222 0108 84010000 		.4byte	.LCFI2-.Ltext0
 2223 010c 90010000 		.4byte	.LCFI3-.Ltext0
 2224 0110 0200     		.2byte	0x2
 2225 0112 7D       		.byte	0x7d
 2226 0113 18       		.sleb128 24
 2227 0114 90010000 		.4byte	.LCFI3-.Ltext0
 2228 0118 FC020000 		.4byte	.LFE4-.Ltext0
 2229 011c 0200     		.2byte	0x2
 2230 011e 7D       		.byte	0x7d
 2231 011f 1C       		.sleb128 28
 2232 0120 00000000 		.4byte	0x0
 2233 0124 00000000 		.4byte	0x0
 2234              	.LLST10:
 2235 0128 80010000 		.4byte	.LVL14-.Ltext0
 2236 012c 9C010000 		.4byte	.LVL16-.Ltext0
 2237 0130 0100     		.2byte	0x1
 2238 0132 50       		.byte	0x50
 2239 0133 9C010000 		.4byte	.LVL16-.Ltext0
 2240 0137 A8010000 		.4byte	.LVL17-.Ltext0
 2241 013b 0100     		.2byte	0x1
 2242 013d 56       		.byte	0x56
 2243 013e A8010000 		.4byte	.LVL17-.Ltext0
 2244 0142 F8010000 		.4byte	.LVL20-.Ltext0
 2245 0146 0100     		.2byte	0x1
 2246 0148 50       		.byte	0x50
 2247 0149 F8010000 		.4byte	.LVL20-.Ltext0
 2248 014d 04020000 		.4byte	.LVL21-.Ltext0
 2249 0151 0100     		.2byte	0x1
 2250 0153 56       		.byte	0x56
 2251 0154 04020000 		.4byte	.LVL21-.Ltext0
 2252 0158 10020000 		.4byte	.LVL22-.Ltext0
 2253 015c 0100     		.2byte	0x1
 2254 015e 50       		.byte	0x50
 2255 015f 10020000 		.4byte	.LVL22-.Ltext0
 2256 0163 64020000 		.4byte	.LVL27-.Ltext0
 2257 0167 0100     		.2byte	0x1
 2258 0169 56       		.byte	0x56
 2259 016a 64020000 		.4byte	.LVL27-.Ltext0
 2260 016e 68020000 		.4byte	.LVL28-.Ltext0
 2261 0172 0100     		.2byte	0x1
 2262 0174 50       		.byte	0x50
 2263 0175 68020000 		.4byte	.LVL28-.Ltext0
 2264 0179 98020000 		.4byte	.LVL29-.Ltext0
ARM GAS  /cygdrive/c/DOCUME~1/mkwapisz/LOCALS~1/Temp/ccd1rULD.s 			page 56


 2265 017d 0100     		.2byte	0x1
 2266 017f 56       		.byte	0x56
 2267 0180 98020000 		.4byte	.LVL29-.Ltext0
 2268 0184 AC020000 		.4byte	.LVL30-.Ltext0
 2269 0188 0100     		.2byte	0x1
 2270 018a 50       		.byte	0x50
 2271 018b AC020000 		.4byte	.LVL30-.Ltext0
 2272 018f FC020000 		.4byte	.LFE4-.Ltext0
 2273 0193 0100     		.2byte	0x1
 2274 0195 56       		.byte	0x56
 2275 0196 00000000 		.4byte	0x0
 2276 019a 00000000 		.4byte	0x0
 2277              	.LLST11:
 2278 019e 54020000 		.4byte	.LVL26-.Ltext0
 2279 01a2 64020000 		.4byte	.LVL27-.Ltext0
 2280 01a6 0100     		.2byte	0x1
 2281 01a8 53       		.byte	0x53
 2282 01a9 E8020000 		.4byte	.LVL32-.Ltext0
 2283 01ad FC020000 		.4byte	.LFE4-.Ltext0
 2284 01b1 0100     		.2byte	0x1
 2285 01b3 53       		.byte	0x53
 2286 01b4 00000000 		.4byte	0x0
 2287 01b8 00000000 		.4byte	0x0
 2288              	.LLST12:
 2289 01bc E8010000 		.4byte	.LVL19-.Ltext0
 2290 01c0 64020000 		.4byte	.LVL27-.Ltext0
 2291 01c4 0100     		.2byte	0x1
 2292 01c6 54       		.byte	0x54
 2293 01c7 E4020000 		.4byte	.LVL31-.Ltext0
 2294 01cb FC020000 		.4byte	.LFE4-.Ltext0
 2295 01cf 0100     		.2byte	0x1
 2296 01d1 54       		.byte	0x54
 2297 01d2 00000000 		.4byte	0x0
 2298 01d6 00000000 		.4byte	0x0
 2299              	.LLST13:
 2300 01da D4010000 		.4byte	.LVL18-.Ltext0
 2301 01de 18020000 		.4byte	.LVL23-.Ltext0
 2302 01e2 0100     		.2byte	0x1
 2303 01e4 5C       		.byte	0x5c
 2304 01e5 34020000 		.4byte	.LVL24-.Ltext0
 2305 01e9 38020000 		.4byte	.LVL25-.Ltext0
 2306 01ed 0100     		.2byte	0x1
 2307 01ef 52       		.byte	0x52
 2308 01f0 00000000 		.4byte	0x0
 2309 01f4 00000000 		.4byte	0x0
 2310              	.LLST14:
 2311 01f8 FC020000 		.4byte	.LFB17-.Ltext0
 2312 01fc 04030000 		.4byte	.LCFI4-.Ltext0
 2313 0200 0100     		.2byte	0x1
 2314 0202 5D       		.byte	0x5d
 2315 0203 04030000 		.4byte	.LCFI4-.Ltext0
 2316 0207 44040000 		.4byte	.LFE17-.Ltext0
 2317 020b 0200     		.2byte	0x2
 2318 020d 7D       		.byte	0x7d
 2319 020e 18       		.sleb128 24
 2320 020f 00000000 		.4byte	0x0
 2321 0213 00000000 		.4byte	0x0
ARM GAS  /cygdrive/c/DOCUME~1/mkwapisz/LOCALS~1/Temp/ccd1rULD.s 			page 57


 2322              	.LLST15:
 2323 0217 FC020000 		.4byte	.LVL33-.Ltext0
 2324 021b 10030000 		.4byte	.LVL35-.Ltext0
 2325 021f 0100     		.2byte	0x1
 2326 0221 50       		.byte	0x50
 2327 0222 28030000 		.4byte	.LVL36-.Ltext0
 2328 0226 34030000 		.4byte	.LVL37-.Ltext0
 2329 022a 0100     		.2byte	0x1
 2330 022c 50       		.byte	0x50
 2331 022d 34030000 		.4byte	.LVL37-.Ltext0
 2332 0231 40030000 		.4byte	.LVL38-.Ltext0
 2333 0235 0100     		.2byte	0x1
 2334 0237 56       		.byte	0x56
 2335 0238 00000000 		.4byte	0x0
 2336 023c 00000000 		.4byte	0x0
 2337              	.LLST16:
 2338 0240 88030000 		.4byte	.LVL41-.Ltext0
 2339 0244 90030000 		.4byte	.LVL42-.Ltext0
 2340 0248 0100     		.2byte	0x1
 2341 024a 52       		.byte	0x52
 2342 024b 94030000 		.4byte	.LVL43-.Ltext0
 2343 024f 9C030000 		.4byte	.LVL44-.Ltext0
 2344 0253 0100     		.2byte	0x1
 2345 0255 52       		.byte	0x52
 2346 0256 9C030000 		.4byte	.LVL44-.Ltext0
 2347 025a A0030000 		.4byte	.LVL45-.Ltext0
 2348 025e 0100     		.2byte	0x1
 2349 0260 50       		.byte	0x50
 2350 0261 A0030000 		.4byte	.LVL46-.Ltext0
 2351 0265 A4030000 		.4byte	.LVL47-.Ltext0
 2352 0269 0100     		.2byte	0x1
 2353 026b 50       		.byte	0x50
 2354 026c A8030000 		.4byte	.LVL48-.Ltext0
 2355 0270 BC030000 		.4byte	.LVL49-.Ltext0
 2356 0274 0100     		.2byte	0x1
 2357 0276 52       		.byte	0x52
 2358 0277 BC030000 		.4byte	.LVL49-.Ltext0
 2359 027b C8030000 		.4byte	.LVL50-.Ltext0
 2360 027f 0100     		.2byte	0x1
 2361 0281 50       		.byte	0x50
 2362 0282 C8030000 		.4byte	.LVL50-.Ltext0
 2363 0286 D8030000 		.4byte	.LVL53-.Ltext0
 2364 028a 0100     		.2byte	0x1
 2365 028c 52       		.byte	0x52
 2366 028d D8030000 		.4byte	.LVL53-.Ltext0
 2367 0291 E8030000 		.4byte	.LVL54-.Ltext0
 2368 0295 0100     		.2byte	0x1
 2369 0297 50       		.byte	0x50
 2370 0298 24040000 		.4byte	.LVL56-.Ltext0
 2371 029c 34040000 		.4byte	.LVL57-.Ltext0
 2372 02a0 0100     		.2byte	0x1
 2373 02a2 52       		.byte	0x52
 2374 02a3 38040000 		.4byte	.LVL58-.Ltext0
 2375 02a7 44040000 		.4byte	.LFE17-.Ltext0
 2376 02ab 0100     		.2byte	0x1
 2377 02ad 52       		.byte	0x52
 2378 02ae 00000000 		.4byte	0x0
ARM GAS  /cygdrive/c/DOCUME~1/mkwapisz/LOCALS~1/Temp/ccd1rULD.s 			page 58


 2379 02b2 00000000 		.4byte	0x0
 2380              	.LLST17:
 2381 02b6 40030000 		.4byte	.LVL38-.Ltext0
 2382 02ba 64030000 		.4byte	.LVL40-.Ltext0
 2383 02be 0100     		.2byte	0x1
 2384 02c0 50       		.byte	0x50
 2385 02c1 90030000 		.4byte	.LVL42-.Ltext0
 2386 02c5 9C030000 		.4byte	.LVL44-.Ltext0
 2387 02c9 0100     		.2byte	0x1
 2388 02cb 50       		.byte	0x50
 2389 02cc CC030000 		.4byte	.LVL51-.Ltext0
 2390 02d0 D4030000 		.4byte	.LVL52-.Ltext0
 2391 02d4 0100     		.2byte	0x1
 2392 02d6 50       		.byte	0x50
 2393 02d7 34040000 		.4byte	.LVL57-.Ltext0
 2394 02db 38040000 		.4byte	.LVL58-.Ltext0
 2395 02df 0100     		.2byte	0x1
 2396 02e1 50       		.byte	0x50
 2397 02e2 00000000 		.4byte	0x0
 2398 02e6 00000000 		.4byte	0x0
 2399              	.LLST18:
 2400 02ea 44040000 		.4byte	.LFB16-.Ltext0
 2401 02ee 4C040000 		.4byte	.LCFI5-.Ltext0
 2402 02f2 0100     		.2byte	0x1
 2403 02f4 5D       		.byte	0x5d
 2404 02f5 4C040000 		.4byte	.LCFI5-.Ltext0
 2405 02f9 44060000 		.4byte	.LFE16-.Ltext0
 2406 02fd 0200     		.2byte	0x2
 2407 02ff 7D       		.byte	0x7d
 2408 0300 18       		.sleb128 24
 2409 0301 00000000 		.4byte	0x0
 2410 0305 00000000 		.4byte	0x0
 2411              	.LLST19:
 2412 0309 44040000 		.4byte	.LVL59-.Ltext0
 2413 030d 80040000 		.4byte	.LVL62-.Ltext0
 2414 0311 0100     		.2byte	0x1
 2415 0313 50       		.byte	0x50
 2416 0314 80040000 		.4byte	.LVL62-.Ltext0
 2417 0318 44060000 		.4byte	.LFE16-.Ltext0
 2418 031c 0100     		.2byte	0x1
 2419 031e 58       		.byte	0x58
 2420 031f 00000000 		.4byte	0x0
 2421 0323 00000000 		.4byte	0x0
 2422              	.LLST20:
 2423 0327 44040000 		.4byte	.LVL59-.Ltext0
 2424 032b 60040000 		.4byte	.LVL60-.Ltext0
 2425 032f 0100     		.2byte	0x1
 2426 0331 51       		.byte	0x51
 2427 0332 78040000 		.4byte	.LVL61-.Ltext0
 2428 0336 44060000 		.4byte	.LFE16-.Ltext0
 2429 033a 0100     		.2byte	0x1
 2430 033c 56       		.byte	0x56
 2431 033d 00000000 		.4byte	0x0
 2432 0341 00000000 		.4byte	0x0
 2433              	.LLST21:
 2434 0345 44040000 		.4byte	.LVL59-.Ltext0
 2435 0349 A0040000 		.4byte	.LVL63-.Ltext0
ARM GAS  /cygdrive/c/DOCUME~1/mkwapisz/LOCALS~1/Temp/ccd1rULD.s 			page 59


 2436 034d 0100     		.2byte	0x1
 2437 034f 52       		.byte	0x52
 2438 0350 A0040000 		.4byte	.LVL63-.Ltext0
 2439 0354 44060000 		.4byte	.LFE16-.Ltext0
 2440 0358 0100     		.2byte	0x1
 2441 035a 57       		.byte	0x57
 2442 035b 00000000 		.4byte	0x0
 2443 035f 00000000 		.4byte	0x0
 2444              	.LLST22:
 2445 0363 44060000 		.4byte	.LFB7-.Ltext0
 2446 0367 58060000 		.4byte	.LCFI6-.Ltext0
 2447 036b 0100     		.2byte	0x1
 2448 036d 5D       		.byte	0x5d
 2449 036e 58060000 		.4byte	.LCFI6-.Ltext0
 2450 0372 F8060000 		.4byte	.LFE7-.Ltext0
 2451 0376 0200     		.2byte	0x2
 2452 0378 7D       		.byte	0x7d
 2453 0379 10       		.sleb128 16
 2454 037a 00000000 		.4byte	0x0
 2455 037e 00000000 		.4byte	0x0
 2456              	.LLST23:
 2457 0382 44060000 		.4byte	.LVL65-.Ltext0
 2458 0386 68060000 		.4byte	.LVL68-.Ltext0
 2459 038a 0100     		.2byte	0x1
 2460 038c 50       		.byte	0x50
 2461 038d 68060000 		.4byte	.LVL68-.Ltext0
 2462 0391 74060000 		.4byte	.LVL69-.Ltext0
 2463 0395 0100     		.2byte	0x1
 2464 0397 54       		.byte	0x54
 2465 0398 74060000 		.4byte	.LVL69-.Ltext0
 2466 039c 80060000 		.4byte	.LVL70-.Ltext0
 2467 03a0 0100     		.2byte	0x1
 2468 03a2 50       		.byte	0x50
 2469 03a3 80060000 		.4byte	.LVL70-.Ltext0
 2470 03a7 F8060000 		.4byte	.LFE7-.Ltext0
 2471 03ab 0100     		.2byte	0x1
 2472 03ad 54       		.byte	0x54
 2473 03ae 00000000 		.4byte	0x0
 2474 03b2 00000000 		.4byte	0x0
 2475              	.LLST24:
 2476 03b6 B4060000 		.4byte	.LVL71-.Ltext0
 2477 03ba B8060000 		.4byte	.LVL72-.Ltext0
 2478 03be 0100     		.2byte	0x1
 2479 03c0 50       		.byte	0x50
 2480 03c1 BC060000 		.4byte	.LVL73-.Ltext0
 2481 03c5 D8060000 		.4byte	.LVL74-.Ltext0
 2482 03c9 0100     		.2byte	0x1
 2483 03cb 52       		.byte	0x52
 2484 03cc E8060000 		.4byte	.LVL76-.Ltext0
 2485 03d0 F8060000 		.4byte	.LFE7-.Ltext0
 2486 03d4 0100     		.2byte	0x1
 2487 03d6 52       		.byte	0x52
 2488 03d7 00000000 		.4byte	0x0
 2489 03db 00000000 		.4byte	0x0
 2490              	.LLST25:
 2491 03df F8060000 		.4byte	.LFB19-.Ltext0
 2492 03e3 FC060000 		.4byte	.LCFI7-.Ltext0
ARM GAS  /cygdrive/c/DOCUME~1/mkwapisz/LOCALS~1/Temp/ccd1rULD.s 			page 60


 2493 03e7 0100     		.2byte	0x1
 2494 03e9 5D       		.byte	0x5d
 2495 03ea FC060000 		.4byte	.LCFI7-.Ltext0
 2496 03ee 0C070000 		.4byte	.LCFI8-.Ltext0
 2497 03f2 0200     		.2byte	0x2
 2498 03f4 7D       		.byte	0x7d
 2499 03f5 10       		.sleb128 16
 2500 03f6 0C070000 		.4byte	.LCFI8-.Ltext0
 2501 03fa EC080000 		.4byte	.LFE19-.Ltext0
 2502 03fe 0200     		.2byte	0x2
 2503 0400 7D       		.byte	0x7d
 2504 0401 3C       		.sleb128 60
 2505 0402 00000000 		.4byte	0x0
 2506 0406 00000000 		.4byte	0x0
 2507              	.LLST26:
 2508 040a F8060000 		.4byte	.LVL77-.Ltext0
 2509 040e 1C070000 		.4byte	.LVL80-.Ltext0
 2510 0412 0100     		.2byte	0x1
 2511 0414 50       		.byte	0x50
 2512 0415 1C070000 		.4byte	.LVL80-.Ltext0
 2513 0419 38070000 		.4byte	.LVL82-.Ltext0
 2514 041d 0100     		.2byte	0x1
 2515 041f 55       		.byte	0x55
 2516 0420 38070000 		.4byte	.LVL82-.Ltext0
 2517 0424 3C070000 		.4byte	.LVL83-.Ltext0
 2518 0428 0100     		.2byte	0x1
 2519 042a 50       		.byte	0x50
 2520 042b 3C070000 		.4byte	.LVL83-.Ltext0
 2521 042f 68070000 		.4byte	.LVL88-.Ltext0
 2522 0433 0100     		.2byte	0x1
 2523 0435 55       		.byte	0x55
 2524 0436 68070000 		.4byte	.LVL88-.Ltext0
 2525 043a 90070000 		.4byte	.LVL91-.Ltext0
 2526 043e 0100     		.2byte	0x1
 2527 0440 50       		.byte	0x50
 2528 0441 90070000 		.4byte	.LVL91-.Ltext0
 2529 0445 CC070000 		.4byte	.LVL98-.Ltext0
 2530 0449 0100     		.2byte	0x1
 2531 044b 55       		.byte	0x55
 2532 044c CC070000 		.4byte	.LVL98-.Ltext0
 2533 0450 DC070000 		.4byte	.LVL100-.Ltext0
 2534 0454 0100     		.2byte	0x1
 2535 0456 50       		.byte	0x50
 2536 0457 DC070000 		.4byte	.LVL100-.Ltext0
 2537 045b C8080000 		.4byte	.LVL115-.Ltext0
 2538 045f 0100     		.2byte	0x1
 2539 0461 55       		.byte	0x55
 2540 0462 C8080000 		.4byte	.LVL115-.Ltext0
 2541 0466 D0080000 		.4byte	.LVL116-.Ltext0
 2542 046a 0100     		.2byte	0x1
 2543 046c 50       		.byte	0x50
 2544 046d D0080000 		.4byte	.LVL116-.Ltext0
 2545 0471 EC080000 		.4byte	.LFE19-.Ltext0
 2546 0475 0100     		.2byte	0x1
 2547 0477 55       		.byte	0x55
 2548 0478 00000000 		.4byte	0x0
 2549 047c 00000000 		.4byte	0x0
ARM GAS  /cygdrive/c/DOCUME~1/mkwapisz/LOCALS~1/Temp/ccd1rULD.s 			page 61


 2550              	.LLST27:
 2551 0480 F8060000 		.4byte	.LVL77-.Ltext0
 2552 0484 1C070000 		.4byte	.LVL80-.Ltext0
 2553 0488 0100     		.2byte	0x1
 2554 048a 51       		.byte	0x51
 2555 048b 1C070000 		.4byte	.LVL80-.Ltext0
 2556 048f 38070000 		.4byte	.LVL82-.Ltext0
 2557 0493 0100     		.2byte	0x1
 2558 0495 56       		.byte	0x56
 2559 0496 38070000 		.4byte	.LVL82-.Ltext0
 2560 049a 3C070000 		.4byte	.LVL83-.Ltext0
 2561 049e 0100     		.2byte	0x1
 2562 04a0 51       		.byte	0x51
 2563 04a1 3C070000 		.4byte	.LVL83-.Ltext0
 2564 04a5 EC080000 		.4byte	.LFE19-.Ltext0
 2565 04a9 0100     		.2byte	0x1
 2566 04ab 56       		.byte	0x56
 2567 04ac 00000000 		.4byte	0x0
 2568 04b0 00000000 		.4byte	0x0
 2569              	.LLST28:
 2570 04b4 18070000 		.4byte	.LVL79-.Ltext0
 2571 04b8 3C070000 		.4byte	.LVL83-.Ltext0
 2572 04bc 0100     		.2byte	0x1
 2573 04be 5C       		.byte	0x5c
 2574 04bf 40070000 		.4byte	.LVL84-.Ltext0
 2575 04c3 54070000 		.4byte	.LVL86-.Ltext0
 2576 04c7 0100     		.2byte	0x1
 2577 04c9 5C       		.byte	0x5c
 2578 04ca 5C070000 		.4byte	.LVL87-.Ltext0
 2579 04ce 90070000 		.4byte	.LVL91-.Ltext0
 2580 04d2 0100     		.2byte	0x1
 2581 04d4 5C       		.byte	0x5c
 2582 04d5 94070000 		.4byte	.LVL92-.Ltext0
 2583 04d9 D8070000 		.4byte	.LVL99-.Ltext0
 2584 04dd 0100     		.2byte	0x1
 2585 04df 5C       		.byte	0x5c
 2586 04e0 B4080000 		.4byte	.LVL112-.Ltext0
 2587 04e4 B8080000 		.4byte	.LVL113-.Ltext0
 2588 04e8 0100     		.2byte	0x1
 2589 04ea 50       		.byte	0x50
 2590 04eb BC080000 		.4byte	.LVL114-.Ltext0
 2591 04ef D4080000 		.4byte	.LVL117-.Ltext0
 2592 04f3 0100     		.2byte	0x1
 2593 04f5 5C       		.byte	0x5c
 2594 04f6 D8080000 		.4byte	.LVL118-.Ltext0
 2595 04fa EC080000 		.4byte	.LFE19-.Ltext0
 2596 04fe 0100     		.2byte	0x1
 2597 0500 5C       		.byte	0x5c
 2598 0501 00000000 		.4byte	0x0
 2599 0505 00000000 		.4byte	0x0
 2600              	.LLST29:
 2601 0509 04070000 		.4byte	.LVL78-.Ltext0
 2602 050d 3C070000 		.4byte	.LVL83-.Ltext0
 2603 0511 0100     		.2byte	0x1
 2604 0513 52       		.byte	0x52
 2605 0514 98070000 		.4byte	.LVL93-.Ltext0
 2606 0518 9C070000 		.4byte	.LVL94-.Ltext0
ARM GAS  /cygdrive/c/DOCUME~1/mkwapisz/LOCALS~1/Temp/ccd1rULD.s 			page 62


 2607 051c 0100     		.2byte	0x1
 2608 051e 52       		.byte	0x52
 2609 051f D8080000 		.4byte	.LVL118-.Ltext0
 2610 0523 EC080000 		.4byte	.LFE19-.Ltext0
 2611 0527 0100     		.2byte	0x1
 2612 0529 52       		.byte	0x52
 2613 052a 00000000 		.4byte	0x0
 2614 052e 00000000 		.4byte	0x0
 2615              	.LLST30:
 2616 0532 6C070000 		.4byte	.LVL89-.Ltext0
 2617 0536 80070000 		.4byte	.LVL90-.Ltext0
 2618 053a 0100     		.2byte	0x1
 2619 053c 53       		.byte	0x53
 2620 053d B4070000 		.4byte	.LVL96-.Ltext0
 2621 0541 B8070000 		.4byte	.LVL97-.Ltext0
 2622 0545 0100     		.2byte	0x1
 2623 0547 53       		.byte	0x53
 2624 0548 C8080000 		.4byte	.LVL115-.Ltext0
 2625 054c D0080000 		.4byte	.LVL116-.Ltext0
 2626 0550 0100     		.2byte	0x1
 2627 0552 53       		.byte	0x53
 2628 0553 00000000 		.4byte	0x0
 2629 0557 00000000 		.4byte	0x0
 2630              	.LLST31:
 2631 055b 30070000 		.4byte	.LVL81-.Ltext0
 2632 055f 44070000 		.4byte	.LVL85-.Ltext0
 2633 0563 0100     		.2byte	0x1
 2634 0565 54       		.byte	0x54
 2635 0566 44070000 		.4byte	.LVL85-.Ltext0
 2636 056a 54070000 		.4byte	.LVL86-.Ltext0
 2637 056e 0100     		.2byte	0x1
 2638 0570 50       		.byte	0x50
 2639 0571 54070000 		.4byte	.LVL86-.Ltext0
 2640 0575 AC070000 		.4byte	.LVL95-.Ltext0
 2641 0579 0100     		.2byte	0x1
 2642 057b 54       		.byte	0x54
 2643 057c AC070000 		.4byte	.LVL95-.Ltext0
 2644 0580 B4070000 		.4byte	.LVL96-.Ltext0
 2645 0584 0100     		.2byte	0x1
 2646 0586 50       		.byte	0x50
 2647 0587 B4070000 		.4byte	.LVL96-.Ltext0
 2648 058b A8080000 		.4byte	.LVL109-.Ltext0
 2649 058f 0100     		.2byte	0x1
 2650 0591 54       		.byte	0x54
 2651 0592 A8080000 		.4byte	.LVL109-.Ltext0
 2652 0596 B0080000 		.4byte	.LVL110-.Ltext0
 2653 059a 0100     		.2byte	0x1
 2654 059c 50       		.byte	0x50
 2655 059d C8080000 		.4byte	.LVL115-.Ltext0
 2656 05a1 D0080000 		.4byte	.LVL116-.Ltext0
 2657 05a5 0100     		.2byte	0x1
 2658 05a7 54       		.byte	0x54
 2659 05a8 D0080000 		.4byte	.LVL116-.Ltext0
 2660 05ac D8080000 		.4byte	.LVL118-.Ltext0
 2661 05b0 0100     		.2byte	0x1
 2662 05b2 50       		.byte	0x50
 2663 05b3 D8080000 		.4byte	.LVL118-.Ltext0
ARM GAS  /cygdrive/c/DOCUME~1/mkwapisz/LOCALS~1/Temp/ccd1rULD.s 			page 63


 2664 05b7 EC080000 		.4byte	.LFE19-.Ltext0
 2665 05bb 0100     		.2byte	0x1
 2666 05bd 54       		.byte	0x54
 2667 05be 00000000 		.4byte	0x0
 2668 05c2 00000000 		.4byte	0x0
 2669              	.LLST32:
 2670 05c6 F0070000 		.4byte	.LVL103-.Ltext0
 2671 05ca 1C080000 		.4byte	.LVL104-.Ltext0
 2672 05ce 0100     		.2byte	0x1
 2673 05d0 53       		.byte	0x53
 2674 05d1 38080000 		.4byte	.LVL105-.Ltext0
 2675 05d5 68080000 		.4byte	.LVL106-.Ltext0
 2676 05d9 0100     		.2byte	0x1
 2677 05db 52       		.byte	0x52
 2678 05dc 00000000 		.4byte	0x0
 2679 05e0 00000000 		.4byte	0x0
 2680              	.LLST33:
 2681 05e4 E8070000 		.4byte	.LVL101-.Ltext0
 2682 05e8 B0080000 		.4byte	.LVL110-.Ltext0
 2683 05ec 0100     		.2byte	0x1
 2684 05ee 50       		.byte	0x50
 2685 05ef 00000000 		.4byte	0x0
 2686 05f3 00000000 		.4byte	0x0
 2687              	.LLST34:
 2688 05f7 D8070000 		.4byte	.LVL99-.Ltext0
 2689 05fb EC070000 		.4byte	.LVL102-.Ltext0
 2690 05ff 0100     		.2byte	0x1
 2691 0601 5C       		.byte	0x5c
 2692 0602 EC070000 		.4byte	.LVL102-.Ltext0
 2693 0606 6C080000 		.4byte	.LVL107-.Ltext0
 2694 060a 0100     		.2byte	0x1
 2695 060c 51       		.byte	0x51
 2696 060d D4080000 		.4byte	.LVL117-.Ltext0
 2697 0611 D8080000 		.4byte	.LVL118-.Ltext0
 2698 0615 0100     		.2byte	0x1
 2699 0617 5C       		.byte	0x5c
 2700 0618 00000000 		.4byte	0x0
 2701 061c 00000000 		.4byte	0x0
 2702              	.LLST35:
 2703 0620 EC080000 		.4byte	.LFB12-.Ltext0
 2704 0624 F0080000 		.4byte	.LCFI9-.Ltext0
 2705 0628 0100     		.2byte	0x1
 2706 062a 5D       		.byte	0x5d
 2707 062b F0080000 		.4byte	.LCFI9-.Ltext0
 2708 062f F40A0000 		.4byte	.LFE12-.Ltext0
 2709 0633 0200     		.2byte	0x2
 2710 0635 7D       		.byte	0x7d
 2711 0636 14       		.sleb128 20
 2712 0637 00000000 		.4byte	0x0
 2713 063b 00000000 		.4byte	0x0
 2714              	.LLST36:
 2715 063f EC080000 		.4byte	.LVL119-.Ltext0
 2716 0643 FC080000 		.4byte	.LVL120-.Ltext0
 2717 0647 0100     		.2byte	0x1
 2718 0649 50       		.byte	0x50
 2719 064a FC080000 		.4byte	.LVL120-.Ltext0
 2720 064e F40A0000 		.4byte	.LFE12-.Ltext0
ARM GAS  /cygdrive/c/DOCUME~1/mkwapisz/LOCALS~1/Temp/ccd1rULD.s 			page 64


 2721 0652 0100     		.2byte	0x1
 2722 0654 55       		.byte	0x55
 2723 0655 00000000 		.4byte	0x0
 2724 0659 00000000 		.4byte	0x0
 2725              	.LLST37:
 2726 065d EC080000 		.4byte	.LVL119-.Ltext0
 2727 0661 FC080000 		.4byte	.LVL120-.Ltext0
 2728 0665 0100     		.2byte	0x1
 2729 0667 51       		.byte	0x51
 2730 0668 FC080000 		.4byte	.LVL120-.Ltext0
 2731 066c F40A0000 		.4byte	.LFE12-.Ltext0
 2732 0670 0100     		.2byte	0x1
 2733 0672 56       		.byte	0x56
 2734 0673 00000000 		.4byte	0x0
 2735 0677 00000000 		.4byte	0x0
 2736              	.LLST38:
 2737 067b E4090000 		.4byte	.LVL128-.Ltext0
 2738 067f 040A0000 		.4byte	.LVL130-.Ltext0
 2739 0683 0100     		.2byte	0x1
 2740 0685 50       		.byte	0x50
 2741 0686 180A0000 		.4byte	.LVL131-.Ltext0
 2742 068a 780A0000 		.4byte	.LVL132-.Ltext0
 2743 068e 0100     		.2byte	0x1
 2744 0690 50       		.byte	0x50
 2745 0691 800A0000 		.4byte	.LVL133-.Ltext0
 2746 0695 C40A0000 		.4byte	.LVL135-.Ltext0
 2747 0699 0100     		.2byte	0x1
 2748 069b 50       		.byte	0x50
 2749 069c E40A0000 		.4byte	.LVL137-.Ltext0
 2750 06a0 E80A0000 		.4byte	.LVL138-.Ltext0
 2751 06a4 0100     		.2byte	0x1
 2752 06a6 50       		.byte	0x50
 2753 06a7 00000000 		.4byte	0x0
 2754 06ab 00000000 		.4byte	0x0
 2755              	.LLST39:
 2756 06af B00A0000 		.4byte	.LVL134-.Ltext0
 2757 06b3 CC0A0000 		.4byte	.LVL136-.Ltext0
 2758 06b7 0100     		.2byte	0x1
 2759 06b9 51       		.byte	0x51
 2760 06ba E40A0000 		.4byte	.LVL137-.Ltext0
 2761 06be F40A0000 		.4byte	.LFE12-.Ltext0
 2762 06c2 0100     		.2byte	0x1
 2763 06c4 51       		.byte	0x51
 2764 06c5 00000000 		.4byte	0x0
 2765 06c9 00000000 		.4byte	0x0
 2766              	.LLST40:
 2767 06cd 6C090000 		.4byte	.LVL125-.Ltext0
 2768 06d1 E0090000 		.4byte	.LVL127-.Ltext0
 2769 06d5 0100     		.2byte	0x1
 2770 06d7 52       		.byte	0x52
 2771 06d8 00000000 		.4byte	0x0
 2772 06dc 00000000 		.4byte	0x0
 2773              	.LLST41:
 2774 06e0 68090000 		.4byte	.LVL123-.Ltext0
 2775 06e4 E0090000 		.4byte	.LVL127-.Ltext0
 2776 06e8 0100     		.2byte	0x1
 2777 06ea 5E       		.byte	0x5e
ARM GAS  /cygdrive/c/DOCUME~1/mkwapisz/LOCALS~1/Temp/ccd1rULD.s 			page 65


 2778 06eb 00000000 		.4byte	0x0
 2779 06ef 00000000 		.4byte	0x0
 2780              	.LLST42:
 2781 06f3 44090000 		.4byte	.LVL121-.Ltext0
 2782 06f7 6C090000 		.4byte	.LVL124-.Ltext0
 2783 06fb 0100     		.2byte	0x1
 2784 06fd 57       		.byte	0x57
 2785 06fe 6C090000 		.4byte	.LVL124-.Ltext0
 2786 0702 E0090000 		.4byte	.LVL127-.Ltext0
 2787 0706 0100     		.2byte	0x1
 2788 0708 51       		.byte	0x51
 2789 0709 00000000 		.4byte	0x0
 2790 070d 00000000 		.4byte	0x0
 2791              	.LLST43:
 2792 0711 48090000 		.4byte	.LVL122-.Ltext0
 2793 0715 E0090000 		.4byte	.LVL127-.Ltext0
 2794 0719 0100     		.2byte	0x1
 2795 071b 5C       		.byte	0x5c
 2796 071c 00000000 		.4byte	0x0
 2797 0720 00000000 		.4byte	0x0
 2798              	.LLST44:
 2799 0724 44090000 		.4byte	.LVL121-.Ltext0
 2800 0728 80090000 		.4byte	.LVL126-.Ltext0
 2801 072c 0100     		.2byte	0x1
 2802 072e 54       		.byte	0x54
 2803 072f F4090000 		.4byte	.LVL129-.Ltext0
 2804 0733 F40A0000 		.4byte	.LFE12-.Ltext0
 2805 0737 0100     		.2byte	0x1
 2806 0739 54       		.byte	0x54
 2807 073a 00000000 		.4byte	0x0
 2808 073e 00000000 		.4byte	0x0
 2809              	.LLST45:
 2810 0742 F40A0000 		.4byte	.LFB18-.Ltext0
 2811 0746 F80A0000 		.4byte	.LCFI10-.Ltext0
 2812 074a 0100     		.2byte	0x1
 2813 074c 5D       		.byte	0x5d
 2814 074d F80A0000 		.4byte	.LCFI10-.Ltext0
 2815 0751 080B0000 		.4byte	.LCFI11-.Ltext0
 2816 0755 0200     		.2byte	0x2
 2817 0757 7D       		.byte	0x7d
 2818 0758 08       		.sleb128 8
 2819 0759 080B0000 		.4byte	.LCFI11-.Ltext0
 2820 075d 900B0000 		.4byte	.LFE18-.Ltext0
 2821 0761 0200     		.2byte	0x2
 2822 0763 7D       		.byte	0x7d
 2823 0764 34       		.sleb128 52
 2824 0765 00000000 		.4byte	0x0
 2825 0769 00000000 		.4byte	0x0
 2826              	.LLST46:
 2827 076d F40A0000 		.4byte	.LVL139-.Ltext0
 2828 0771 140B0000 		.4byte	.LVL142-.Ltext0
 2829 0775 0100     		.2byte	0x1
 2830 0777 50       		.byte	0x50
 2831 0778 140B0000 		.4byte	.LVL142-.Ltext0
 2832 077c 3C0B0000 		.4byte	.LVL147-.Ltext0
 2833 0780 0100     		.2byte	0x1
 2834 0782 54       		.byte	0x54
ARM GAS  /cygdrive/c/DOCUME~1/mkwapisz/LOCALS~1/Temp/ccd1rULD.s 			page 66


 2835 0783 3C0B0000 		.4byte	.LVL147-.Ltext0
 2836 0787 6C0B0000 		.4byte	.LVL148-.Ltext0
 2837 078b 0100     		.2byte	0x1
 2838 078d 50       		.byte	0x50
 2839 078e 6C0B0000 		.4byte	.LVL148-.Ltext0
 2840 0792 900B0000 		.4byte	.LFE18-.Ltext0
 2841 0796 0100     		.2byte	0x1
 2842 0798 54       		.byte	0x54
 2843 0799 00000000 		.4byte	0x0
 2844 079d 00000000 		.4byte	0x0
 2845              	.LLST47:
 2846 07a1 F40A0000 		.4byte	.LVL139-.Ltext0
 2847 07a5 240B0000 		.4byte	.LVL144-.Ltext0
 2848 07a9 0100     		.2byte	0x1
 2849 07ab 51       		.byte	0x51
 2850 07ac 7C0B0000 		.4byte	.LVL151-.Ltext0
 2851 07b0 900B0000 		.4byte	.LFE18-.Ltext0
 2852 07b4 0100     		.2byte	0x1
 2853 07b6 51       		.byte	0x51
 2854 07b7 00000000 		.4byte	0x0
 2855 07bb 00000000 		.4byte	0x0
 2856              	.LLST48:
 2857 07bf 0C0B0000 		.4byte	.LVL141-.Ltext0
 2858 07c3 180B0000 		.4byte	.LVL143-.Ltext0
 2859 07c7 0100     		.2byte	0x1
 2860 07c9 53       		.byte	0x53
 2861 07ca 280B0000 		.4byte	.LVL145-.Ltext0
 2862 07ce 300B0000 		.4byte	.LVL146-.Ltext0
 2863 07d2 0100     		.2byte	0x1
 2864 07d4 53       		.byte	0x53
 2865 07d5 700B0000 		.4byte	.LVL149-.Ltext0
 2866 07d9 900B0000 		.4byte	.LFE18-.Ltext0
 2867 07dd 0100     		.2byte	0x1
 2868 07df 53       		.byte	0x53
 2869 07e0 00000000 		.4byte	0x0
 2870 07e4 00000000 		.4byte	0x0
 2871              	.LLST49:
 2872 07e8 000B0000 		.4byte	.LVL140-.Ltext0
 2873 07ec 240B0000 		.4byte	.LVL144-.Ltext0
 2874 07f0 0100     		.2byte	0x1
 2875 07f2 52       		.byte	0x52
 2876 07f3 7C0B0000 		.4byte	.LVL151-.Ltext0
 2877 07f7 900B0000 		.4byte	.LFE18-.Ltext0
 2878 07fb 0100     		.2byte	0x1
 2879 07fd 52       		.byte	0x52
 2880 07fe 00000000 		.4byte	0x0
 2881 0802 00000000 		.4byte	0x0
 2882              	.LLST50:
 2883 0806 900B0000 		.4byte	.LFB15-.Ltext0
 2884 080a 940B0000 		.4byte	.LCFI12-.Ltext0
 2885 080e 0100     		.2byte	0x1
 2886 0810 5D       		.byte	0x5d
 2887 0811 940B0000 		.4byte	.LCFI12-.Ltext0
 2888 0815 A00B0000 		.4byte	.LCFI13-.Ltext0
 2889 0819 0200     		.2byte	0x2
 2890 081b 7D       		.byte	0x7d
 2891 081c 08       		.sleb128 8
ARM GAS  /cygdrive/c/DOCUME~1/mkwapisz/LOCALS~1/Temp/ccd1rULD.s 			page 67


 2892 081d A00B0000 		.4byte	.LCFI13-.Ltext0
 2893 0821 580C0000 		.4byte	.LFE15-.Ltext0
 2894 0825 0300     		.2byte	0x3
 2895 0827 7D       		.byte	0x7d
 2896 0828 C800     		.sleb128 72
 2897 082a 00000000 		.4byte	0x0
 2898 082e 00000000 		.4byte	0x0
 2899              	.LLST51:
 2900 0832 900B0000 		.4byte	.LVL152-.Ltext0
 2901 0836 B00B0000 		.4byte	.LVL155-.Ltext0
 2902 083a 0100     		.2byte	0x1
 2903 083c 50       		.byte	0x50
 2904 083d B00B0000 		.4byte	.LVL155-.Ltext0
 2905 0841 CC0B0000 		.4byte	.LVL156-.Ltext0
 2906 0845 0100     		.2byte	0x1
 2907 0847 51       		.byte	0x51
 2908 0848 440C0000 		.4byte	.LVL158-.Ltext0
 2909 084c 580C0000 		.4byte	.LFE15-.Ltext0
 2910 0850 0100     		.2byte	0x1
 2911 0852 51       		.byte	0x51
 2912 0853 00000000 		.4byte	0x0
 2913 0857 00000000 		.4byte	0x0
 2914              	.LLST52:
 2915 085b AC0B0000 		.4byte	.LVL154-.Ltext0
 2916 085f CC0B0000 		.4byte	.LVL156-.Ltext0
 2917 0863 0100     		.2byte	0x1
 2918 0865 5C       		.byte	0x5c
 2919 0866 D00B0000 		.4byte	.LVL157-.Ltext0
 2920 086a 580C0000 		.4byte	.LFE15-.Ltext0
 2921 086e 0100     		.2byte	0x1
 2922 0870 5C       		.byte	0x5c
 2923 0871 00000000 		.4byte	0x0
 2924 0875 00000000 		.4byte	0x0
 2925              	.LLST53:
 2926 0879 580C0000 		.4byte	.LFB14-.Ltext0
 2927 087d 5C0C0000 		.4byte	.LCFI14-.Ltext0
 2928 0881 0100     		.2byte	0x1
 2929 0883 5D       		.byte	0x5d
 2930 0884 5C0C0000 		.4byte	.LCFI14-.Ltext0
 2931 0888 6C0C0000 		.4byte	.LCFI15-.Ltext0
 2932 088c 0200     		.2byte	0x2
 2933 088e 7D       		.byte	0x7d
 2934 088f 10       		.sleb128 16
 2935 0890 6C0C0000 		.4byte	.LCFI15-.Ltext0
 2936 0894 900E0000 		.4byte	.LFE14-.Ltext0
 2937 0898 0200     		.2byte	0x2
 2938 089a 7D       		.byte	0x7d
 2939 089b 34       		.sleb128 52
 2940 089c 00000000 		.4byte	0x0
 2941 08a0 00000000 		.4byte	0x0
 2942              	.LLST54:
 2943 08a4 580C0000 		.4byte	.LVL159-.Ltext0
 2944 08a8 740C0000 		.4byte	.LVL160-.Ltext0
 2945 08ac 0100     		.2byte	0x1
 2946 08ae 50       		.byte	0x50
 2947 08af 740C0000 		.4byte	.LVL160-.Ltext0
 2948 08b3 900E0000 		.4byte	.LFE14-.Ltext0
ARM GAS  /cygdrive/c/DOCUME~1/mkwapisz/LOCALS~1/Temp/ccd1rULD.s 			page 68


 2949 08b7 0100     		.2byte	0x1
 2950 08b9 55       		.byte	0x55
 2951 08ba 00000000 		.4byte	0x0
 2952 08be 00000000 		.4byte	0x0
 2953              	.LLST55:
 2954 08c2 940C0000 		.4byte	.LVL161-.Ltext0
 2955 08c6 A80C0000 		.4byte	.LVL162-.Ltext0
 2956 08ca 0100     		.2byte	0x1
 2957 08cc 50       		.byte	0x50
 2958 08cd F40C0000 		.4byte	.LVL164-.Ltext0
 2959 08d1 080D0000 		.4byte	.LVL165-.Ltext0
 2960 08d5 0100     		.2byte	0x1
 2961 08d7 50       		.byte	0x50
 2962 08d8 E80D0000 		.4byte	.LVL173-.Ltext0
 2963 08dc 0C0E0000 		.4byte	.LVL174-.Ltext0
 2964 08e0 0100     		.2byte	0x1
 2965 08e2 52       		.byte	0x52
 2966 08e3 380E0000 		.4byte	.LVL176-.Ltext0
 2967 08e7 3C0E0000 		.4byte	.LVL177-.Ltext0
 2968 08eb 0100     		.2byte	0x1
 2969 08ed 50       		.byte	0x50
 2970 08ee 400E0000 		.4byte	.LVL178-.Ltext0
 2971 08f2 440E0000 		.4byte	.LVL179-.Ltext0
 2972 08f6 0100     		.2byte	0x1
 2973 08f8 50       		.byte	0x50
 2974 08f9 480E0000 		.4byte	.LVL180-.Ltext0
 2975 08fd 580E0000 		.4byte	.LVL181-.Ltext0
 2976 0901 0100     		.2byte	0x1
 2977 0903 52       		.byte	0x52
 2978 0904 00000000 		.4byte	0x0
 2979 0908 00000000 		.4byte	0x0
 2980              	.LLST56:
 2981 090c E80C0000 		.4byte	.LVL163-.Ltext0
 2982 0910 7C0D0000 		.4byte	.LVL167-.Ltext0
 2983 0914 0100     		.2byte	0x1
 2984 0916 54       		.byte	0x54
 2985 0917 380E0000 		.4byte	.LVL176-.Ltext0
 2986 091b 480E0000 		.4byte	.LVL180-.Ltext0
 2987 091f 0100     		.2byte	0x1
 2988 0921 54       		.byte	0x54
 2989 0922 740E0000 		.4byte	.LVL182-.Ltext0
 2990 0926 900E0000 		.4byte	.LFE14-.Ltext0
 2991 092a 0100     		.2byte	0x1
 2992 092c 54       		.byte	0x54
 2993 092d 00000000 		.4byte	0x0
 2994 0931 00000000 		.4byte	0x0
 2995              	.LLST57:
 2996 0935 4C0D0000 		.4byte	.LVL166-.Ltext0
 2997 0939 7C0D0000 		.4byte	.LVL167-.Ltext0
 2998 093d 0100     		.2byte	0x1
 2999 093f 5C       		.byte	0x5c
 3000 0940 7C0D0000 		.4byte	.LVL167-.Ltext0
 3001 0944 D40D0000 		.4byte	.LVL171-.Ltext0
 3002 0948 0100     		.2byte	0x1
 3003 094a 54       		.byte	0x54
 3004 094b 480E0000 		.4byte	.LVL180-.Ltext0
 3005 094f 900E0000 		.4byte	.LFE14-.Ltext0
ARM GAS  /cygdrive/c/DOCUME~1/mkwapisz/LOCALS~1/Temp/ccd1rULD.s 			page 69


 3006 0953 0100     		.2byte	0x1
 3007 0955 54       		.byte	0x54
 3008 0956 00000000 		.4byte	0x0
 3009 095a 00000000 		.4byte	0x0
 3010              	.LLST58:
 3011 095e B00D0000 		.4byte	.LVL168-.Ltext0
 3012 0962 B00D0000 		.4byte	.LVL169-.Ltext0
 3013 0966 0100     		.2byte	0x1
 3014 0968 52       		.byte	0x52
 3015 0969 B40D0000 		.4byte	.LVL170-.Ltext0
 3016 096d D40D0000 		.4byte	.LVL171-.Ltext0
 3017 0971 0100     		.2byte	0x1
 3018 0973 52       		.byte	0x52
 3019 0974 00000000 		.4byte	0x0
 3020 0978 00000000 		.4byte	0x0
 3021              	.LLST59:
 3022 097c DC0D0000 		.4byte	.LVL172-.Ltext0
 3023 0980 2C0E0000 		.4byte	.LVL175-.Ltext0
 3024 0984 0100     		.2byte	0x1
 3025 0986 50       		.byte	0x50
 3026 0987 480E0000 		.4byte	.LVL180-.Ltext0
 3027 098b 740E0000 		.4byte	.LVL182-.Ltext0
 3028 098f 0100     		.2byte	0x1
 3029 0991 50       		.byte	0x50
 3030 0992 00000000 		.4byte	0x0
 3031 0996 00000000 		.4byte	0x0
 3032              		.section	.debug_info
 3033 0000 8A0B0000 		.4byte	0xb8a
 3034 0004 0200     		.2byte	0x2
 3035 0006 00000000 		.4byte	.Ldebug_abbrev0
 3036 000a 04       		.byte	0x4
 3037 000b 01       		.uleb128 0x1
 3038 000c 00000000 		.4byte	.Ldebug_line0
 3039 0010 900E0000 		.4byte	.Letext0
 3040 0014 00000000 		.4byte	.Ltext0
 3041 0018 E6000000 		.4byte	.LASF83
 3042 001c 01       		.byte	0x1
 3043 001d 04030000 		.4byte	.LASF84
 3044 0021 7D020000 		.4byte	.LASF85
 3045 0025 02       		.uleb128 0x2
 3046 0026 696E7400 		.ascii	"int\000"
 3047 002a 04       		.byte	0x4
 3048 002b 05       		.byte	0x5
 3049 002c 03       		.uleb128 0x3
 3050 002d 93010000 		.4byte	.LASF0
 3051 0031 04       		.byte	0x4
 3052 0032 07       		.byte	0x7
 3053 0033 03       		.uleb128 0x3
 3054 0034 7B010000 		.4byte	.LASF1
 3055 0038 01       		.byte	0x1
 3056 0039 06       		.byte	0x6
 3057 003a 03       		.uleb128 0x3
 3058 003b 67010000 		.4byte	.LASF2
 3059 003f 01       		.byte	0x1
 3060 0040 08       		.byte	0x8
 3061 0041 04       		.uleb128 0x4
 3062 0042 9B000000 		.4byte	.LASF5
ARM GAS  /cygdrive/c/DOCUME~1/mkwapisz/LOCALS~1/Temp/ccd1rULD.s 			page 70


 3063 0046 02       		.byte	0x2
 3064 0047 15       		.byte	0x15
 3065 0048 3A000000 		.4byte	0x3a
 3066 004c 03       		.uleb128 0x3
 3067 004d 43000000 		.4byte	.LASF3
 3068 0051 02       		.byte	0x2
 3069 0052 05       		.byte	0x5
 3070 0053 03       		.uleb128 0x3
 3071 0054 DA010000 		.4byte	.LASF4
 3072 0058 02       		.byte	0x2
 3073 0059 07       		.byte	0x7
 3074 005a 04       		.uleb128 0x4
 3075 005b C0000000 		.4byte	.LASF6
 3076 005f 02       		.byte	0x2
 3077 0060 1A       		.byte	0x1a
 3078 0061 53000000 		.4byte	0x53
 3079 0065 03       		.uleb128 0x3
 3080 0066 02020000 		.4byte	.LASF7
 3081 006a 04       		.byte	0x4
 3082 006b 05       		.byte	0x5
 3083 006c 03       		.uleb128 0x3
 3084 006d 3C020000 		.4byte	.LASF8
 3085 0071 04       		.byte	0x4
 3086 0072 07       		.byte	0x7
 3087 0073 04       		.uleb128 0x4
 3088 0074 4D010000 		.4byte	.LASF9
 3089 0078 02       		.byte	0x2
 3090 0079 20       		.byte	0x20
 3091 007a 6C000000 		.4byte	0x6c
 3092 007e 05       		.uleb128 0x5
 3093 007f 5D010000 		.4byte	0x15d
 3094 0083 30000000 		.4byte	.LASF25
 3095 0087 30       		.byte	0x30
 3096 0088 03       		.byte	0x3
 3097 0089 4B       		.byte	0x4b
 3098 008a 06       		.uleb128 0x6
 3099 008b 28000000 		.4byte	.LASF10
 3100 008f 03       		.byte	0x3
 3101 0090 4C       		.byte	0x4c
 3102 0091 41000000 		.4byte	0x41
 3103 0095 02       		.byte	0x2
 3104 0096 23       		.byte	0x23
 3105 0097 00       		.uleb128 0x0
 3106 0098 06       		.uleb128 0x6
 3107 0099 23010000 		.4byte	.LASF11
 3108 009d 03       		.byte	0x3
 3109 009e 4D       		.byte	0x4d
 3110 009f 41000000 		.4byte	0x41
 3111 00a3 02       		.byte	0x2
 3112 00a4 23       		.byte	0x23
 3113 00a5 01       		.uleb128 0x1
 3114 00a6 06       		.uleb128 0x6
 3115 00a7 07010000 		.4byte	.LASF12
 3116 00ab 03       		.byte	0x3
 3117 00ac 4E       		.byte	0x4e
 3118 00ad 41000000 		.4byte	0x41
 3119 00b1 02       		.byte	0x2
ARM GAS  /cygdrive/c/DOCUME~1/mkwapisz/LOCALS~1/Temp/ccd1rULD.s 			page 71


 3120 00b2 23       		.byte	0x23
 3121 00b3 02       		.uleb128 0x2
 3122 00b4 06       		.uleb128 0x6
 3123 00b5 54020000 		.4byte	.LASF13
 3124 00b9 03       		.byte	0x3
 3125 00ba 4F       		.byte	0x4f
 3126 00bb 41000000 		.4byte	0x41
 3127 00bf 02       		.byte	0x2
 3128 00c0 23       		.byte	0x23
 3129 00c1 03       		.uleb128 0x3
 3130 00c2 06       		.uleb128 0x6
 3131 00c3 A5000000 		.4byte	.LASF14
 3132 00c7 03       		.byte	0x3
 3133 00c8 50       		.byte	0x50
 3134 00c9 5A000000 		.4byte	0x5a
 3135 00cd 02       		.byte	0x2
 3136 00ce 23       		.byte	0x23
 3137 00cf 04       		.uleb128 0x4
 3138 00d0 07       		.uleb128 0x7
 3139 00d1 62756600 		.ascii	"buf\000"
 3140 00d5 03       		.byte	0x3
 3141 00d6 51       		.byte	0x51
 3142 00d7 5D010000 		.4byte	0x15d
 3143 00db 02       		.byte	0x2
 3144 00dc 23       		.byte	0x23
 3145 00dd 08       		.uleb128 0x8
 3146 00de 06       		.uleb128 0x6
 3147 00df 72000000 		.4byte	.LASF15
 3148 00e3 03       		.byte	0x3
 3149 00e4 52       		.byte	0x52
 3150 00e5 73000000 		.4byte	0x73
 3151 00e9 02       		.byte	0x2
 3152 00ea 23       		.byte	0x23
 3153 00eb 0C       		.uleb128 0xc
 3154 00ec 06       		.uleb128 0x6
 3155 00ed FA010000 		.4byte	.LASF16
 3156 00f1 03       		.byte	0x3
 3157 00f2 53       		.byte	0x53
 3158 00f3 73000000 		.4byte	0x73
 3159 00f7 02       		.byte	0x2
 3160 00f8 23       		.byte	0x23
 3161 00f9 10       		.uleb128 0x10
 3162 00fa 06       		.uleb128 0x6
 3163 00fb 29010000 		.4byte	.LASF17
 3164 00ff 03       		.byte	0x3
 3165 0100 54       		.byte	0x54
 3166 0101 73000000 		.4byte	0x73
 3167 0105 02       		.byte	0x2
 3168 0106 23       		.byte	0x23
 3169 0107 14       		.uleb128 0x14
 3170 0108 06       		.uleb128 0x6
 3171 0109 92000000 		.4byte	.LASF18
 3172 010d 03       		.byte	0x3
 3173 010e 55       		.byte	0x55
 3174 010f 73000000 		.4byte	0x73
 3175 0113 02       		.byte	0x2
 3176 0114 23       		.byte	0x23
ARM GAS  /cygdrive/c/DOCUME~1/mkwapisz/LOCALS~1/Temp/ccd1rULD.s 			page 72


 3177 0115 18       		.uleb128 0x18
 3178 0116 06       		.uleb128 0x6
 3179 0117 A8010000 		.4byte	.LASF19
 3180 011b 03       		.byte	0x3
 3181 011c 56       		.byte	0x56
 3182 011d 73000000 		.4byte	0x73
 3183 0121 02       		.byte	0x2
 3184 0122 23       		.byte	0x23
 3185 0123 1C       		.uleb128 0x1c
 3186 0124 06       		.uleb128 0x6
 3187 0125 77020000 		.4byte	.LASF20
 3188 0129 03       		.byte	0x3
 3189 012a 57       		.byte	0x57
 3190 012b 73000000 		.4byte	0x73
 3191 012f 02       		.byte	0x2
 3192 0130 23       		.byte	0x23
 3193 0131 20       		.uleb128 0x20
 3194 0132 06       		.uleb128 0x6
 3195 0133 FD000000 		.4byte	.LASF21
 3196 0137 03       		.byte	0x3
 3197 0138 58       		.byte	0x58
 3198 0139 73000000 		.4byte	0x73
 3199 013d 02       		.byte	0x2
 3200 013e 23       		.byte	0x23
 3201 013f 24       		.uleb128 0x24
 3202 0140 06       		.uleb128 0x6
 3203 0141 CA020000 		.4byte	.LASF22
 3204 0145 03       		.byte	0x3
 3205 0146 59       		.byte	0x59
 3206 0147 73000000 		.4byte	0x73
 3207 014b 02       		.byte	0x2
 3208 014c 23       		.byte	0x23
 3209 014d 28       		.uleb128 0x28
 3210 014e 06       		.uleb128 0x6
 3211 014f 63000000 		.4byte	.LASF23
 3212 0153 03       		.byte	0x3
 3213 0154 5A       		.byte	0x5a
 3214 0155 73000000 		.4byte	0x73
 3215 0159 02       		.byte	0x2
 3216 015a 23       		.byte	0x23
 3217 015b 2C       		.uleb128 0x2c
 3218 015c 00       		.byte	0x0
 3219 015d 08       		.uleb128 0x8
 3220 015e 04       		.byte	0x4
 3221 015f 41000000 		.4byte	0x41
 3222 0163 04       		.uleb128 0x4
 3223 0164 36020000 		.4byte	.LASF24
 3224 0168 03       		.byte	0x3
 3225 0169 5B       		.byte	0x5b
 3226 016a 7E000000 		.4byte	0x7e
 3227 016e 05       		.uleb128 0x5
 3228 016f C0010000 		.4byte	0x1c0
 3229 0173 71020000 		.4byte	.LASF26
 3230 0177 14       		.byte	0x14
 3231 0178 03       		.byte	0x3
 3232 0179 61       		.byte	0x61
 3233 017a 06       		.uleb128 0x6
ARM GAS  /cygdrive/c/DOCUME~1/mkwapisz/LOCALS~1/Temp/ccd1rULD.s 			page 73


 3234 017b C5000000 		.4byte	.LASF27
 3235 017f 03       		.byte	0x3
 3236 0180 62       		.byte	0x62
 3237 0181 5A000000 		.4byte	0x5a
 3238 0185 02       		.byte	0x2
 3239 0186 23       		.byte	0x23
 3240 0187 00       		.uleb128 0x0
 3241 0188 07       		.uleb128 0x7
 3242 0189 666E00   		.ascii	"fn\000"
 3243 018c 03       		.byte	0x3
 3244 018d 63       		.byte	0x63
 3245 018e 5D010000 		.4byte	0x15d
 3246 0192 02       		.byte	0x2
 3247 0193 23       		.byte	0x23
 3248 0194 04       		.uleb128 0x4
 3249 0195 06       		.uleb128 0x6
 3250 0196 2F020000 		.4byte	.LASF28
 3251 019a 03       		.byte	0x3
 3252 019b 64       		.byte	0x64
 3253 019c 73000000 		.4byte	0x73
 3254 01a0 02       		.byte	0x2
 3255 01a1 23       		.byte	0x23
 3256 01a2 08       		.uleb128 0x8
 3257 01a3 06       		.uleb128 0x6
 3258 01a4 1D010000 		.4byte	.LASF29
 3259 01a8 03       		.byte	0x3
 3260 01a9 65       		.byte	0x65
 3261 01aa 73000000 		.4byte	0x73
 3262 01ae 02       		.byte	0x2
 3263 01af 23       		.byte	0x23
 3264 01b0 0C       		.uleb128 0xc
 3265 01b1 06       		.uleb128 0x6
 3266 01b2 A0000000 		.4byte	.LASF30
 3267 01b6 03       		.byte	0x3
 3268 01b7 66       		.byte	0x66
 3269 01b8 73000000 		.4byte	0x73
 3270 01bc 02       		.byte	0x2
 3271 01bd 23       		.byte	0x23
 3272 01be 10       		.uleb128 0x10
 3273 01bf 00       		.byte	0x0
 3274 01c0 09       		.uleb128 0x9
 3275 01c1 44495200 		.ascii	"DIR\000"
 3276 01c5 03       		.byte	0x3
 3277 01c6 67       		.byte	0x67
 3278 01c7 6E010000 		.4byte	0x16e
 3279 01cb 05       		.uleb128 0x5
 3280 01cc 1E020000 		.4byte	0x21e
 3281 01d0 0C010000 		.4byte	.LASF31
 3282 01d4 18       		.byte	0x18
 3283 01d5 03       		.byte	0x3
 3284 01d6 6D       		.byte	0x6d
 3285 01d7 06       		.uleb128 0x6
 3286 01d8 77020000 		.4byte	.LASF20
 3287 01dc 03       		.byte	0x3
 3288 01dd 6E       		.byte	0x6e
 3289 01de 73000000 		.4byte	0x73
 3290 01e2 02       		.byte	0x2
ARM GAS  /cygdrive/c/DOCUME~1/mkwapisz/LOCALS~1/Temp/ccd1rULD.s 			page 74


 3291 01e3 23       		.byte	0x23
 3292 01e4 00       		.uleb128 0x0
 3293 01e5 06       		.uleb128 0x6
 3294 01e6 BC020000 		.4byte	.LASF32
 3295 01ea 03       		.byte	0x3
 3296 01eb 6F       		.byte	0x6f
 3297 01ec 5A000000 		.4byte	0x5a
 3298 01f0 02       		.byte	0x2
 3299 01f1 23       		.byte	0x23
 3300 01f2 04       		.uleb128 0x4
 3301 01f3 06       		.uleb128 0x6
 3302 01f4 AF000000 		.4byte	.LASF33
 3303 01f8 03       		.byte	0x3
 3304 01f9 70       		.byte	0x70
 3305 01fa 5A000000 		.4byte	0x5a
 3306 01fe 02       		.byte	0x2
 3307 01ff 23       		.byte	0x23
 3308 0200 06       		.uleb128 0x6
 3309 0201 06       		.uleb128 0x6
 3310 0202 0B020000 		.4byte	.LASF34
 3311 0206 03       		.byte	0x3
 3312 0207 71       		.byte	0x71
 3313 0208 41000000 		.4byte	0x41
 3314 020c 02       		.byte	0x2
 3315 020d 23       		.byte	0x23
 3316 020e 08       		.uleb128 0x8
 3317 020f 06       		.uleb128 0x6
 3318 0210 BC010000 		.4byte	.LASF35
 3319 0214 03       		.byte	0x3
 3320 0215 72       		.byte	0x72
 3321 0216 1E020000 		.4byte	0x21e
 3322 021a 02       		.byte	0x2
 3323 021b 23       		.byte	0x23
 3324 021c 09       		.uleb128 0x9
 3325 021d 00       		.byte	0x0
 3326 021e 0A       		.uleb128 0xa
 3327 021f 2E020000 		.4byte	0x22e
 3328 0223 35020000 		.4byte	0x235
 3329 0227 0B       		.uleb128 0xb
 3330 0228 2E020000 		.4byte	0x22e
 3331 022c 0C       		.byte	0xc
 3332 022d 00       		.byte	0x0
 3333 022e 03       		.uleb128 0x3
 3334 022f 3C020000 		.4byte	.LASF8
 3335 0233 04       		.byte	0x4
 3336 0234 07       		.byte	0x7
 3337 0235 03       		.uleb128 0x3
 3338 0236 F5010000 		.4byte	.LASF36
 3339 023a 01       		.byte	0x1
 3340 023b 08       		.byte	0x8
 3341 023c 04       		.uleb128 0x4
 3342 023d ED010000 		.4byte	.LASF37
 3343 0241 03       		.byte	0x3
 3344 0242 73       		.byte	0x73
 3345 0243 CB010000 		.4byte	0x1cb
 3346 0247 0C       		.uleb128 0xc
 3347 0248 80020000 		.4byte	0x280
ARM GAS  /cygdrive/c/DOCUME~1/mkwapisz/LOCALS~1/Temp/ccd1rULD.s 			page 75


 3348 024c 04       		.byte	0x4
 3349 024d 03       		.byte	0x3
 3350 024e 79       		.byte	0x79
 3351 024f 0D       		.uleb128 0xd
 3352 0250 CB000000 		.4byte	.LASF38
 3353 0254 00       		.sleb128 0
 3354 0255 0D       		.uleb128 0xd
 3355 0256 DA000000 		.4byte	.LASF39
 3356 025a 01       		.sleb128 1
 3357 025b 0D       		.uleb128 0xd
 3358 025c 40010000 		.4byte	.LASF40
 3359 0260 02       		.sleb128 2
 3360 0261 0D       		.uleb128 0xd
 3361 0262 66020000 		.4byte	.LASF41
 3362 0266 03       		.sleb128 3
 3363 0267 0D       		.uleb128 0xd
 3364 0268 82000000 		.4byte	.LASF42
 3365 026c 04       		.sleb128 4
 3366 026d 0D       		.uleb128 0xd
 3367 026e 55000000 		.4byte	.LASF43
 3368 0272 05       		.sleb128 5
 3369 0273 0D       		.uleb128 0xd
 3370 0274 CB010000 		.4byte	.LASF44
 3371 0278 06       		.sleb128 6
 3372 0279 0D       		.uleb128 0xd
 3373 027a 05000000 		.4byte	.LASF45
 3374 027e 07       		.sleb128 7
 3375 027f 00       		.byte	0x0
 3376 0280 04       		.uleb128 0x4
 3377 0281 EA020000 		.4byte	.LASF46
 3378 0285 03       		.byte	0x3
 3379 0286 82       		.byte	0x82
 3380 0287 47020000 		.4byte	0x247
 3381 028b 0C       		.uleb128 0xc
 3382 028c AC020000 		.4byte	0x2ac
 3383 0290 04       		.byte	0x4
 3384 0291 04       		.byte	0x4
 3385 0292 0F       		.byte	0xf
 3386 0293 0D       		.uleb128 0xd
 3387 0294 16010000 		.4byte	.LASF47
 3388 0298 00       		.sleb128 0
 3389 0299 0D       		.uleb128 0xd
 3390 029a 16000000 		.4byte	.LASF48
 3391 029e 01       		.sleb128 1
 3392 029f 0D       		.uleb128 0xd
 3393 02a0 13020000 		.4byte	.LASF49
 3394 02a4 02       		.sleb128 2
 3395 02a5 0D       		.uleb128 0xd
 3396 02a6 F2020000 		.4byte	.LASF50
 3397 02aa 03       		.sleb128 3
 3398 02ab 00       		.byte	0x0
 3399 02ac 04       		.uleb128 0x4
 3400 02ad 1E020000 		.4byte	.LASF51
 3401 02b1 04       		.byte	0x4
 3402 02b2 14       		.byte	0x14
 3403 02b3 8B020000 		.4byte	0x28b
 3404 02b7 0E       		.uleb128 0xe
ARM GAS  /cygdrive/c/DOCUME~1/mkwapisz/LOCALS~1/Temp/ccd1rULD.s 			page 76


 3405 02b8 ED020000 		.4byte	0x2ed
 3406 02bc B5000000 		.4byte	.LASF52
 3407 02c0 01       		.byte	0x1
 3408 02c1 72       		.byte	0x72
 3409 02c2 01       		.byte	0x1
 3410 02c3 73000000 		.4byte	0x73
 3411 02c7 00000000 		.4byte	.LFB5
 3412 02cb 34000000 		.4byte	.LFE5
 3413 02cf 01       		.byte	0x1
 3414 02d0 5D       		.byte	0x5d
 3415 02d1 0F       		.uleb128 0xf
 3416 02d2 19030000 		.4byte	.LASF54
 3417 02d6 01       		.byte	0x1
 3418 02d7 71       		.byte	0x71
 3419 02d8 73000000 		.4byte	0x73
 3420 02dc 00000000 		.4byte	.LLST1
 3421 02e0 10       		.uleb128 0x10
 3422 02e1 667300   		.ascii	"fs\000"
 3423 02e4 01       		.byte	0x1
 3424 02e5 73       		.byte	0x73
 3425 02e6 ED020000 		.4byte	0x2ed
 3426 02ea 01       		.byte	0x1
 3427 02eb 51       		.byte	0x51
 3428 02ec 00       		.byte	0x0
 3429 02ed 08       		.uleb128 0x8
 3430 02ee 04       		.byte	0x4
 3431 02ef 63010000 		.4byte	0x163
 3432 02f3 11       		.uleb128 0x11
 3433 02f4 3B030000 		.4byte	0x33b
 3434 02f8 53010000 		.4byte	.LASF53
 3435 02fc 01       		.byte	0x1
 3436 02fd 81       		.byte	0x81
 3437 02fe 01       		.byte	0x1
 3438 02ff 80020000 		.4byte	0x280
 3439 0303 34000000 		.4byte	.LFB6
 3440 0307 BC000000 		.4byte	.LFE6
 3441 030b 1E000000 		.4byte	.LLST2
 3442 030f 12       		.uleb128 0x12
 3443 0310 646A00   		.ascii	"dj\000"
 3444 0313 01       		.byte	0x1
 3445 0314 80       		.byte	0x80
 3446 0315 3B030000 		.4byte	0x33b
 3447 0319 3D000000 		.4byte	.LLST3
 3448 031d 13       		.uleb128 0x13
 3449 031e 19030000 		.4byte	.LASF54
 3450 0322 01       		.byte	0x1
 3451 0323 82       		.byte	0x82
 3452 0324 73000000 		.4byte	0x73
 3453 0328 5B000000 		.4byte	.LLST4
 3454 032c 14       		.uleb128 0x14
 3455 032d 667300   		.ascii	"fs\000"
 3456 0330 01       		.byte	0x1
 3457 0331 83       		.byte	0x83
 3458 0332 ED020000 		.4byte	0x2ed
 3459 0336 84000000 		.4byte	.LLST5
 3460 033a 00       		.byte	0x0
 3461 033b 08       		.uleb128 0x8
ARM GAS  /cygdrive/c/DOCUME~1/mkwapisz/LOCALS~1/Temp/ccd1rULD.s 			page 77


 3462 033c 04       		.byte	0x4
 3463 033d C0010000 		.4byte	0x1c0
 3464 0341 15       		.uleb128 0x15
 3465 0342 7F030000 		.4byte	0x37f
 3466 0346 AD010000 		.4byte	.LASF55
 3467 034a 01       		.byte	0x1
 3468 034b B001     		.2byte	0x1b0
 3469 034d 01       		.byte	0x1
 3470 034e 41000000 		.4byte	0x41
 3471 0352 BC000000 		.4byte	.LFB13
 3472 0356 80010000 		.4byte	.LFE13
 3473 035a A2000000 		.4byte	.LLST6
 3474 035e 16       		.uleb128 0x16
 3475 035f 62756600 		.ascii	"buf\000"
 3476 0363 01       		.byte	0x1
 3477 0364 AD01     		.2byte	0x1ad
 3478 0366 5D010000 		.4byte	0x15d
 3479 036a C1000000 		.4byte	.LLST7
 3480 036e 17       		.uleb128 0x17
 3481 036f A0000000 		.4byte	.LASF30
 3482 0373 01       		.byte	0x1
 3483 0374 AF01     		.2byte	0x1af
 3484 0376 73000000 		.4byte	0x73
 3485 037a DF000000 		.4byte	.LLST8
 3486 037e 00       		.byte	0x0
 3487 037f 11       		.uleb128 0x11
 3488 0380 F0030000 		.4byte	0x3f0
 3489 0384 A0010000 		.4byte	.LASF56
 3490 0388 01       		.byte	0x1
 3491 0389 3F       		.byte	0x3f
 3492 038a 01       		.byte	0x1
 3493 038b 73000000 		.4byte	0x73
 3494 038f 80010000 		.4byte	.LFB4
 3495 0393 FC020000 		.4byte	.LFE4
 3496 0397 FD000000 		.4byte	.LLST9
 3497 039b 0F       		.uleb128 0xf
 3498 039c 19030000 		.4byte	.LASF54
 3499 03a0 01       		.byte	0x1
 3500 03a1 3E       		.byte	0x3e
 3501 03a2 73000000 		.4byte	0x73
 3502 03a6 28010000 		.4byte	.LLST10
 3503 03aa 14       		.uleb128 0x14
 3504 03ab 776300   		.ascii	"wc\000"
 3505 03ae 01       		.byte	0x1
 3506 03af 40       		.byte	0x40
 3507 03b0 5A000000 		.4byte	0x5a
 3508 03b4 9E010000 		.4byte	.LLST11
 3509 03b8 14       		.uleb128 0x14
 3510 03b9 626300   		.ascii	"bc\000"
 3511 03bc 01       		.byte	0x1
 3512 03bd 40       		.byte	0x40
 3513 03be 5A000000 		.4byte	0x5a
 3514 03c2 BC010000 		.4byte	.LLST12
 3515 03c6 14       		.uleb128 0x14
 3516 03c7 6F667300 		.ascii	"ofs\000"
 3517 03cb 01       		.byte	0x1
 3518 03cc 40       		.byte	0x40
ARM GAS  /cygdrive/c/DOCUME~1/mkwapisz/LOCALS~1/Temp/ccd1rULD.s 			page 78


 3519 03cd 5A000000 		.4byte	0x5a
 3520 03d1 DA010000 		.4byte	.LLST13
 3521 03d5 10       		.uleb128 0x10
 3522 03d6 62756600 		.ascii	"buf\000"
 3523 03da 01       		.byte	0x1
 3524 03db 41       		.byte	0x41
 3525 03dc F0030000 		.4byte	0x3f0
 3526 03e0 02       		.byte	0x2
 3527 03e1 91       		.byte	0x91
 3528 03e2 64       		.sleb128 -28
 3529 03e3 10       		.uleb128 0x10
 3530 03e4 667300   		.ascii	"fs\000"
 3531 03e7 01       		.byte	0x1
 3532 03e8 42       		.byte	0x42
 3533 03e9 ED020000 		.4byte	0x2ed
 3534 03ed 01       		.byte	0x1
 3535 03ee 55       		.byte	0x55
 3536 03ef 00       		.byte	0x0
 3537 03f0 0A       		.uleb128 0xa
 3538 03f1 00040000 		.4byte	0x400
 3539 03f5 41000000 		.4byte	0x41
 3540 03f9 0B       		.uleb128 0xb
 3541 03fa 2E020000 		.4byte	0x22e
 3542 03fe 03       		.byte	0x3
 3543 03ff 00       		.byte	0x0
 3544 0400 18       		.uleb128 0x18
 3545 0401 84040000 		.4byte	0x484
 3546 0405 01       		.byte	0x1
 3547 0406 D1000000 		.4byte	.LASF58
 3548 040a 01       		.byte	0x1
 3549 040b D402     		.2byte	0x2d4
 3550 040d 01       		.byte	0x1
 3551 040e 80020000 		.4byte	0x280
 3552 0412 FC020000 		.4byte	.LFB17
 3553 0416 44040000 		.4byte	.LFE17
 3554 041a F8010000 		.4byte	.LLST14
 3555 041e 16       		.uleb128 0x16
 3556 041f 6F667300 		.ascii	"ofs\000"
 3557 0423 01       		.byte	0x1
 3558 0424 D302     		.2byte	0x2d3
 3559 0426 73000000 		.4byte	0x73
 3560 042a 17020000 		.4byte	.LLST15
 3561 042e 19       		.uleb128 0x19
 3562 042f 19030000 		.4byte	.LASF54
 3563 0433 01       		.byte	0x1
 3564 0434 D502     		.2byte	0x2d5
 3565 0436 73000000 		.4byte	0x73
 3566 043a 40020000 		.4byte	.LLST16
 3567 043e 1A       		.uleb128 0x1a
 3568 043f 62637300 		.ascii	"bcs\000"
 3569 0443 01       		.byte	0x1
 3570 0444 D602     		.2byte	0x2d6
 3571 0446 73000000 		.4byte	0x73
 3572 044a 01       		.byte	0x1
 3573 044b 57       		.byte	0x57
 3574 044c 1B       		.uleb128 0x1b
 3575 044d A0000000 		.4byte	.LASF30
ARM GAS  /cygdrive/c/DOCUME~1/mkwapisz/LOCALS~1/Temp/ccd1rULD.s 			page 79


 3576 0451 01       		.byte	0x1
 3577 0452 D602     		.2byte	0x2d6
 3578 0454 73000000 		.4byte	0x73
 3579 0458 01       		.byte	0x1
 3580 0459 51       		.byte	0x51
 3581 045a 19       		.uleb128 0x19
 3582 045b 4E020000 		.4byte	.LASF57
 3583 045f 01       		.byte	0x1
 3584 0460 D602     		.2byte	0x2d6
 3585 0462 73000000 		.4byte	0x73
 3586 0466 B6020000 		.4byte	.LLST17
 3587 046a 1A       		.uleb128 0x1a
 3588 046b 667300   		.ascii	"fs\000"
 3589 046e 01       		.byte	0x1
 3590 046f D702     		.2byte	0x2d7
 3591 0471 ED020000 		.4byte	0x2ed
 3592 0475 01       		.byte	0x1
 3593 0476 55       		.byte	0x55
 3594 0477 1C       		.uleb128 0x1c
 3595 0478 B3020000 		.4byte	.LASF61
 3596 047c 01       		.byte	0x1
 3597 047d 0303     		.2byte	0x303
 3598 047f 24040000 		.4byte	.L71
 3599 0483 00       		.byte	0x0
 3600 0484 18       		.uleb128 0x18
 3601 0485 DE040000 		.4byte	0x4de
 3602 0489 01       		.byte	0x1
 3603 048a 20000000 		.4byte	.LASF59
 3604 048e 01       		.byte	0x1
 3605 048f 4D02     		.2byte	0x24d
 3606 0491 01       		.byte	0x1
 3607 0492 80020000 		.4byte	0x280
 3608 0496 44040000 		.4byte	.LFB16
 3609 049a 44060000 		.4byte	.LFE16
 3610 049e EA020000 		.4byte	.LLST18
 3611 04a2 17       		.uleb128 0x17
 3612 04a3 8D000000 		.4byte	.LASF60
 3613 04a7 01       		.byte	0x1
 3614 04a8 4902     		.2byte	0x249
 3615 04aa DE040000 		.4byte	0x4de
 3616 04ae 09030000 		.4byte	.LLST19
 3617 04b2 16       		.uleb128 0x16
 3618 04b3 62747200 		.ascii	"btr\000"
 3619 04b7 01       		.byte	0x1
 3620 04b8 4A02     		.2byte	0x24a
 3621 04ba 5A000000 		.4byte	0x5a
 3622 04be 27030000 		.4byte	.LLST20
 3623 04c2 16       		.uleb128 0x16
 3624 04c3 627200   		.ascii	"br\000"
 3625 04c6 01       		.byte	0x1
 3626 04c7 4C02     		.2byte	0x24c
 3627 04c9 E0040000 		.4byte	0x4e0
 3628 04cd 45030000 		.4byte	.LLST21
 3629 04d1 1C       		.uleb128 0x1c
 3630 04d2 31010000 		.4byte	.LASF62
 3631 04d6 01       		.byte	0x1
 3632 04d7 7F02     		.2byte	0x27f
ARM GAS  /cygdrive/c/DOCUME~1/mkwapisz/LOCALS~1/Temp/ccd1rULD.s 			page 80


 3633 04d9 08060000 		.4byte	.L98
 3634 04dd 00       		.byte	0x0
 3635 04de 1D       		.uleb128 0x1d
 3636 04df 04       		.byte	0x4
 3637 04e0 08       		.uleb128 0x8
 3638 04e1 04       		.byte	0x4
 3639 04e2 5A000000 		.4byte	0x5a
 3640 04e6 11       		.uleb128 0x11
 3641 04e7 37050000 		.4byte	0x537
 3642 04eb 5E010000 		.4byte	.LASF63
 3643 04ef 01       		.byte	0x1
 3644 04f0 9A       		.byte	0x9a
 3645 04f1 01       		.byte	0x1
 3646 04f2 80020000 		.4byte	0x280
 3647 04f6 44060000 		.4byte	.LFB7
 3648 04fa F8060000 		.4byte	.LFE7
 3649 04fe 63030000 		.4byte	.LLST22
 3650 0502 12       		.uleb128 0x12
 3651 0503 646A00   		.ascii	"dj\000"
 3652 0506 01       		.byte	0x1
 3653 0507 99       		.byte	0x99
 3654 0508 3B030000 		.4byte	0x33b
 3655 050c 82030000 		.4byte	.LLST23
 3656 0510 13       		.uleb128 0x13
 3657 0511 19030000 		.4byte	.LASF54
 3658 0515 01       		.byte	0x1
 3659 0516 9B       		.byte	0x9b
 3660 0517 73000000 		.4byte	0x73
 3661 051b B6030000 		.4byte	.LLST24
 3662 051f 10       		.uleb128 0x10
 3663 0520 6900     		.ascii	"i\000"
 3664 0522 01       		.byte	0x1
 3665 0523 9C       		.byte	0x9c
 3666 0524 5A000000 		.4byte	0x5a
 3667 0528 01       		.byte	0x1
 3668 0529 56       		.byte	0x56
 3669 052a 10       		.uleb128 0x10
 3670 052b 667300   		.ascii	"fs\000"
 3671 052e 01       		.byte	0x1
 3672 052f 9D       		.byte	0x9d
 3673 0530 ED020000 		.4byte	0x2ed
 3674 0534 01       		.byte	0x1
 3675 0535 55       		.byte	0x55
 3676 0536 00       		.byte	0x0
 3677 0537 1E       		.uleb128 0x1e
 3678 0538 7B050000 		.4byte	0x57b
 3679 053c 26020000 		.4byte	.LASF64
 3680 0540 01       		.byte	0x1
 3681 0541 E8       		.byte	0xe8
 3682 0542 01       		.byte	0x1
 3683 0543 80020000 		.4byte	0x280
 3684 0547 01       		.byte	0x1
 3685 0548 1F       		.uleb128 0x1f
 3686 0549 646A00   		.ascii	"dj\000"
 3687 054c 01       		.byte	0x1
 3688 054d E7       		.byte	0xe7
 3689 054e 3B030000 		.4byte	0x33b
ARM GAS  /cygdrive/c/DOCUME~1/mkwapisz/LOCALS~1/Temp/ccd1rULD.s 			page 81


 3690 0552 20       		.uleb128 0x20
 3691 0553 72657300 		.ascii	"res\000"
 3692 0557 01       		.byte	0x1
 3693 0558 E9       		.byte	0xe9
 3694 0559 80020000 		.4byte	0x280
 3695 055d 20       		.uleb128 0x20
 3696 055e 6100     		.ascii	"a\000"
 3697 0560 01       		.byte	0x1
 3698 0561 EA       		.byte	0xea
 3699 0562 41000000 		.4byte	0x41
 3700 0566 20       		.uleb128 0x20
 3701 0567 6300     		.ascii	"c\000"
 3702 0569 01       		.byte	0x1
 3703 056a EA       		.byte	0xea
 3704 056b 41000000 		.4byte	0x41
 3705 056f 20       		.uleb128 0x20
 3706 0570 64697200 		.ascii	"dir\000"
 3707 0574 01       		.byte	0x1
 3708 0575 EA       		.byte	0xea
 3709 0576 5D010000 		.4byte	0x15d
 3710 057a 00       		.byte	0x0
 3711 057b 21       		.uleb128 0x21
 3712 057c CB050000 		.4byte	0x5cb
 3713 0580 D5020000 		.4byte	.LASF65
 3714 0584 01       		.byte	0x1
 3715 0585 4B01     		.2byte	0x14b
 3716 0587 01       		.byte	0x1
 3717 0588 01       		.byte	0x1
 3718 0589 22       		.uleb128 0x22
 3719 058a 646A00   		.ascii	"dj\000"
 3720 058d 01       		.byte	0x1
 3721 058e 4801     		.2byte	0x148
 3722 0590 3B030000 		.4byte	0x33b
 3723 0594 22       		.uleb128 0x22
 3724 0595 666E6F00 		.ascii	"fno\000"
 3725 0599 01       		.byte	0x1
 3726 059a 4A01     		.2byte	0x14a
 3727 059c CB050000 		.4byte	0x5cb
 3728 05a0 23       		.uleb128 0x23
 3729 05a1 6900     		.ascii	"i\000"
 3730 05a3 01       		.byte	0x1
 3731 05a4 4C01     		.2byte	0x14c
 3732 05a6 41000000 		.4byte	0x41
 3733 05aa 23       		.uleb128 0x23
 3734 05ab 6300     		.ascii	"c\000"
 3735 05ad 01       		.byte	0x1
 3736 05ae 4C01     		.2byte	0x14c
 3737 05b0 41000000 		.4byte	0x41
 3738 05b4 23       		.uleb128 0x23
 3739 05b5 64697200 		.ascii	"dir\000"
 3740 05b9 01       		.byte	0x1
 3741 05ba 4C01     		.2byte	0x14c
 3742 05bc 5D010000 		.4byte	0x15d
 3743 05c0 23       		.uleb128 0x23
 3744 05c1 7000     		.ascii	"p\000"
 3745 05c3 01       		.byte	0x1
 3746 05c4 4D01     		.2byte	0x14d
ARM GAS  /cygdrive/c/DOCUME~1/mkwapisz/LOCALS~1/Temp/ccd1rULD.s 			page 82


 3747 05c6 D1050000 		.4byte	0x5d1
 3748 05ca 00       		.byte	0x0
 3749 05cb 08       		.uleb128 0x8
 3750 05cc 04       		.byte	0x4
 3751 05cd 3C020000 		.4byte	0x23c
 3752 05d1 08       		.uleb128 0x8
 3753 05d2 04       		.byte	0x4
 3754 05d3 35020000 		.4byte	0x235
 3755 05d7 18       		.uleb128 0x18
 3756 05d8 C6060000 		.4byte	0x6c6
 3757 05dc 01       		.byte	0x1
 3758 05dd 0E030000 		.4byte	.LASF66
 3759 05e1 01       		.byte	0x1
 3760 05e2 3E03     		.2byte	0x33e
 3761 05e4 01       		.byte	0x1
 3762 05e5 80020000 		.4byte	0x280
 3763 05e9 F8060000 		.4byte	.LFB19
 3764 05ed EC080000 		.4byte	.LFE19
 3765 05f1 DF030000 		.4byte	.LLST25
 3766 05f5 16       		.uleb128 0x16
 3767 05f6 646A00   		.ascii	"dj\000"
 3768 05f9 01       		.byte	0x1
 3769 05fa 3B03     		.2byte	0x33b
 3770 05fc 3B030000 		.4byte	0x33b
 3771 0600 0A040000 		.4byte	.LLST26
 3772 0604 16       		.uleb128 0x16
 3773 0605 666E6F00 		.ascii	"fno\000"
 3774 0609 01       		.byte	0x1
 3775 060a 3D03     		.2byte	0x33d
 3776 060c CB050000 		.4byte	0x5cb
 3777 0610 80040000 		.4byte	.LLST27
 3778 0614 24       		.uleb128 0x24
 3779 0615 72657300 		.ascii	"res\000"
 3780 0619 01       		.byte	0x1
 3781 061a 3F03     		.2byte	0x33f
 3782 061c 80020000 		.4byte	0x280
 3783 0620 B4040000 		.4byte	.LLST28
 3784 0624 1A       		.uleb128 0x1a
 3785 0625 737000   		.ascii	"sp\000"
 3786 0628 01       		.byte	0x1
 3787 0629 4003     		.2byte	0x340
 3788 062b C6060000 		.4byte	0x6c6
 3789 062f 02       		.byte	0x2
 3790 0630 91       		.byte	0x91
 3791 0631 64       		.sleb128 -28
 3792 0632 1A       		.uleb128 0x1a
 3793 0633 64697200 		.ascii	"dir\000"
 3794 0637 01       		.byte	0x1
 3795 0638 4003     		.2byte	0x340
 3796 063a D6060000 		.4byte	0x6d6
 3797 063e 02       		.byte	0x2
 3798 063f 91       		.byte	0x91
 3799 0640 44       		.sleb128 -60
 3800 0641 24       		.uleb128 0x24
 3801 0642 667300   		.ascii	"fs\000"
 3802 0645 01       		.byte	0x1
 3803 0646 4103     		.2byte	0x341
ARM GAS  /cygdrive/c/DOCUME~1/mkwapisz/LOCALS~1/Temp/ccd1rULD.s 			page 83


 3804 0648 ED020000 		.4byte	0x2ed
 3805 064c 09050000 		.4byte	.LLST29
 3806 0650 25       		.uleb128 0x25
 3807 0651 88060000 		.4byte	0x688
 3808 0655 37050000 		.4byte	0x537
 3809 0659 00000000 		.4byte	.Ldebug_ranges0+0x0
 3810 065d 01       		.byte	0x1
 3811 065e 4F03     		.2byte	0x34f
 3812 0660 26       		.uleb128 0x26
 3813 0661 48050000 		.4byte	0x548
 3814 0665 27       		.uleb128 0x27
 3815 0666 20000000 		.4byte	.Ldebug_ranges0+0x20
 3816 066a 28       		.uleb128 0x28
 3817 066b 52050000 		.4byte	0x552
 3818 066f 28       		.uleb128 0x28
 3819 0670 5D050000 		.4byte	0x55d
 3820 0674 29       		.uleb128 0x29
 3821 0675 66050000 		.4byte	0x566
 3822 0679 32050000 		.4byte	.LLST30
 3823 067d 29       		.uleb128 0x29
 3824 067e 6F050000 		.4byte	0x56f
 3825 0682 5B050000 		.4byte	.LLST31
 3826 0686 00       		.byte	0x0
 3827 0687 00       		.byte	0x0
 3828 0688 2A       		.uleb128 0x2a
 3829 0689 7B050000 		.4byte	0x57b
 3830 068d 58000000 		.4byte	.Ldebug_ranges0+0x58
 3831 0691 01       		.byte	0x1
 3832 0692 5703     		.2byte	0x357
 3833 0694 26       		.uleb128 0x26
 3834 0695 94050000 		.4byte	0x594
 3835 0699 26       		.uleb128 0x26
 3836 069a 89050000 		.4byte	0x589
 3837 069e 27       		.uleb128 0x27
 3838 069f 70000000 		.4byte	.Ldebug_ranges0+0x70
 3839 06a3 28       		.uleb128 0x28
 3840 06a4 A0050000 		.4byte	0x5a0
 3841 06a8 29       		.uleb128 0x29
 3842 06a9 AA050000 		.4byte	0x5aa
 3843 06ad C6050000 		.4byte	.LLST32
 3844 06b1 29       		.uleb128 0x29
 3845 06b2 B4050000 		.4byte	0x5b4
 3846 06b6 E4050000 		.4byte	.LLST33
 3847 06ba 29       		.uleb128 0x29
 3848 06bb C0050000 		.4byte	0x5c0
 3849 06bf F7050000 		.4byte	.LLST34
 3850 06c3 00       		.byte	0x0
 3851 06c4 00       		.byte	0x0
 3852 06c5 00       		.byte	0x0
 3853 06c6 0A       		.uleb128 0xa
 3854 06c7 D6060000 		.4byte	0x6d6
 3855 06cb 41000000 		.4byte	0x41
 3856 06cf 0B       		.uleb128 0xb
 3857 06d0 2E020000 		.4byte	0x22e
 3858 06d4 0B       		.byte	0xb
 3859 06d5 00       		.byte	0x0
 3860 06d6 0A       		.uleb128 0xa
ARM GAS  /cygdrive/c/DOCUME~1/mkwapisz/LOCALS~1/Temp/ccd1rULD.s 			page 84


 3861 06d7 E6060000 		.4byte	0x6e6
 3862 06db 41000000 		.4byte	0x41
 3863 06df 0B       		.uleb128 0xb
 3864 06e0 2E020000 		.4byte	0x22e
 3865 06e4 1F       		.byte	0x1f
 3866 06e5 00       		.byte	0x0
 3867 06e6 2B       		.uleb128 0x2b
 3868 06e7 5A070000 		.4byte	0x75a
 3869 06eb 87010000 		.4byte	.LASF67
 3870 06ef 01       		.byte	0x1
 3871 06f0 1401     		.2byte	0x114
 3872 06f2 01       		.byte	0x1
 3873 06f3 80020000 		.4byte	0x280
 3874 06f7 01       		.byte	0x1
 3875 06f8 22       		.uleb128 0x22
 3876 06f9 646A00   		.ascii	"dj\000"
 3877 06fc 01       		.byte	0x1
 3878 06fd 1101     		.2byte	0x111
 3879 06ff 3B030000 		.4byte	0x33b
 3880 0703 2C       		.uleb128 0x2c
 3881 0704 00000000 		.4byte	.LASF68
 3882 0708 01       		.byte	0x1
 3883 0709 1301     		.2byte	0x113
 3884 070b 5A070000 		.4byte	0x75a
 3885 070f 23       		.uleb128 0x23
 3886 0710 6300     		.ascii	"c\000"
 3887 0712 01       		.byte	0x1
 3888 0713 1501     		.2byte	0x115
 3889 0715 41000000 		.4byte	0x41
 3890 0719 23       		.uleb128 0x23
 3891 071a 6400     		.ascii	"d\000"
 3892 071c 01       		.byte	0x1
 3893 071d 1501     		.2byte	0x115
 3894 071f 41000000 		.4byte	0x41
 3895 0723 23       		.uleb128 0x23
 3896 0724 6E6900   		.ascii	"ni\000"
 3897 0727 01       		.byte	0x1
 3898 0728 1501     		.2byte	0x115
 3899 072a 41000000 		.4byte	0x41
 3900 072e 23       		.uleb128 0x23
 3901 072f 736900   		.ascii	"si\000"
 3902 0732 01       		.byte	0x1
 3903 0733 1501     		.2byte	0x115
 3904 0735 41000000 		.4byte	0x41
 3905 0739 23       		.uleb128 0x23
 3906 073a 6900     		.ascii	"i\000"
 3907 073c 01       		.byte	0x1
 3908 073d 1501     		.2byte	0x115
 3909 073f 41000000 		.4byte	0x41
 3910 0743 23       		.uleb128 0x23
 3911 0744 73666E00 		.ascii	"sfn\000"
 3912 0748 01       		.byte	0x1
 3913 0749 1501     		.2byte	0x115
 3914 074b 5D010000 		.4byte	0x15d
 3915 074f 23       		.uleb128 0x23
 3916 0750 7000     		.ascii	"p\000"
 3917 0752 01       		.byte	0x1
ARM GAS  /cygdrive/c/DOCUME~1/mkwapisz/LOCALS~1/Temp/ccd1rULD.s 			page 85


 3918 0753 1601     		.2byte	0x116
 3919 0755 60070000 		.4byte	0x760
 3920 0759 00       		.byte	0x0
 3921 075a 08       		.uleb128 0x8
 3922 075b 04       		.byte	0x4
 3923 075c 60070000 		.4byte	0x760
 3924 0760 08       		.uleb128 0x8
 3925 0761 04       		.byte	0x4
 3926 0762 66070000 		.4byte	0x766
 3927 0766 2D       		.uleb128 0x2d
 3928 0767 35020000 		.4byte	0x235
 3929 076b 2E       		.uleb128 0x2e
 3930 076c A3070000 		.4byte	0x7a3
 3931 0770 E2020000 		.4byte	.LASF69
 3932 0774 01       		.byte	0x1
 3933 0775 28       		.byte	0x28
 3934 0776 01       		.byte	0x1
 3935 0777 01       		.byte	0x1
 3936 0778 1F       		.uleb128 0x1f
 3937 0779 64737400 		.ascii	"dst\000"
 3938 077d 01       		.byte	0x1
 3939 077e 27       		.byte	0x27
 3940 077f DE040000 		.4byte	0x4de
 3941 0783 1F       		.uleb128 0x1f
 3942 0784 76616C00 		.ascii	"val\000"
 3943 0788 01       		.byte	0x1
 3944 0789 27       		.byte	0x27
 3945 078a 25000000 		.4byte	0x25
 3946 078e 1F       		.uleb128 0x1f
 3947 078f 636E7400 		.ascii	"cnt\000"
 3948 0793 01       		.byte	0x1
 3949 0794 27       		.byte	0x27
 3950 0795 25000000 		.4byte	0x25
 3951 0799 20       		.uleb128 0x20
 3952 079a 6400     		.ascii	"d\000"
 3953 079c 01       		.byte	0x1
 3954 079d 29       		.byte	0x29
 3955 079e D1050000 		.4byte	0x5d1
 3956 07a2 00       		.byte	0x0
 3957 07a3 1E       		.uleb128 0x1e
 3958 07a4 DE070000 		.4byte	0x7de
 3959 07a8 C2010000 		.4byte	.LASF70
 3960 07ac 01       		.byte	0x1
 3961 07ad C5       		.byte	0xc5
 3962 07ae 01       		.byte	0x1
 3963 07af 80020000 		.4byte	0x280
 3964 07b3 01       		.byte	0x1
 3965 07b4 1F       		.uleb128 0x1f
 3966 07b5 646A00   		.ascii	"dj\000"
 3967 07b8 01       		.byte	0x1
 3968 07b9 C4       		.byte	0xc4
 3969 07ba 3B030000 		.4byte	0x33b
 3970 07be 20       		.uleb128 0x20
 3971 07bf 72657300 		.ascii	"res\000"
 3972 07c3 01       		.byte	0x1
 3973 07c4 C6       		.byte	0xc6
 3974 07c5 80020000 		.4byte	0x280
ARM GAS  /cygdrive/c/DOCUME~1/mkwapisz/LOCALS~1/Temp/ccd1rULD.s 			page 86


 3975 07c9 20       		.uleb128 0x20
 3976 07ca 6300     		.ascii	"c\000"
 3977 07cc 01       		.byte	0x1
 3978 07cd C7       		.byte	0xc7
 3979 07ce 41000000 		.4byte	0x41
 3980 07d2 20       		.uleb128 0x20
 3981 07d3 64697200 		.ascii	"dir\000"
 3982 07d7 01       		.byte	0x1
 3983 07d8 C7       		.byte	0xc7
 3984 07d9 5D010000 		.4byte	0x15d
 3985 07dd 00       		.byte	0x0
 3986 07de 1E       		.uleb128 0x1e
 3987 07df 2C080000 		.4byte	0x82c
 3988 07e3 C2020000 		.4byte	.LASF71
 3989 07e7 01       		.byte	0x1
 3990 07e8 30       		.byte	0x30
 3991 07e9 01       		.byte	0x1
 3992 07ea 25000000 		.4byte	0x25
 3993 07ee 01       		.byte	0x1
 3994 07ef 1F       		.uleb128 0x1f
 3995 07f0 64737400 		.ascii	"dst\000"
 3996 07f4 01       		.byte	0x1
 3997 07f5 2F       		.byte	0x2f
 3998 07f6 2C080000 		.4byte	0x82c
 3999 07fa 1F       		.uleb128 0x1f
 4000 07fb 73726300 		.ascii	"src\000"
 4001 07ff 01       		.byte	0x1
 4002 0800 2F       		.byte	0x2f
 4003 0801 2C080000 		.4byte	0x82c
 4004 0805 1F       		.uleb128 0x1f
 4005 0806 636E7400 		.ascii	"cnt\000"
 4006 080a 01       		.byte	0x1
 4007 080b 2F       		.byte	0x2f
 4008 080c 25000000 		.4byte	0x25
 4009 0810 20       		.uleb128 0x20
 4010 0811 6400     		.ascii	"d\000"
 4011 0813 01       		.byte	0x1
 4012 0814 31       		.byte	0x31
 4013 0815 60070000 		.4byte	0x760
 4014 0819 20       		.uleb128 0x20
 4015 081a 7300     		.ascii	"s\000"
 4016 081c 01       		.byte	0x1
 4017 081d 31       		.byte	0x31
 4018 081e 60070000 		.4byte	0x760
 4019 0822 20       		.uleb128 0x20
 4020 0823 7200     		.ascii	"r\000"
 4021 0825 01       		.byte	0x1
 4022 0826 32       		.byte	0x32
 4023 0827 25000000 		.4byte	0x25
 4024 082b 00       		.byte	0x0
 4025 082c 08       		.uleb128 0x8
 4026 082d 04       		.byte	0x4
 4027 082e 32080000 		.4byte	0x832
 4028 0832 2F       		.uleb128 0x2f
 4029 0833 15       		.uleb128 0x15
 4030 0834 6A090000 		.4byte	0x96a
 4031 0838 5A020000 		.4byte	.LASF72
ARM GAS  /cygdrive/c/DOCUME~1/mkwapisz/LOCALS~1/Temp/ccd1rULD.s 			page 87


 4032 083c 01       		.byte	0x1
 4033 083d 7801     		.2byte	0x178
 4034 083f 01       		.byte	0x1
 4035 0840 80020000 		.4byte	0x280
 4036 0844 EC080000 		.4byte	.LFB12
 4037 0848 F40A0000 		.4byte	.LFE12
 4038 084c 20060000 		.4byte	.LLST35
 4039 0850 16       		.uleb128 0x16
 4040 0851 646A00   		.ascii	"dj\000"
 4041 0854 01       		.byte	0x1
 4042 0855 7501     		.2byte	0x175
 4043 0857 3B030000 		.4byte	0x33b
 4044 085b 3F060000 		.4byte	.LLST36
 4045 085f 17       		.uleb128 0x17
 4046 0860 00000000 		.4byte	.LASF68
 4047 0864 01       		.byte	0x1
 4048 0865 7701     		.2byte	0x177
 4049 0867 60070000 		.4byte	0x760
 4050 086b 5D060000 		.4byte	.LLST37
 4051 086f 24       		.uleb128 0x24
 4052 0870 72657300 		.ascii	"res\000"
 4053 0874 01       		.byte	0x1
 4054 0875 7901     		.2byte	0x179
 4055 0877 80020000 		.4byte	0x280
 4056 087b 7B060000 		.4byte	.LLST38
 4057 087f 24       		.uleb128 0x24
 4058 0880 64697200 		.ascii	"dir\000"
 4059 0884 01       		.byte	0x1
 4060 0885 7A01     		.2byte	0x17a
 4061 0887 5D010000 		.4byte	0x15d
 4062 088b AF060000 		.4byte	.LLST39
 4063 088f 25       		.uleb128 0x25
 4064 0890 0A090000 		.4byte	0x90a
 4065 0894 E6060000 		.4byte	0x6e6
 4066 0898 88000000 		.4byte	.Ldebug_ranges0+0x88
 4067 089c 01       		.byte	0x1
 4068 089d 8B01     		.2byte	0x18b
 4069 089f 26       		.uleb128 0x26
 4070 08a0 03070000 		.4byte	0x703
 4071 08a4 26       		.uleb128 0x26
 4072 08a5 F8060000 		.4byte	0x6f8
 4073 08a9 27       		.uleb128 0x27
 4074 08aa A0000000 		.4byte	.Ldebug_ranges0+0xa0
 4075 08ae 29       		.uleb128 0x29
 4076 08af 0F070000 		.4byte	0x70f
 4077 08b3 CD060000 		.4byte	.LLST40
 4078 08b7 28       		.uleb128 0x28
 4079 08b8 19070000 		.4byte	0x719
 4080 08bc 29       		.uleb128 0x29
 4081 08bd 23070000 		.4byte	0x723
 4082 08c1 E0060000 		.4byte	.LLST41
 4083 08c5 29       		.uleb128 0x29
 4084 08c6 2E070000 		.4byte	0x72e
 4085 08ca F3060000 		.4byte	.LLST42
 4086 08ce 28       		.uleb128 0x28
 4087 08cf 39070000 		.4byte	0x739
 4088 08d3 29       		.uleb128 0x29
ARM GAS  /cygdrive/c/DOCUME~1/mkwapisz/LOCALS~1/Temp/ccd1rULD.s 			page 88


 4089 08d4 43070000 		.4byte	0x743
 4090 08d8 11070000 		.4byte	.LLST43
 4091 08dc 28       		.uleb128 0x28
 4092 08dd 4F070000 		.4byte	0x74f
 4093 08e1 2A       		.uleb128 0x2a
 4094 08e2 6B070000 		.4byte	0x76b
 4095 08e6 D0000000 		.4byte	.Ldebug_ranges0+0xd0
 4096 08ea 01       		.byte	0x1
 4097 08eb 1A01     		.2byte	0x11a
 4098 08ed 26       		.uleb128 0x26
 4099 08ee 8E070000 		.4byte	0x78e
 4100 08f2 26       		.uleb128 0x26
 4101 08f3 83070000 		.4byte	0x783
 4102 08f7 26       		.uleb128 0x26
 4103 08f8 78070000 		.4byte	0x778
 4104 08fc 27       		.uleb128 0x27
 4105 08fd E8000000 		.4byte	.Ldebug_ranges0+0xe8
 4106 0901 28       		.uleb128 0x28
 4107 0902 99070000 		.4byte	0x799
 4108 0906 00       		.byte	0x0
 4109 0907 00       		.byte	0x0
 4110 0908 00       		.byte	0x0
 4111 0909 00       		.byte	0x0
 4112 090a 2A       		.uleb128 0x2a
 4113 090b A3070000 		.4byte	0x7a3
 4114 090f 00010000 		.4byte	.Ldebug_ranges0+0x100
 4115 0913 01       		.byte	0x1
 4116 0914 8E01     		.2byte	0x18e
 4117 0916 26       		.uleb128 0x26
 4118 0917 B4070000 		.4byte	0x7b4
 4119 091b 30       		.uleb128 0x30
 4120 091c 38090000 		.4byte	0x938
 4121 0920 18010000 		.4byte	.Ldebug_ranges0+0x118
 4122 0924 28       		.uleb128 0x28
 4123 0925 BE070000 		.4byte	0x7be
 4124 0929 28       		.uleb128 0x28
 4125 092a C9070000 		.4byte	0x7c9
 4126 092e 29       		.uleb128 0x29
 4127 092f D2070000 		.4byte	0x7d2
 4128 0933 24070000 		.4byte	.LLST44
 4129 0937 00       		.byte	0x0
 4130 0938 31       		.uleb128 0x31
 4131 0939 DE070000 		.4byte	0x7de
 4132 093d 38010000 		.4byte	.Ldebug_ranges0+0x138
 4133 0941 01       		.byte	0x1
 4134 0942 DA       		.byte	0xda
 4135 0943 26       		.uleb128 0x26
 4136 0944 05080000 		.4byte	0x805
 4137 0948 26       		.uleb128 0x26
 4138 0949 FA070000 		.4byte	0x7fa
 4139 094d 26       		.uleb128 0x26
 4140 094e EF070000 		.4byte	0x7ef
 4141 0952 27       		.uleb128 0x27
 4142 0953 50010000 		.4byte	.Ldebug_ranges0+0x150
 4143 0957 28       		.uleb128 0x28
 4144 0958 10080000 		.4byte	0x810
 4145 095c 28       		.uleb128 0x28
ARM GAS  /cygdrive/c/DOCUME~1/mkwapisz/LOCALS~1/Temp/ccd1rULD.s 			page 89


 4146 095d 19080000 		.4byte	0x819
 4147 0961 28       		.uleb128 0x28
 4148 0962 22080000 		.4byte	0x822
 4149 0966 00       		.byte	0x0
 4150 0967 00       		.byte	0x0
 4151 0968 00       		.byte	0x0
 4152 0969 00       		.byte	0x0
 4153 096a 18       		.uleb128 0x18
 4154 096b E4090000 		.4byte	0x9e4
 4155 096f 01       		.byte	0x1
 4156 0970 F2000000 		.4byte	.LASF73
 4157 0974 01       		.byte	0x1
 4158 0975 1003     		.2byte	0x310
 4159 0977 01       		.byte	0x1
 4160 0978 80020000 		.4byte	0x280
 4161 097c F40A0000 		.4byte	.LFB18
 4162 0980 900B0000 		.4byte	.LFE18
 4163 0984 42070000 		.4byte	.LLST45
 4164 0988 16       		.uleb128 0x16
 4165 0989 646A00   		.ascii	"dj\000"
 4166 098c 01       		.byte	0x1
 4167 098d 0D03     		.2byte	0x30d
 4168 098f 3B030000 		.4byte	0x33b
 4169 0993 6D070000 		.4byte	.LLST46
 4170 0997 17       		.uleb128 0x17
 4171 0998 00000000 		.4byte	.LASF68
 4172 099c 01       		.byte	0x1
 4173 099d 0F03     		.2byte	0x30f
 4174 099f 60070000 		.4byte	0x760
 4175 09a3 A1070000 		.4byte	.LLST47
 4176 09a7 24       		.uleb128 0x24
 4177 09a8 72657300 		.ascii	"res\000"
 4178 09ac 01       		.byte	0x1
 4179 09ad 1103     		.2byte	0x311
 4180 09af 80020000 		.4byte	0x280
 4181 09b3 BF070000 		.4byte	.LLST48
 4182 09b7 1A       		.uleb128 0x1a
 4183 09b8 737000   		.ascii	"sp\000"
 4184 09bb 01       		.byte	0x1
 4185 09bc 1203     		.2byte	0x312
 4186 09be C6060000 		.4byte	0x6c6
 4187 09c2 02       		.byte	0x2
 4188 09c3 91       		.byte	0x91
 4189 09c4 6C       		.sleb128 -20
 4190 09c5 1A       		.uleb128 0x1a
 4191 09c6 64697200 		.ascii	"dir\000"
 4192 09ca 01       		.byte	0x1
 4193 09cb 1203     		.2byte	0x312
 4194 09cd D6060000 		.4byte	0x6d6
 4195 09d1 02       		.byte	0x2
 4196 09d2 91       		.byte	0x91
 4197 09d3 4C       		.sleb128 -52
 4198 09d4 24       		.uleb128 0x24
 4199 09d5 667300   		.ascii	"fs\000"
 4200 09d8 01       		.byte	0x1
 4201 09d9 1303     		.2byte	0x313
 4202 09db ED020000 		.4byte	0x2ed
ARM GAS  /cygdrive/c/DOCUME~1/mkwapisz/LOCALS~1/Temp/ccd1rULD.s 			page 90


 4203 09df E8070000 		.4byte	.LLST49
 4204 09e3 00       		.byte	0x0
 4205 09e4 18       		.uleb128 0x18
 4206 09e5 5C0A0000 		.4byte	0xa5c
 4207 09e9 01       		.byte	0x1
 4208 09ea 4D000000 		.4byte	.LASF74
 4209 09ee 01       		.byte	0x1
 4210 09ef 1F02     		.2byte	0x21f
 4211 09f1 01       		.byte	0x1
 4212 09f2 80020000 		.4byte	0x280
 4213 09f6 900B0000 		.4byte	.LFB15
 4214 09fa 580C0000 		.4byte	.LFE15
 4215 09fe 06080000 		.4byte	.LLST50
 4216 0a02 17       		.uleb128 0x17
 4217 0a03 00000000 		.4byte	.LASF68
 4218 0a07 01       		.byte	0x1
 4219 0a08 1E02     		.2byte	0x21e
 4220 0a0a 60070000 		.4byte	0x760
 4221 0a0e 32080000 		.4byte	.LLST51
 4222 0a12 24       		.uleb128 0x24
 4223 0a13 72657300 		.ascii	"res\000"
 4224 0a17 01       		.byte	0x1
 4225 0a18 2002     		.2byte	0x220
 4226 0a1a 80020000 		.4byte	0x280
 4227 0a1e 5B080000 		.4byte	.LLST52
 4228 0a22 1A       		.uleb128 0x1a
 4229 0a23 646A00   		.ascii	"dj\000"
 4230 0a26 01       		.byte	0x1
 4231 0a27 2102     		.2byte	0x221
 4232 0a29 C0010000 		.4byte	0x1c0
 4233 0a2d 02       		.byte	0x2
 4234 0a2e 91       		.byte	0x91
 4235 0a2f 58       		.sleb128 -40
 4236 0a30 1A       		.uleb128 0x1a
 4237 0a31 737000   		.ascii	"sp\000"
 4238 0a34 01       		.byte	0x1
 4239 0a35 2202     		.2byte	0x222
 4240 0a37 C6060000 		.4byte	0x6c6
 4241 0a3b 02       		.byte	0x2
 4242 0a3c 91       		.byte	0x91
 4243 0a3d 6C       		.sleb128 -20
 4244 0a3e 1A       		.uleb128 0x1a
 4245 0a3f 64697200 		.ascii	"dir\000"
 4246 0a43 01       		.byte	0x1
 4247 0a44 2202     		.2byte	0x222
 4248 0a46 D6060000 		.4byte	0x6d6
 4249 0a4a 03       		.byte	0x3
 4250 0a4b 91       		.byte	0x91
 4251 0a4c B87F     		.sleb128 -72
 4252 0a4e 1A       		.uleb128 0x1a
 4253 0a4f 667300   		.ascii	"fs\000"
 4254 0a52 01       		.byte	0x1
 4255 0a53 2302     		.2byte	0x223
 4256 0a55 ED020000 		.4byte	0x2ed
 4257 0a59 01       		.byte	0x1
 4258 0a5a 54       		.byte	0x54
 4259 0a5b 00       		.byte	0x0
ARM GAS  /cygdrive/c/DOCUME~1/mkwapisz/LOCALS~1/Temp/ccd1rULD.s 			page 91


 4260 0a5c 18       		.uleb128 0x18
 4261 0a5d E90A0000 		.4byte	0xae9
 4262 0a61 01       		.byte	0x1
 4263 0a62 69000000 		.4byte	.LASF75
 4264 0a66 01       		.byte	0x1
 4265 0a67 CB01     		.2byte	0x1cb
 4266 0a69 01       		.byte	0x1
 4267 0a6a 80020000 		.4byte	0x280
 4268 0a6e 580C0000 		.4byte	.LFB14
 4269 0a72 900E0000 		.4byte	.LFE14
 4270 0a76 79080000 		.4byte	.LLST53
 4271 0a7a 16       		.uleb128 0x16
 4272 0a7b 667300   		.ascii	"fs\000"
 4273 0a7e 01       		.byte	0x1
 4274 0a7f CA01     		.2byte	0x1ca
 4275 0a81 ED020000 		.4byte	0x2ed
 4276 0a85 A4080000 		.4byte	.LLST54
 4277 0a89 24       		.uleb128 0x24
 4278 0a8a 666D7400 		.ascii	"fmt\000"
 4279 0a8e 01       		.byte	0x1
 4280 0a8f CC01     		.2byte	0x1cc
 4281 0a91 41000000 		.4byte	0x41
 4282 0a95 C2080000 		.4byte	.LLST55
 4283 0a99 1A       		.uleb128 0x1a
 4284 0a9a 62756600 		.ascii	"buf\000"
 4285 0a9e 01       		.byte	0x1
 4286 0a9f CC01     		.2byte	0x1cc
 4287 0aa1 E90A0000 		.4byte	0xae9
 4288 0aa5 02       		.byte	0x2
 4289 0aa6 91       		.byte	0x91
 4290 0aa7 4C       		.sleb128 -52
 4291 0aa8 19       		.uleb128 0x19
 4292 0aa9 3A010000 		.4byte	.LASF76
 4293 0aad 01       		.byte	0x1
 4294 0aae CD01     		.2byte	0x1cd
 4295 0ab0 73000000 		.4byte	0x73
 4296 0ab4 0C090000 		.4byte	.LLST56
 4297 0ab8 19       		.uleb128 0x19
 4298 0ab9 77020000 		.4byte	.LASF20
 4299 0abd 01       		.byte	0x1
 4300 0abe CD01     		.2byte	0x1cd
 4301 0ac0 73000000 		.4byte	0x73
 4302 0ac4 35090000 		.4byte	.LLST57
 4303 0ac8 19       		.uleb128 0x19
 4304 0ac9 75010000 		.4byte	.LASF77
 4305 0acd 01       		.byte	0x1
 4306 0ace CD01     		.2byte	0x1cd
 4307 0ad0 73000000 		.4byte	0x73
 4308 0ad4 5E090000 		.4byte	.LLST58
 4309 0ad8 19       		.uleb128 0x19
 4310 0ad9 B6010000 		.4byte	.LASF78
 4311 0add 01       		.byte	0x1
 4312 0ade CD01     		.2byte	0x1cd
 4313 0ae0 73000000 		.4byte	0x73
 4314 0ae4 7C090000 		.4byte	.LLST59
 4315 0ae8 00       		.byte	0x0
 4316 0ae9 0A       		.uleb128 0xa
ARM GAS  /cygdrive/c/DOCUME~1/mkwapisz/LOCALS~1/Temp/ccd1rULD.s 			page 92


 4317 0aea F90A0000 		.4byte	0xaf9
 4318 0aee 41000000 		.4byte	0x41
 4319 0af2 0B       		.uleb128 0xb
 4320 0af3 2E020000 		.4byte	0x22e
 4321 0af7 23       		.byte	0x23
 4322 0af8 00       		.byte	0x0
 4323 0af9 32       		.uleb128 0x32
 4324 0afa 7C000000 		.4byte	.LASF79
 4325 0afe 01       		.byte	0x1
 4326 0aff 20       		.byte	0x20
 4327 0b00 ED020000 		.4byte	0x2ed
 4328 0b04 05       		.byte	0x5
 4329 0b05 03       		.byte	0x3
 4330 0b06 00000000 		.4byte	FatFs
 4331 0b0a 33       		.uleb128 0x33
 4332 0b0b 647200   		.ascii	"dr\000"
 4333 0b0e 01       		.byte	0x1
 4334 0b0f 4202     		.2byte	0x242
 4335 0b11 AC020000 		.4byte	0x2ac
 4336 0b15 01       		.byte	0x1
 4337 0b16 05       		.byte	0x5
 4338 0b17 03       		.byte	0x3
 4339 0b18 00000000 		.4byte	dr
 4340 0b1c 34       		.uleb128 0x34
 4341 0b1d 19030000 		.4byte	.LASF54
 4342 0b21 01       		.byte	0x1
 4343 0b22 4302     		.2byte	0x243
 4344 0b24 73000000 		.4byte	0x73
 4345 0b28 01       		.byte	0x1
 4346 0b29 05       		.byte	0x5
 4347 0b2a 03       		.byte	0x3
 4348 0b2b 00000000 		.4byte	clst
 4349 0b2f 34       		.uleb128 0x34
 4350 0b30 A0000000 		.4byte	.LASF30
 4351 0b34 01       		.byte	0x1
 4352 0b35 4402     		.2byte	0x244
 4353 0b37 73000000 		.4byte	0x73
 4354 0b3b 01       		.byte	0x1
 4355 0b3c 05       		.byte	0x5
 4356 0b3d 03       		.byte	0x3
 4357 0b3e 00000000 		.4byte	sect
 4358 0b42 34       		.uleb128 0x34
 4359 0b43 FD020000 		.4byte	.LASF80
 4360 0b47 01       		.byte	0x1
 4361 0b48 4402     		.2byte	0x244
 4362 0b4a 73000000 		.4byte	0x73
 4363 0b4e 01       		.byte	0x1
 4364 0b4f 05       		.byte	0x5
 4365 0b50 03       		.byte	0x3
 4366 0b51 00000000 		.4byte	remain
 4367 0b55 34       		.uleb128 0x34
 4368 0b56 38000000 		.4byte	.LASF81
 4369 0b5a 01       		.byte	0x1
 4370 0b5b 4502     		.2byte	0x245
 4371 0b5d 5D010000 		.4byte	0x15d
 4372 0b61 01       		.byte	0x1
 4373 0b62 05       		.byte	0x5
ARM GAS  /cygdrive/c/DOCUME~1/mkwapisz/LOCALS~1/Temp/ccd1rULD.s 			page 93


 4374 0b63 03       		.byte	0x3
 4375 0b64 00000000 		.4byte	rbuff
 4376 0b68 34       		.uleb128 0x34
 4377 0b69 3E000000 		.4byte	.LASF82
 4378 0b6d 01       		.byte	0x1
 4379 0b6e 4602     		.2byte	0x246
 4380 0b70 5A000000 		.4byte	0x5a
 4381 0b74 01       		.byte	0x1
 4382 0b75 05       		.byte	0x5
 4383 0b76 03       		.byte	0x3
 4384 0b77 00000000 		.4byte	rcnt
 4385 0b7b 33       		.uleb128 0x33
 4386 0b7c 667300   		.ascii	"fs\000"
 4387 0b7f 01       		.byte	0x1
 4388 0b80 4702     		.2byte	0x247
 4389 0b82 ED020000 		.4byte	0x2ed
 4390 0b86 01       		.byte	0x1
 4391 0b87 05       		.byte	0x5
 4392 0b88 03       		.byte	0x3
 4393 0b89 00000000 		.4byte	fs
 4394 0b8d 00       		.byte	0x0
 4395              		.section	.debug_abbrev
 4396 0000 01       		.uleb128 0x1
 4397 0001 11       		.uleb128 0x11
 4398 0002 01       		.byte	0x1
 4399 0003 10       		.uleb128 0x10
 4400 0004 06       		.uleb128 0x6
 4401 0005 12       		.uleb128 0x12
 4402 0006 01       		.uleb128 0x1
 4403 0007 11       		.uleb128 0x11
 4404 0008 01       		.uleb128 0x1
 4405 0009 25       		.uleb128 0x25
 4406 000a 0E       		.uleb128 0xe
 4407 000b 13       		.uleb128 0x13
 4408 000c 0B       		.uleb128 0xb
 4409 000d 03       		.uleb128 0x3
 4410 000e 0E       		.uleb128 0xe
 4411 000f 1B       		.uleb128 0x1b
 4412 0010 0E       		.uleb128 0xe
 4413 0011 00       		.byte	0x0
 4414 0012 00       		.byte	0x0
 4415 0013 02       		.uleb128 0x2
 4416 0014 24       		.uleb128 0x24
 4417 0015 00       		.byte	0x0
 4418 0016 03       		.uleb128 0x3
 4419 0017 08       		.uleb128 0x8
 4420 0018 0B       		.uleb128 0xb
 4421 0019 0B       		.uleb128 0xb
 4422 001a 3E       		.uleb128 0x3e
 4423 001b 0B       		.uleb128 0xb
 4424 001c 00       		.byte	0x0
 4425 001d 00       		.byte	0x0
 4426 001e 03       		.uleb128 0x3
 4427 001f 24       		.uleb128 0x24
 4428 0020 00       		.byte	0x0
 4429 0021 03       		.uleb128 0x3
 4430 0022 0E       		.uleb128 0xe
ARM GAS  /cygdrive/c/DOCUME~1/mkwapisz/LOCALS~1/Temp/ccd1rULD.s 			page 94


 4431 0023 0B       		.uleb128 0xb
 4432 0024 0B       		.uleb128 0xb
 4433 0025 3E       		.uleb128 0x3e
 4434 0026 0B       		.uleb128 0xb
 4435 0027 00       		.byte	0x0
 4436 0028 00       		.byte	0x0
 4437 0029 04       		.uleb128 0x4
 4438 002a 16       		.uleb128 0x16
 4439 002b 00       		.byte	0x0
 4440 002c 03       		.uleb128 0x3
 4441 002d 0E       		.uleb128 0xe
 4442 002e 3A       		.uleb128 0x3a
 4443 002f 0B       		.uleb128 0xb
 4444 0030 3B       		.uleb128 0x3b
 4445 0031 0B       		.uleb128 0xb
 4446 0032 49       		.uleb128 0x49
 4447 0033 13       		.uleb128 0x13
 4448 0034 00       		.byte	0x0
 4449 0035 00       		.byte	0x0
 4450 0036 05       		.uleb128 0x5
 4451 0037 13       		.uleb128 0x13
 4452 0038 01       		.byte	0x1
 4453 0039 01       		.uleb128 0x1
 4454 003a 13       		.uleb128 0x13
 4455 003b 03       		.uleb128 0x3
 4456 003c 0E       		.uleb128 0xe
 4457 003d 0B       		.uleb128 0xb
 4458 003e 0B       		.uleb128 0xb
 4459 003f 3A       		.uleb128 0x3a
 4460 0040 0B       		.uleb128 0xb
 4461 0041 3B       		.uleb128 0x3b
 4462 0042 0B       		.uleb128 0xb
 4463 0043 00       		.byte	0x0
 4464 0044 00       		.byte	0x0
 4465 0045 06       		.uleb128 0x6
 4466 0046 0D       		.uleb128 0xd
 4467 0047 00       		.byte	0x0
 4468 0048 03       		.uleb128 0x3
 4469 0049 0E       		.uleb128 0xe
 4470 004a 3A       		.uleb128 0x3a
 4471 004b 0B       		.uleb128 0xb
 4472 004c 3B       		.uleb128 0x3b
 4473 004d 0B       		.uleb128 0xb
 4474 004e 49       		.uleb128 0x49
 4475 004f 13       		.uleb128 0x13
 4476 0050 38       		.uleb128 0x38
 4477 0051 0A       		.uleb128 0xa
 4478 0052 00       		.byte	0x0
 4479 0053 00       		.byte	0x0
 4480 0054 07       		.uleb128 0x7
 4481 0055 0D       		.uleb128 0xd
 4482 0056 00       		.byte	0x0
 4483 0057 03       		.uleb128 0x3
 4484 0058 08       		.uleb128 0x8
 4485 0059 3A       		.uleb128 0x3a
 4486 005a 0B       		.uleb128 0xb
 4487 005b 3B       		.uleb128 0x3b
ARM GAS  /cygdrive/c/DOCUME~1/mkwapisz/LOCALS~1/Temp/ccd1rULD.s 			page 95


 4488 005c 0B       		.uleb128 0xb
 4489 005d 49       		.uleb128 0x49
 4490 005e 13       		.uleb128 0x13
 4491 005f 38       		.uleb128 0x38
 4492 0060 0A       		.uleb128 0xa
 4493 0061 00       		.byte	0x0
 4494 0062 00       		.byte	0x0
 4495 0063 08       		.uleb128 0x8
 4496 0064 0F       		.uleb128 0xf
 4497 0065 00       		.byte	0x0
 4498 0066 0B       		.uleb128 0xb
 4499 0067 0B       		.uleb128 0xb
 4500 0068 49       		.uleb128 0x49
 4501 0069 13       		.uleb128 0x13
 4502 006a 00       		.byte	0x0
 4503 006b 00       		.byte	0x0
 4504 006c 09       		.uleb128 0x9
 4505 006d 16       		.uleb128 0x16
 4506 006e 00       		.byte	0x0
 4507 006f 03       		.uleb128 0x3
 4508 0070 08       		.uleb128 0x8
 4509 0071 3A       		.uleb128 0x3a
 4510 0072 0B       		.uleb128 0xb
 4511 0073 3B       		.uleb128 0x3b
 4512 0074 0B       		.uleb128 0xb
 4513 0075 49       		.uleb128 0x49
 4514 0076 13       		.uleb128 0x13
 4515 0077 00       		.byte	0x0
 4516 0078 00       		.byte	0x0
 4517 0079 0A       		.uleb128 0xa
 4518 007a 01       		.uleb128 0x1
 4519 007b 01       		.byte	0x1
 4520 007c 01       		.uleb128 0x1
 4521 007d 13       		.uleb128 0x13
 4522 007e 49       		.uleb128 0x49
 4523 007f 13       		.uleb128 0x13
 4524 0080 00       		.byte	0x0
 4525 0081 00       		.byte	0x0
 4526 0082 0B       		.uleb128 0xb
 4527 0083 21       		.uleb128 0x21
 4528 0084 00       		.byte	0x0
 4529 0085 49       		.uleb128 0x49
 4530 0086 13       		.uleb128 0x13
 4531 0087 2F       		.uleb128 0x2f
 4532 0088 0B       		.uleb128 0xb
 4533 0089 00       		.byte	0x0
 4534 008a 00       		.byte	0x0
 4535 008b 0C       		.uleb128 0xc
 4536 008c 04       		.uleb128 0x4
 4537 008d 01       		.byte	0x1
 4538 008e 01       		.uleb128 0x1
 4539 008f 13       		.uleb128 0x13
 4540 0090 0B       		.uleb128 0xb
 4541 0091 0B       		.uleb128 0xb
 4542 0092 3A       		.uleb128 0x3a
 4543 0093 0B       		.uleb128 0xb
 4544 0094 3B       		.uleb128 0x3b
ARM GAS  /cygdrive/c/DOCUME~1/mkwapisz/LOCALS~1/Temp/ccd1rULD.s 			page 96


 4545 0095 0B       		.uleb128 0xb
 4546 0096 00       		.byte	0x0
 4547 0097 00       		.byte	0x0
 4548 0098 0D       		.uleb128 0xd
 4549 0099 28       		.uleb128 0x28
 4550 009a 00       		.byte	0x0
 4551 009b 03       		.uleb128 0x3
 4552 009c 0E       		.uleb128 0xe
 4553 009d 1C       		.uleb128 0x1c
 4554 009e 0D       		.uleb128 0xd
 4555 009f 00       		.byte	0x0
 4556 00a0 00       		.byte	0x0
 4557 00a1 0E       		.uleb128 0xe
 4558 00a2 2E       		.uleb128 0x2e
 4559 00a3 01       		.byte	0x1
 4560 00a4 01       		.uleb128 0x1
 4561 00a5 13       		.uleb128 0x13
 4562 00a6 03       		.uleb128 0x3
 4563 00a7 0E       		.uleb128 0xe
 4564 00a8 3A       		.uleb128 0x3a
 4565 00a9 0B       		.uleb128 0xb
 4566 00aa 3B       		.uleb128 0x3b
 4567 00ab 0B       		.uleb128 0xb
 4568 00ac 27       		.uleb128 0x27
 4569 00ad 0C       		.uleb128 0xc
 4570 00ae 49       		.uleb128 0x49
 4571 00af 13       		.uleb128 0x13
 4572 00b0 11       		.uleb128 0x11
 4573 00b1 01       		.uleb128 0x1
 4574 00b2 12       		.uleb128 0x12
 4575 00b3 01       		.uleb128 0x1
 4576 00b4 40       		.uleb128 0x40
 4577 00b5 0A       		.uleb128 0xa
 4578 00b6 00       		.byte	0x0
 4579 00b7 00       		.byte	0x0
 4580 00b8 0F       		.uleb128 0xf
 4581 00b9 05       		.uleb128 0x5
 4582 00ba 00       		.byte	0x0
 4583 00bb 03       		.uleb128 0x3
 4584 00bc 0E       		.uleb128 0xe
 4585 00bd 3A       		.uleb128 0x3a
 4586 00be 0B       		.uleb128 0xb
 4587 00bf 3B       		.uleb128 0x3b
 4588 00c0 0B       		.uleb128 0xb
 4589 00c1 49       		.uleb128 0x49
 4590 00c2 13       		.uleb128 0x13
 4591 00c3 02       		.uleb128 0x2
 4592 00c4 06       		.uleb128 0x6
 4593 00c5 00       		.byte	0x0
 4594 00c6 00       		.byte	0x0
 4595 00c7 10       		.uleb128 0x10
 4596 00c8 34       		.uleb128 0x34
 4597 00c9 00       		.byte	0x0
 4598 00ca 03       		.uleb128 0x3
 4599 00cb 08       		.uleb128 0x8
 4600 00cc 3A       		.uleb128 0x3a
 4601 00cd 0B       		.uleb128 0xb
ARM GAS  /cygdrive/c/DOCUME~1/mkwapisz/LOCALS~1/Temp/ccd1rULD.s 			page 97


 4602 00ce 3B       		.uleb128 0x3b
 4603 00cf 0B       		.uleb128 0xb
 4604 00d0 49       		.uleb128 0x49
 4605 00d1 13       		.uleb128 0x13
 4606 00d2 02       		.uleb128 0x2
 4607 00d3 0A       		.uleb128 0xa
 4608 00d4 00       		.byte	0x0
 4609 00d5 00       		.byte	0x0
 4610 00d6 11       		.uleb128 0x11
 4611 00d7 2E       		.uleb128 0x2e
 4612 00d8 01       		.byte	0x1
 4613 00d9 01       		.uleb128 0x1
 4614 00da 13       		.uleb128 0x13
 4615 00db 03       		.uleb128 0x3
 4616 00dc 0E       		.uleb128 0xe
 4617 00dd 3A       		.uleb128 0x3a
 4618 00de 0B       		.uleb128 0xb
 4619 00df 3B       		.uleb128 0x3b
 4620 00e0 0B       		.uleb128 0xb
 4621 00e1 27       		.uleb128 0x27
 4622 00e2 0C       		.uleb128 0xc
 4623 00e3 49       		.uleb128 0x49
 4624 00e4 13       		.uleb128 0x13
 4625 00e5 11       		.uleb128 0x11
 4626 00e6 01       		.uleb128 0x1
 4627 00e7 12       		.uleb128 0x12
 4628 00e8 01       		.uleb128 0x1
 4629 00e9 40       		.uleb128 0x40
 4630 00ea 06       		.uleb128 0x6
 4631 00eb 00       		.byte	0x0
 4632 00ec 00       		.byte	0x0
 4633 00ed 12       		.uleb128 0x12
 4634 00ee 05       		.uleb128 0x5
 4635 00ef 00       		.byte	0x0
 4636 00f0 03       		.uleb128 0x3
 4637 00f1 08       		.uleb128 0x8
 4638 00f2 3A       		.uleb128 0x3a
 4639 00f3 0B       		.uleb128 0xb
 4640 00f4 3B       		.uleb128 0x3b
 4641 00f5 0B       		.uleb128 0xb
 4642 00f6 49       		.uleb128 0x49
 4643 00f7 13       		.uleb128 0x13
 4644 00f8 02       		.uleb128 0x2
 4645 00f9 06       		.uleb128 0x6
 4646 00fa 00       		.byte	0x0
 4647 00fb 00       		.byte	0x0
 4648 00fc 13       		.uleb128 0x13
 4649 00fd 34       		.uleb128 0x34
 4650 00fe 00       		.byte	0x0
 4651 00ff 03       		.uleb128 0x3
 4652 0100 0E       		.uleb128 0xe
 4653 0101 3A       		.uleb128 0x3a
 4654 0102 0B       		.uleb128 0xb
 4655 0103 3B       		.uleb128 0x3b
 4656 0104 0B       		.uleb128 0xb
 4657 0105 49       		.uleb128 0x49
 4658 0106 13       		.uleb128 0x13
ARM GAS  /cygdrive/c/DOCUME~1/mkwapisz/LOCALS~1/Temp/ccd1rULD.s 			page 98


 4659 0107 02       		.uleb128 0x2
 4660 0108 06       		.uleb128 0x6
 4661 0109 00       		.byte	0x0
 4662 010a 00       		.byte	0x0
 4663 010b 14       		.uleb128 0x14
 4664 010c 34       		.uleb128 0x34
 4665 010d 00       		.byte	0x0
 4666 010e 03       		.uleb128 0x3
 4667 010f 08       		.uleb128 0x8
 4668 0110 3A       		.uleb128 0x3a
 4669 0111 0B       		.uleb128 0xb
 4670 0112 3B       		.uleb128 0x3b
 4671 0113 0B       		.uleb128 0xb
 4672 0114 49       		.uleb128 0x49
 4673 0115 13       		.uleb128 0x13
 4674 0116 02       		.uleb128 0x2
 4675 0117 06       		.uleb128 0x6
 4676 0118 00       		.byte	0x0
 4677 0119 00       		.byte	0x0
 4678 011a 15       		.uleb128 0x15
 4679 011b 2E       		.uleb128 0x2e
 4680 011c 01       		.byte	0x1
 4681 011d 01       		.uleb128 0x1
 4682 011e 13       		.uleb128 0x13
 4683 011f 03       		.uleb128 0x3
 4684 0120 0E       		.uleb128 0xe
 4685 0121 3A       		.uleb128 0x3a
 4686 0122 0B       		.uleb128 0xb
 4687 0123 3B       		.uleb128 0x3b
 4688 0124 05       		.uleb128 0x5
 4689 0125 27       		.uleb128 0x27
 4690 0126 0C       		.uleb128 0xc
 4691 0127 49       		.uleb128 0x49
 4692 0128 13       		.uleb128 0x13
 4693 0129 11       		.uleb128 0x11
 4694 012a 01       		.uleb128 0x1
 4695 012b 12       		.uleb128 0x12
 4696 012c 01       		.uleb128 0x1
 4697 012d 40       		.uleb128 0x40
 4698 012e 06       		.uleb128 0x6
 4699 012f 00       		.byte	0x0
 4700 0130 00       		.byte	0x0
 4701 0131 16       		.uleb128 0x16
 4702 0132 05       		.uleb128 0x5
 4703 0133 00       		.byte	0x0
 4704 0134 03       		.uleb128 0x3
 4705 0135 08       		.uleb128 0x8
 4706 0136 3A       		.uleb128 0x3a
 4707 0137 0B       		.uleb128 0xb
 4708 0138 3B       		.uleb128 0x3b
 4709 0139 05       		.uleb128 0x5
 4710 013a 49       		.uleb128 0x49
 4711 013b 13       		.uleb128 0x13
 4712 013c 02       		.uleb128 0x2
 4713 013d 06       		.uleb128 0x6
 4714 013e 00       		.byte	0x0
 4715 013f 00       		.byte	0x0
ARM GAS  /cygdrive/c/DOCUME~1/mkwapisz/LOCALS~1/Temp/ccd1rULD.s 			page 99


 4716 0140 17       		.uleb128 0x17
 4717 0141 05       		.uleb128 0x5
 4718 0142 00       		.byte	0x0
 4719 0143 03       		.uleb128 0x3
 4720 0144 0E       		.uleb128 0xe
 4721 0145 3A       		.uleb128 0x3a
 4722 0146 0B       		.uleb128 0xb
 4723 0147 3B       		.uleb128 0x3b
 4724 0148 05       		.uleb128 0x5
 4725 0149 49       		.uleb128 0x49
 4726 014a 13       		.uleb128 0x13
 4727 014b 02       		.uleb128 0x2
 4728 014c 06       		.uleb128 0x6
 4729 014d 00       		.byte	0x0
 4730 014e 00       		.byte	0x0
 4731 014f 18       		.uleb128 0x18
 4732 0150 2E       		.uleb128 0x2e
 4733 0151 01       		.byte	0x1
 4734 0152 01       		.uleb128 0x1
 4735 0153 13       		.uleb128 0x13
 4736 0154 3F       		.uleb128 0x3f
 4737 0155 0C       		.uleb128 0xc
 4738 0156 03       		.uleb128 0x3
 4739 0157 0E       		.uleb128 0xe
 4740 0158 3A       		.uleb128 0x3a
 4741 0159 0B       		.uleb128 0xb
 4742 015a 3B       		.uleb128 0x3b
 4743 015b 05       		.uleb128 0x5
 4744 015c 27       		.uleb128 0x27
 4745 015d 0C       		.uleb128 0xc
 4746 015e 49       		.uleb128 0x49
 4747 015f 13       		.uleb128 0x13
 4748 0160 11       		.uleb128 0x11
 4749 0161 01       		.uleb128 0x1
 4750 0162 12       		.uleb128 0x12
 4751 0163 01       		.uleb128 0x1
 4752 0164 40       		.uleb128 0x40
 4753 0165 06       		.uleb128 0x6
 4754 0166 00       		.byte	0x0
 4755 0167 00       		.byte	0x0
 4756 0168 19       		.uleb128 0x19
 4757 0169 34       		.uleb128 0x34
 4758 016a 00       		.byte	0x0
 4759 016b 03       		.uleb128 0x3
 4760 016c 0E       		.uleb128 0xe
 4761 016d 3A       		.uleb128 0x3a
 4762 016e 0B       		.uleb128 0xb
 4763 016f 3B       		.uleb128 0x3b
 4764 0170 05       		.uleb128 0x5
 4765 0171 49       		.uleb128 0x49
 4766 0172 13       		.uleb128 0x13
 4767 0173 02       		.uleb128 0x2
 4768 0174 06       		.uleb128 0x6
 4769 0175 00       		.byte	0x0
 4770 0176 00       		.byte	0x0
 4771 0177 1A       		.uleb128 0x1a
 4772 0178 34       		.uleb128 0x34
ARM GAS  /cygdrive/c/DOCUME~1/mkwapisz/LOCALS~1/Temp/ccd1rULD.s 			page 100


 4773 0179 00       		.byte	0x0
 4774 017a 03       		.uleb128 0x3
 4775 017b 08       		.uleb128 0x8
 4776 017c 3A       		.uleb128 0x3a
 4777 017d 0B       		.uleb128 0xb
 4778 017e 3B       		.uleb128 0x3b
 4779 017f 05       		.uleb128 0x5
 4780 0180 49       		.uleb128 0x49
 4781 0181 13       		.uleb128 0x13
 4782 0182 02       		.uleb128 0x2
 4783 0183 0A       		.uleb128 0xa
 4784 0184 00       		.byte	0x0
 4785 0185 00       		.byte	0x0
 4786 0186 1B       		.uleb128 0x1b
 4787 0187 34       		.uleb128 0x34
 4788 0188 00       		.byte	0x0
 4789 0189 03       		.uleb128 0x3
 4790 018a 0E       		.uleb128 0xe
 4791 018b 3A       		.uleb128 0x3a
 4792 018c 0B       		.uleb128 0xb
 4793 018d 3B       		.uleb128 0x3b
 4794 018e 05       		.uleb128 0x5
 4795 018f 49       		.uleb128 0x49
 4796 0190 13       		.uleb128 0x13
 4797 0191 02       		.uleb128 0x2
 4798 0192 0A       		.uleb128 0xa
 4799 0193 00       		.byte	0x0
 4800 0194 00       		.byte	0x0
 4801 0195 1C       		.uleb128 0x1c
 4802 0196 0A       		.uleb128 0xa
 4803 0197 00       		.byte	0x0
 4804 0198 03       		.uleb128 0x3
 4805 0199 0E       		.uleb128 0xe
 4806 019a 3A       		.uleb128 0x3a
 4807 019b 0B       		.uleb128 0xb
 4808 019c 3B       		.uleb128 0x3b
 4809 019d 05       		.uleb128 0x5
 4810 019e 11       		.uleb128 0x11
 4811 019f 01       		.uleb128 0x1
 4812 01a0 00       		.byte	0x0
 4813 01a1 00       		.byte	0x0
 4814 01a2 1D       		.uleb128 0x1d
 4815 01a3 0F       		.uleb128 0xf
 4816 01a4 00       		.byte	0x0
 4817 01a5 0B       		.uleb128 0xb
 4818 01a6 0B       		.uleb128 0xb
 4819 01a7 00       		.byte	0x0
 4820 01a8 00       		.byte	0x0
 4821 01a9 1E       		.uleb128 0x1e
 4822 01aa 2E       		.uleb128 0x2e
 4823 01ab 01       		.byte	0x1
 4824 01ac 01       		.uleb128 0x1
 4825 01ad 13       		.uleb128 0x13
 4826 01ae 03       		.uleb128 0x3
 4827 01af 0E       		.uleb128 0xe
 4828 01b0 3A       		.uleb128 0x3a
 4829 01b1 0B       		.uleb128 0xb
ARM GAS  /cygdrive/c/DOCUME~1/mkwapisz/LOCALS~1/Temp/ccd1rULD.s 			page 101


 4830 01b2 3B       		.uleb128 0x3b
 4831 01b3 0B       		.uleb128 0xb
 4832 01b4 27       		.uleb128 0x27
 4833 01b5 0C       		.uleb128 0xc
 4834 01b6 49       		.uleb128 0x49
 4835 01b7 13       		.uleb128 0x13
 4836 01b8 20       		.uleb128 0x20
 4837 01b9 0B       		.uleb128 0xb
 4838 01ba 00       		.byte	0x0
 4839 01bb 00       		.byte	0x0
 4840 01bc 1F       		.uleb128 0x1f
 4841 01bd 05       		.uleb128 0x5
 4842 01be 00       		.byte	0x0
 4843 01bf 03       		.uleb128 0x3
 4844 01c0 08       		.uleb128 0x8
 4845 01c1 3A       		.uleb128 0x3a
 4846 01c2 0B       		.uleb128 0xb
 4847 01c3 3B       		.uleb128 0x3b
 4848 01c4 0B       		.uleb128 0xb
 4849 01c5 49       		.uleb128 0x49
 4850 01c6 13       		.uleb128 0x13
 4851 01c7 00       		.byte	0x0
 4852 01c8 00       		.byte	0x0
 4853 01c9 20       		.uleb128 0x20
 4854 01ca 34       		.uleb128 0x34
 4855 01cb 00       		.byte	0x0
 4856 01cc 03       		.uleb128 0x3
 4857 01cd 08       		.uleb128 0x8
 4858 01ce 3A       		.uleb128 0x3a
 4859 01cf 0B       		.uleb128 0xb
 4860 01d0 3B       		.uleb128 0x3b
 4861 01d1 0B       		.uleb128 0xb
 4862 01d2 49       		.uleb128 0x49
 4863 01d3 13       		.uleb128 0x13
 4864 01d4 00       		.byte	0x0
 4865 01d5 00       		.byte	0x0
 4866 01d6 21       		.uleb128 0x21
 4867 01d7 2E       		.uleb128 0x2e
 4868 01d8 01       		.byte	0x1
 4869 01d9 01       		.uleb128 0x1
 4870 01da 13       		.uleb128 0x13
 4871 01db 03       		.uleb128 0x3
 4872 01dc 0E       		.uleb128 0xe
 4873 01dd 3A       		.uleb128 0x3a
 4874 01de 0B       		.uleb128 0xb
 4875 01df 3B       		.uleb128 0x3b
 4876 01e0 05       		.uleb128 0x5
 4877 01e1 27       		.uleb128 0x27
 4878 01e2 0C       		.uleb128 0xc
 4879 01e3 20       		.uleb128 0x20
 4880 01e4 0B       		.uleb128 0xb
 4881 01e5 00       		.byte	0x0
 4882 01e6 00       		.byte	0x0
 4883 01e7 22       		.uleb128 0x22
 4884 01e8 05       		.uleb128 0x5
 4885 01e9 00       		.byte	0x0
 4886 01ea 03       		.uleb128 0x3
ARM GAS  /cygdrive/c/DOCUME~1/mkwapisz/LOCALS~1/Temp/ccd1rULD.s 			page 102


 4887 01eb 08       		.uleb128 0x8
 4888 01ec 3A       		.uleb128 0x3a
 4889 01ed 0B       		.uleb128 0xb
 4890 01ee 3B       		.uleb128 0x3b
 4891 01ef 05       		.uleb128 0x5
 4892 01f0 49       		.uleb128 0x49
 4893 01f1 13       		.uleb128 0x13
 4894 01f2 00       		.byte	0x0
 4895 01f3 00       		.byte	0x0
 4896 01f4 23       		.uleb128 0x23
 4897 01f5 34       		.uleb128 0x34
 4898 01f6 00       		.byte	0x0
 4899 01f7 03       		.uleb128 0x3
 4900 01f8 08       		.uleb128 0x8
 4901 01f9 3A       		.uleb128 0x3a
 4902 01fa 0B       		.uleb128 0xb
 4903 01fb 3B       		.uleb128 0x3b
 4904 01fc 05       		.uleb128 0x5
 4905 01fd 49       		.uleb128 0x49
 4906 01fe 13       		.uleb128 0x13
 4907 01ff 00       		.byte	0x0
 4908 0200 00       		.byte	0x0
 4909 0201 24       		.uleb128 0x24
 4910 0202 34       		.uleb128 0x34
 4911 0203 00       		.byte	0x0
 4912 0204 03       		.uleb128 0x3
 4913 0205 08       		.uleb128 0x8
 4914 0206 3A       		.uleb128 0x3a
 4915 0207 0B       		.uleb128 0xb
 4916 0208 3B       		.uleb128 0x3b
 4917 0209 05       		.uleb128 0x5
 4918 020a 49       		.uleb128 0x49
 4919 020b 13       		.uleb128 0x13
 4920 020c 02       		.uleb128 0x2
 4921 020d 06       		.uleb128 0x6
 4922 020e 00       		.byte	0x0
 4923 020f 00       		.byte	0x0
 4924 0210 25       		.uleb128 0x25
 4925 0211 1D       		.uleb128 0x1d
 4926 0212 01       		.byte	0x1
 4927 0213 01       		.uleb128 0x1
 4928 0214 13       		.uleb128 0x13
 4929 0215 31       		.uleb128 0x31
 4930 0216 13       		.uleb128 0x13
 4931 0217 55       		.uleb128 0x55
 4932 0218 06       		.uleb128 0x6
 4933 0219 58       		.uleb128 0x58
 4934 021a 0B       		.uleb128 0xb
 4935 021b 59       		.uleb128 0x59
 4936 021c 05       		.uleb128 0x5
 4937 021d 00       		.byte	0x0
 4938 021e 00       		.byte	0x0
 4939 021f 26       		.uleb128 0x26
 4940 0220 05       		.uleb128 0x5
 4941 0221 00       		.byte	0x0
 4942 0222 31       		.uleb128 0x31
 4943 0223 13       		.uleb128 0x13
ARM GAS  /cygdrive/c/DOCUME~1/mkwapisz/LOCALS~1/Temp/ccd1rULD.s 			page 103


 4944 0224 00       		.byte	0x0
 4945 0225 00       		.byte	0x0
 4946 0226 27       		.uleb128 0x27
 4947 0227 0B       		.uleb128 0xb
 4948 0228 01       		.byte	0x1
 4949 0229 55       		.uleb128 0x55
 4950 022a 06       		.uleb128 0x6
 4951 022b 00       		.byte	0x0
 4952 022c 00       		.byte	0x0
 4953 022d 28       		.uleb128 0x28
 4954 022e 34       		.uleb128 0x34
 4955 022f 00       		.byte	0x0
 4956 0230 31       		.uleb128 0x31
 4957 0231 13       		.uleb128 0x13
 4958 0232 00       		.byte	0x0
 4959 0233 00       		.byte	0x0
 4960 0234 29       		.uleb128 0x29
 4961 0235 34       		.uleb128 0x34
 4962 0236 00       		.byte	0x0
 4963 0237 31       		.uleb128 0x31
 4964 0238 13       		.uleb128 0x13
 4965 0239 02       		.uleb128 0x2
 4966 023a 06       		.uleb128 0x6
 4967 023b 00       		.byte	0x0
 4968 023c 00       		.byte	0x0
 4969 023d 2A       		.uleb128 0x2a
 4970 023e 1D       		.uleb128 0x1d
 4971 023f 01       		.byte	0x1
 4972 0240 31       		.uleb128 0x31
 4973 0241 13       		.uleb128 0x13
 4974 0242 55       		.uleb128 0x55
 4975 0243 06       		.uleb128 0x6
 4976 0244 58       		.uleb128 0x58
 4977 0245 0B       		.uleb128 0xb
 4978 0246 59       		.uleb128 0x59
 4979 0247 05       		.uleb128 0x5
 4980 0248 00       		.byte	0x0
 4981 0249 00       		.byte	0x0
 4982 024a 2B       		.uleb128 0x2b
 4983 024b 2E       		.uleb128 0x2e
 4984 024c 01       		.byte	0x1
 4985 024d 01       		.uleb128 0x1
 4986 024e 13       		.uleb128 0x13
 4987 024f 03       		.uleb128 0x3
 4988 0250 0E       		.uleb128 0xe
 4989 0251 3A       		.uleb128 0x3a
 4990 0252 0B       		.uleb128 0xb
 4991 0253 3B       		.uleb128 0x3b
 4992 0254 05       		.uleb128 0x5
 4993 0255 27       		.uleb128 0x27
 4994 0256 0C       		.uleb128 0xc
 4995 0257 49       		.uleb128 0x49
 4996 0258 13       		.uleb128 0x13
 4997 0259 20       		.uleb128 0x20
 4998 025a 0B       		.uleb128 0xb
 4999 025b 00       		.byte	0x0
 5000 025c 00       		.byte	0x0
ARM GAS  /cygdrive/c/DOCUME~1/mkwapisz/LOCALS~1/Temp/ccd1rULD.s 			page 104


 5001 025d 2C       		.uleb128 0x2c
 5002 025e 05       		.uleb128 0x5
 5003 025f 00       		.byte	0x0
 5004 0260 03       		.uleb128 0x3
 5005 0261 0E       		.uleb128 0xe
 5006 0262 3A       		.uleb128 0x3a
 5007 0263 0B       		.uleb128 0xb
 5008 0264 3B       		.uleb128 0x3b
 5009 0265 05       		.uleb128 0x5
 5010 0266 49       		.uleb128 0x49
 5011 0267 13       		.uleb128 0x13
 5012 0268 00       		.byte	0x0
 5013 0269 00       		.byte	0x0
 5014 026a 2D       		.uleb128 0x2d
 5015 026b 26       		.uleb128 0x26
 5016 026c 00       		.byte	0x0
 5017 026d 49       		.uleb128 0x49
 5018 026e 13       		.uleb128 0x13
 5019 026f 00       		.byte	0x0
 5020 0270 00       		.byte	0x0
 5021 0271 2E       		.uleb128 0x2e
 5022 0272 2E       		.uleb128 0x2e
 5023 0273 01       		.byte	0x1
 5024 0274 01       		.uleb128 0x1
 5025 0275 13       		.uleb128 0x13
 5026 0276 03       		.uleb128 0x3
 5027 0277 0E       		.uleb128 0xe
 5028 0278 3A       		.uleb128 0x3a
 5029 0279 0B       		.uleb128 0xb
 5030 027a 3B       		.uleb128 0x3b
 5031 027b 0B       		.uleb128 0xb
 5032 027c 27       		.uleb128 0x27
 5033 027d 0C       		.uleb128 0xc
 5034 027e 20       		.uleb128 0x20
 5035 027f 0B       		.uleb128 0xb
 5036 0280 00       		.byte	0x0
 5037 0281 00       		.byte	0x0
 5038 0282 2F       		.uleb128 0x2f
 5039 0283 26       		.uleb128 0x26
 5040 0284 00       		.byte	0x0
 5041 0285 00       		.byte	0x0
 5042 0286 00       		.byte	0x0
 5043 0287 30       		.uleb128 0x30
 5044 0288 0B       		.uleb128 0xb
 5045 0289 01       		.byte	0x1
 5046 028a 01       		.uleb128 0x1
 5047 028b 13       		.uleb128 0x13
 5048 028c 55       		.uleb128 0x55
 5049 028d 06       		.uleb128 0x6
 5050 028e 00       		.byte	0x0
 5051 028f 00       		.byte	0x0
 5052 0290 31       		.uleb128 0x31
 5053 0291 1D       		.uleb128 0x1d
 5054 0292 01       		.byte	0x1
 5055 0293 31       		.uleb128 0x31
 5056 0294 13       		.uleb128 0x13
 5057 0295 55       		.uleb128 0x55
ARM GAS  /cygdrive/c/DOCUME~1/mkwapisz/LOCALS~1/Temp/ccd1rULD.s 			page 105


 5058 0296 06       		.uleb128 0x6
 5059 0297 58       		.uleb128 0x58
 5060 0298 0B       		.uleb128 0xb
 5061 0299 59       		.uleb128 0x59
 5062 029a 0B       		.uleb128 0xb
 5063 029b 00       		.byte	0x0
 5064 029c 00       		.byte	0x0
 5065 029d 32       		.uleb128 0x32
 5066 029e 34       		.uleb128 0x34
 5067 029f 00       		.byte	0x0
 5068 02a0 03       		.uleb128 0x3
 5069 02a1 0E       		.uleb128 0xe
 5070 02a2 3A       		.uleb128 0x3a
 5071 02a3 0B       		.uleb128 0xb
 5072 02a4 3B       		.uleb128 0x3b
 5073 02a5 0B       		.uleb128 0xb
 5074 02a6 49       		.uleb128 0x49
 5075 02a7 13       		.uleb128 0x13
 5076 02a8 02       		.uleb128 0x2
 5077 02a9 0A       		.uleb128 0xa
 5078 02aa 00       		.byte	0x0
 5079 02ab 00       		.byte	0x0
 5080 02ac 33       		.uleb128 0x33
 5081 02ad 34       		.uleb128 0x34
 5082 02ae 00       		.byte	0x0
 5083 02af 03       		.uleb128 0x3
 5084 02b0 08       		.uleb128 0x8
 5085 02b1 3A       		.uleb128 0x3a
 5086 02b2 0B       		.uleb128 0xb
 5087 02b3 3B       		.uleb128 0x3b
 5088 02b4 05       		.uleb128 0x5
 5089 02b5 49       		.uleb128 0x49
 5090 02b6 13       		.uleb128 0x13
 5091 02b7 3F       		.uleb128 0x3f
 5092 02b8 0C       		.uleb128 0xc
 5093 02b9 02       		.uleb128 0x2
 5094 02ba 0A       		.uleb128 0xa
 5095 02bb 00       		.byte	0x0
 5096 02bc 00       		.byte	0x0
 5097 02bd 34       		.uleb128 0x34
 5098 02be 34       		.uleb128 0x34
 5099 02bf 00       		.byte	0x0
 5100 02c0 03       		.uleb128 0x3
 5101 02c1 0E       		.uleb128 0xe
 5102 02c2 3A       		.uleb128 0x3a
 5103 02c3 0B       		.uleb128 0xb
 5104 02c4 3B       		.uleb128 0x3b
 5105 02c5 05       		.uleb128 0x5
 5106 02c6 49       		.uleb128 0x49
 5107 02c7 13       		.uleb128 0x13
 5108 02c8 3F       		.uleb128 0x3f
 5109 02c9 0C       		.uleb128 0xc
 5110 02ca 02       		.uleb128 0x2
 5111 02cb 0A       		.uleb128 0xa
 5112 02cc 00       		.byte	0x0
 5113 02cd 00       		.byte	0x0
 5114 02ce 00       		.byte	0x0
ARM GAS  /cygdrive/c/DOCUME~1/mkwapisz/LOCALS~1/Temp/ccd1rULD.s 			page 106


 5115              		.section	.debug_pubnames,"",%progbits
 5116 0000 9C000000 		.4byte	0x9c
 5117 0004 0200     		.2byte	0x2
 5118 0006 00000000 		.4byte	.Ldebug_info0
 5119 000a 8E0B0000 		.4byte	0xb8e
 5120 000e 00040000 		.4byte	0x400
 5121 0012 70665F6C 		.ascii	"pf_lseek\000"
 5121      7365656B 
 5121      00
 5122 001b 84040000 		.4byte	0x484
 5123 001f 70665F72 		.ascii	"pf_read\000"
 5123      65616400 
 5124 0027 D7050000 		.4byte	0x5d7
 5125 002b 70665F72 		.ascii	"pf_readdir\000"
 5125      65616464 
 5125      697200
 5126 0036 6A090000 		.4byte	0x96a
 5127 003a 70665F6F 		.ascii	"pf_opendir\000"
 5127      70656E64 
 5127      697200
 5128 0045 E4090000 		.4byte	0x9e4
 5129 0049 70665F6F 		.ascii	"pf_open\000"
 5129      70656E00 
 5130 0051 5C0A0000 		.4byte	0xa5c
 5131 0055 70665F6D 		.ascii	"pf_mount\000"
 5131      6F756E74 
 5131      00
 5132 005e 0A0B0000 		.4byte	0xb0a
 5133 0062 647200   		.ascii	"dr\000"
 5134 0065 1C0B0000 		.4byte	0xb1c
 5135 0069 636C7374 		.ascii	"clst\000"
 5135      00
 5136 006e 2F0B0000 		.4byte	0xb2f
 5137 0072 73656374 		.ascii	"sect\000"
 5137      00
 5138 0077 420B0000 		.4byte	0xb42
 5139 007b 72656D61 		.ascii	"remain\000"
 5139      696E00
 5140 0082 550B0000 		.4byte	0xb55
 5141 0086 72627566 		.ascii	"rbuff\000"
 5141      6600
 5142 008c 680B0000 		.4byte	0xb68
 5143 0090 72636E74 		.ascii	"rcnt\000"
 5143      00
 5144 0095 7B0B0000 		.4byte	0xb7b
 5145 0099 667300   		.ascii	"fs\000"
 5146 009c 00000000 		.4byte	0x0
 5147              		.section	.debug_aranges,"",%progbits
 5148 0000 1C000000 		.4byte	0x1c
 5149 0004 0200     		.2byte	0x2
 5150 0006 00000000 		.4byte	.Ldebug_info0
 5151 000a 04       		.byte	0x4
 5152 000b 00       		.byte	0x0
 5153 000c 0000     		.2byte	0x0
 5154 000e 0000     		.2byte	0x0
 5155 0010 00000000 		.4byte	.Ltext0
 5156 0014 900E0000 		.4byte	.Letext0-.Ltext0
ARM GAS  /cygdrive/c/DOCUME~1/mkwapisz/LOCALS~1/Temp/ccd1rULD.s 			page 107


 5157 0018 00000000 		.4byte	0x0
 5158 001c 00000000 		.4byte	0x0
 5159              		.section	.debug_ranges,"",%progbits
 5160              	.Ldebug_ranges0:
 5161 0000 2C070000 		.4byte	.LBB6-.Ltext0
 5162 0004 34070000 		.4byte	.LBE6-.Ltext0
 5163 0008 BC070000 		.4byte	.LBB13-.Ltext0
 5164 000c C0070000 		.4byte	.LBE13-.Ltext0
 5165 0010 44070000 		.4byte	.LBB8-.Ltext0
 5166 0014 B8070000 		.4byte	.LBE8-.Ltext0
 5167 0018 00000000 		.4byte	0x0
 5168 001c 00000000 		.4byte	0x0
 5169 0020 2C070000 		.4byte	.LBB7-.Ltext0
 5170 0024 34070000 		.4byte	.LBE7-.Ltext0
 5171 0028 BC070000 		.4byte	.LBB14-.Ltext0
 5172 002c C0070000 		.4byte	.LBE14-.Ltext0
 5173 0030 A8070000 		.4byte	.LBB12-.Ltext0
 5174 0034 B8070000 		.4byte	.LBE12-.Ltext0
 5175 0038 90070000 		.4byte	.LBB11-.Ltext0
 5176 003c A0070000 		.4byte	.LBE11-.Ltext0
 5177 0040 64070000 		.4byte	.LBB10-.Ltext0
 5178 0044 8C070000 		.4byte	.LBE10-.Ltext0
 5179 0048 54070000 		.4byte	.LBB9-.Ltext0
 5180 004c 60070000 		.4byte	.LBE9-.Ltext0
 5181 0050 00000000 		.4byte	0x0
 5182 0054 00000000 		.4byte	0x0
 5183 0058 CC070000 		.4byte	.LBB15-.Ltext0
 5184 005c AC080000 		.4byte	.LBE15-.Ltext0
 5185 0060 D0080000 		.4byte	.LBB17-.Ltext0
 5186 0064 D8080000 		.4byte	.LBE17-.Ltext0
 5187 0068 00000000 		.4byte	0x0
 5188 006c 00000000 		.4byte	0x0
 5189 0070 CC070000 		.4byte	.LBB16-.Ltext0
 5190 0074 AC080000 		.4byte	.LBE16-.Ltext0
 5191 0078 D0080000 		.4byte	.LBB18-.Ltext0
 5192 007c D8080000 		.4byte	.LBE18-.Ltext0
 5193 0080 00000000 		.4byte	0x0
 5194 0084 00000000 		.4byte	0x0
 5195 0088 44090000 		.4byte	.LBB27-.Ltext0
 5196 008c D8090000 		.4byte	.LBE27-.Ltext0
 5197 0090 D80A0000 		.4byte	.LBB45-.Ltext0
 5198 0094 DC0A0000 		.4byte	.LBE45-.Ltext0
 5199 0098 00000000 		.4byte	0x0
 5200 009c 00000000 		.4byte	0x0
 5201 00a0 44090000 		.4byte	.LBB28-.Ltext0
 5202 00a4 74090000 		.4byte	.LBE28-.Ltext0
 5203 00a8 D80A0000 		.4byte	.LBB46-.Ltext0
 5204 00ac DC0A0000 		.4byte	.LBE46-.Ltext0
 5205 00b0 B0090000 		.4byte	.LBB35-.Ltext0
 5206 00b4 D8090000 		.4byte	.LBE35-.Ltext0
 5207 00b8 A0090000 		.4byte	.LBB32-.Ltext0
 5208 00bc A8090000 		.4byte	.LBE32-.Ltext0
 5209 00c0 7C090000 		.4byte	.LBB31-.Ltext0
 5210 00c4 88090000 		.4byte	.LBE31-.Ltext0
 5211 00c8 00000000 		.4byte	0x0
 5212 00cc 00000000 		.4byte	0x0
 5213 00d0 4C090000 		.4byte	.LBB29-.Ltext0
ARM GAS  /cygdrive/c/DOCUME~1/mkwapisz/LOCALS~1/Temp/ccd1rULD.s 			page 108


 5214 00d4 6C090000 		.4byte	.LBE29-.Ltext0
 5215 00d8 A0090000 		.4byte	.LBB33-.Ltext0
 5216 00dc A8090000 		.4byte	.LBE33-.Ltext0
 5217 00e0 00000000 		.4byte	0x0
 5218 00e4 00000000 		.4byte	0x0
 5219 00e8 4C090000 		.4byte	.LBB30-.Ltext0
 5220 00ec 6C090000 		.4byte	.LBE30-.Ltext0
 5221 00f0 A0090000 		.4byte	.LBB34-.Ltext0
 5222 00f4 A8090000 		.4byte	.LBE34-.Ltext0
 5223 00f8 00000000 		.4byte	0x0
 5224 00fc 00000000 		.4byte	0x0
 5225 0100 D8090000 		.4byte	.LBB36-.Ltext0
 5226 0104 640A0000 		.4byte	.LBE36-.Ltext0
 5227 0108 740A0000 		.4byte	.LBB43-.Ltext0
 5228 010c 840A0000 		.4byte	.LBE43-.Ltext0
 5229 0110 00000000 		.4byte	0x0
 5230 0114 00000000 		.4byte	0x0
 5231 0118 E0090000 		.4byte	.LBB37-.Ltext0
 5232 011c F4090000 		.4byte	.LBE37-.Ltext0
 5233 0120 7C0A0000 		.4byte	.LBB44-.Ltext0
 5234 0124 840A0000 		.4byte	.LBE44-.Ltext0
 5235 0128 100A0000 		.4byte	.LBB38-.Ltext0
 5236 012c 640A0000 		.4byte	.LBE38-.Ltext0
 5237 0130 00000000 		.4byte	0x0
 5238 0134 00000000 		.4byte	0x0
 5239 0138 440A0000 		.4byte	.LBB39-.Ltext0
 5240 013c 580A0000 		.4byte	.LBE39-.Ltext0
 5241 0140 5C0A0000 		.4byte	.LBB41-.Ltext0
 5242 0144 640A0000 		.4byte	.LBE41-.Ltext0
 5243 0148 00000000 		.4byte	0x0
 5244 014c 00000000 		.4byte	0x0
 5245 0150 440A0000 		.4byte	.LBB40-.Ltext0
 5246 0154 580A0000 		.4byte	.LBE40-.Ltext0
 5247 0158 5C0A0000 		.4byte	.LBB42-.Ltext0
 5248 015c 640A0000 		.4byte	.LBE42-.Ltext0
 5249 0160 00000000 		.4byte	0x0
 5250 0164 00000000 		.4byte	0x0
 5251              		.section	.debug_str,"MS",%progbits,1
 5252              	.LASF68:
 5253 0000 70617468 		.ascii	"path\000"
 5253      00
 5254              	.LASF45:
 5255 0005 46525F4E 		.ascii	"FR_NO_FILESYSTEM\000"
 5255      4F5F4649 
 5255      4C455359 
 5255      5354454D 
 5255      00
 5256              	.LASF48:
 5257 0016 5245535F 		.ascii	"RES_ERROR\000"
 5257      4552524F 
 5257      5200
 5258              	.LASF59:
 5259 0020 70665F72 		.ascii	"pf_read\000"
 5259      65616400 
 5260              	.LASF10:
 5261 0028 66735F74 		.ascii	"fs_type\000"
 5261      79706500 
ARM GAS  /cygdrive/c/DOCUME~1/mkwapisz/LOCALS~1/Temp/ccd1rULD.s 			page 109


 5262              	.LASF25:
 5263 0030 5F464154 		.ascii	"_FATFS_\000"
 5263      46535F00 
 5264              	.LASF81:
 5265 0038 72627566 		.ascii	"rbuff\000"
 5265      6600
 5266              	.LASF82:
 5267 003e 72636E74 		.ascii	"rcnt\000"
 5267      00
 5268              	.LASF3:
 5269 0043 73686F72 		.ascii	"short int\000"
 5269      7420696E 
 5269      7400
 5270              	.LASF74:
 5271 004d 70665F6F 		.ascii	"pf_open\000"
 5271      70656E00 
 5272              	.LASF43:
 5273 0055 46525F4E 		.ascii	"FR_NOT_OPENED\000"
 5273      4F545F4F 
 5273      50454E45 
 5273      4400
 5274              	.LASF23:
 5275 0063 64736563 		.ascii	"dsect\000"
 5275      7400
 5276              	.LASF75:
 5277 0069 70665F6D 		.ascii	"pf_mount\000"
 5277      6F756E74 
 5277      00
 5278              	.LASF15:
 5279 0072 6D61785F 		.ascii	"max_clust\000"
 5279      636C7573 
 5279      7400
 5280              	.LASF79:
 5281 007c 46617446 		.ascii	"FatFs\000"
 5281      7300
 5282              	.LASF42:
 5283 0082 46525F4E 		.ascii	"FR_NO_PATH\000"
 5283      4F5F5041 
 5283      544800
 5284              	.LASF60:
 5285 008d 62756666 		.ascii	"buff\000"
 5285      00
 5286              	.LASF18:
 5287 0092 64617461 		.ascii	"database\000"
 5287      62617365 
 5287      00
 5288              	.LASF5:
 5289 009b 42595445 		.ascii	"BYTE\000"
 5289      00
 5290              	.LASF30:
 5291 00a0 73656374 		.ascii	"sect\000"
 5291      00
 5292              	.LASF14:
 5293 00a5 6E5F726F 		.ascii	"n_rootdir\000"
 5293      6F746469 
 5293      7200
 5294              	.LASF33:
ARM GAS  /cygdrive/c/DOCUME~1/mkwapisz/LOCALS~1/Temp/ccd1rULD.s 			page 110


 5295 00af 6674696D 		.ascii	"ftime\000"
 5295      6500
 5296              	.LASF52:
 5297 00b5 636C7573 		.ascii	"clust2sect\000"
 5297      74327365 
 5297      637400
 5298              	.LASF6:
 5299 00c0 574F5244 		.ascii	"WORD\000"
 5299      00
 5300              	.LASF27:
 5301 00c5 696E6465 		.ascii	"index\000"
 5301      7800
 5302              	.LASF38:
 5303 00cb 46525F4F 		.ascii	"FR_OK\000"
 5303      4B00
 5304              	.LASF58:
 5305 00d1 70665F6C 		.ascii	"pf_lseek\000"
 5305      7365656B 
 5305      00
 5306              	.LASF39:
 5307 00da 46525F44 		.ascii	"FR_DISK_ERR\000"
 5307      49534B5F 
 5307      45525200 
 5308              	.LASF83:
 5309 00e6 474E5520 		.ascii	"GNU C 4.1.1\000"
 5309      4320342E 
 5309      312E3100 
 5310              	.LASF73:
 5311 00f2 70665F6F 		.ascii	"pf_opendir\000"
 5311      70656E64 
 5311      697200
 5312              	.LASF21:
 5313 00fd 6F72675F 		.ascii	"org_clust\000"
 5313      636C7573 
 5313      7400
 5314              	.LASF12:
 5315 0107 666C6167 		.ascii	"flag\000"
 5315      00
 5316              	.LASF31:
 5317 010c 5F46494C 		.ascii	"_FILINFO_\000"
 5317      494E464F 
 5317      5F00
 5318              	.LASF47:
 5319 0116 5245535F 		.ascii	"RES_OK\000"
 5319      4F4B00
 5320              	.LASF29:
 5321 011d 636C7573 		.ascii	"clust\000"
 5321      7400
 5322              	.LASF11:
 5323 0123 6373697A 		.ascii	"csize\000"
 5323      6500
 5324              	.LASF17:
 5325 0129 64697262 		.ascii	"dirbase\000"
 5325      61736500 
 5326              	.LASF62:
 5327 0131 66725F61 		.ascii	"fr_abort\000"
 5327      626F7274 
ARM GAS  /cygdrive/c/DOCUME~1/mkwapisz/LOCALS~1/Temp/ccd1rULD.s 			page 111


 5327      00
 5328              	.LASF76:
 5329 013a 62736563 		.ascii	"bsect\000"
 5329      7400
 5330              	.LASF40:
 5331 0140 46525F4E 		.ascii	"FR_NOT_READY\000"
 5331      4F545F52 
 5331      45414459 
 5331      00
 5332              	.LASF9:
 5333 014d 44574F52 		.ascii	"DWORD\000"
 5333      4400
 5334              	.LASF53:
 5335 0153 6469725F 		.ascii	"dir_rewind\000"
 5335      72657769 
 5335      6E6400
 5336              	.LASF63:
 5337 015e 6469725F 		.ascii	"dir_next\000"
 5337      6E657874 
 5337      00
 5338              	.LASF2:
 5339 0167 756E7369 		.ascii	"unsigned char\000"
 5339      676E6564 
 5339      20636861 
 5339      7200
 5340              	.LASF77:
 5341 0175 74736563 		.ascii	"tsect\000"
 5341      7400
 5342              	.LASF1:
 5343 017b 7369676E 		.ascii	"signed char\000"
 5343      65642063 
 5343      68617200 
 5344              	.LASF67:
 5345 0187 63726561 		.ascii	"create_name\000"
 5345      74655F6E 
 5345      616D6500 
 5346              	.LASF0:
 5347 0193 756E7369 		.ascii	"unsigned int\000"
 5347      676E6564 
 5347      20696E74 
 5347      00
 5348              	.LASF56:
 5349 01a0 6765745F 		.ascii	"get_fat\000"
 5349      66617400 
 5350              	.LASF19:
 5351 01a8 66707472 		.ascii	"fptr\000"
 5351      00
 5352              	.LASF55:
 5353 01ad 63686563 		.ascii	"check_fs\000"
 5353      6B5F6673 
 5353      00
 5354              	.LASF78:
 5355 01b6 6D636C73 		.ascii	"mclst\000"
 5355      7400
 5356              	.LASF35:
 5357 01bc 666E616D 		.ascii	"fname\000"
 5357      6500
ARM GAS  /cygdrive/c/DOCUME~1/mkwapisz/LOCALS~1/Temp/ccd1rULD.s 			page 112


 5358              	.LASF70:
 5359 01c2 6469725F 		.ascii	"dir_find\000"
 5359      66696E64 
 5359      00
 5360              	.LASF44:
 5361 01cb 46525F4E 		.ascii	"FR_NOT_ENABLED\000"
 5361      4F545F45 
 5361      4E41424C 
 5361      454400
 5362              	.LASF4:
 5363 01da 73686F72 		.ascii	"short unsigned int\000"
 5363      7420756E 
 5363      7369676E 
 5363      65642069 
 5363      6E7400
 5364              	.LASF37:
 5365 01ed 46494C49 		.ascii	"FILINFO\000"
 5365      4E464F00 
 5366              	.LASF36:
 5367 01f5 63686172 		.ascii	"char\000"
 5367      00
 5368              	.LASF16:
 5369 01fa 66617462 		.ascii	"fatbase\000"
 5369      61736500 
 5370              	.LASF7:
 5371 0202 6C6F6E67 		.ascii	"long int\000"
 5371      20696E74 
 5371      00
 5372              	.LASF34:
 5373 020b 66617474 		.ascii	"fattrib\000"
 5373      72696200 
 5374              	.LASF49:
 5375 0213 5245535F 		.ascii	"RES_NOTRDY\000"
 5375      4E4F5452 
 5375      445900
 5376              	.LASF51:
 5377 021e 44524553 		.ascii	"DRESULT\000"
 5377      554C5400 
 5378              	.LASF64:
 5379 0226 6469725F 		.ascii	"dir_read\000"
 5379      72656164 
 5379      00
 5380              	.LASF28:
 5381 022f 73636C75 		.ascii	"sclust\000"
 5381      737400
 5382              	.LASF24:
 5383 0236 46415446 		.ascii	"FATFS\000"
 5383      5300
 5384              	.LASF8:
 5385 023c 6C6F6E67 		.ascii	"long unsigned int\000"
 5385      20756E73 
 5385      69676E65 
 5385      6420696E 
 5385      7400
 5386              	.LASF57:
 5387 024e 69667074 		.ascii	"ifptr\000"
 5387      7200
ARM GAS  /cygdrive/c/DOCUME~1/mkwapisz/LOCALS~1/Temp/ccd1rULD.s 			page 113


 5388              	.LASF13:
 5389 0254 63736563 		.ascii	"csect\000"
 5389      7400
 5390              	.LASF72:
 5391 025a 666F6C6C 		.ascii	"follow_path\000"
 5391      6F775F70 
 5391      61746800 
 5392              	.LASF41:
 5393 0266 46525F4E 		.ascii	"FR_NO_FILE\000"
 5393      4F5F4649 
 5393      4C4500
 5394              	.LASF26:
 5395 0271 5F444952 		.ascii	"_DIR_\000"
 5395      5F00
 5396              	.LASF20:
 5397 0277 6673697A 		.ascii	"fsize\000"
 5397      6500
 5398              	.LASF85:
 5399 027d 2F637967 		.ascii	"/cygdrive/e/SysWbud/2148/testProgram_lpc2148_edu/pf"
 5399      64726976 
 5399      652F652F 
 5399      53797357 
 5399      6275642F 
 5400 02b0 663200   		.ascii	"f2\000"
 5401              	.LASF61:
 5402 02b3 66655F61 		.ascii	"fe_abort\000"
 5402      626F7274 
 5402      00
 5403              	.LASF32:
 5404 02bc 66646174 		.ascii	"fdate\000"
 5404      6500
 5405              	.LASF71:
 5406 02c2 6D656D5F 		.ascii	"mem_cmp\000"
 5406      636D7000 
 5407              	.LASF22:
 5408 02ca 63757272 		.ascii	"curr_clust\000"
 5408      5F636C75 
 5408      737400
 5409              	.LASF65:
 5410 02d5 6765745F 		.ascii	"get_fileinfo\000"
 5410      66696C65 
 5410      696E666F 
 5410      00
 5411              	.LASF69:
 5412 02e2 6D656D5F 		.ascii	"mem_set\000"
 5412      73657400 
 5413              	.LASF46:
 5414 02ea 46524553 		.ascii	"FRESULT\000"
 5414      554C5400 
 5415              	.LASF50:
 5416 02f2 5245535F 		.ascii	"RES_PARERR\000"
 5416      50415245 
 5416      525200
 5417              	.LASF80:
 5418 02fd 72656D61 		.ascii	"remain\000"
 5418      696E00
 5419              	.LASF84:
ARM GAS  /cygdrive/c/DOCUME~1/mkwapisz/LOCALS~1/Temp/ccd1rULD.s 			page 114


 5420 0304 7372632F 		.ascii	"src/pff.c\000"
 5420      7066662E 
 5420      6300
 5421              	.LASF66:
 5422 030e 70665F72 		.ascii	"pf_readdir\000"
 5422      65616464 
 5422      697200
 5423              	.LASF54:
 5424 0319 636C7374 		.ascii	"clst\000"
 5424      00
 5425              		.ident	"GCC: (GNU) 4.1.1"
ARM GAS  /cygdrive/c/DOCUME~1/mkwapisz/LOCALS~1/Temp/ccd1rULD.s 			page 115


DEFINED SYMBOLS
                            *ABS*:00000000 pff.c
/cygdrive/c/DOCUME~1/mkwapisz/LOCALS~1/Temp/ccd1rULD.s:12     .text:00000000 clust2sect
/cygdrive/c/DOCUME~1/mkwapisz/LOCALS~1/Temp/ccd1rULD.s:22     .text:00000000 $a
/cygdrive/c/DOCUME~1/mkwapisz/LOCALS~1/Temp/ccd1rULD.s:50     .text:00000030 $d
/cygdrive/c/DOCUME~1/mkwapisz/LOCALS~1/Temp/ccd1rULD.s:1842   .bss:00000000 FatFs
/cygdrive/c/DOCUME~1/mkwapisz/LOCALS~1/Temp/ccd1rULD.s:55     .text:00000034 dir_rewind
/cygdrive/c/DOCUME~1/mkwapisz/LOCALS~1/Temp/ccd1rULD.s:63     .text:00000034 $a
/cygdrive/c/DOCUME~1/mkwapisz/LOCALS~1/Temp/ccd1rULD.s:130    .text:000000b8 $d
/cygdrive/c/DOCUME~1/mkwapisz/LOCALS~1/Temp/ccd1rULD.s:135    .text:000000bc check_fs
/cygdrive/c/DOCUME~1/mkwapisz/LOCALS~1/Temp/ccd1rULD.s:142    .text:000000bc $a
/cygdrive/c/DOCUME~1/mkwapisz/LOCALS~1/Temp/ccd1rULD.s:202    .text:00000174 $d
/cygdrive/c/DOCUME~1/mkwapisz/LOCALS~1/Temp/ccd1rULD.s:209    .text:00000180 get_fat
/cygdrive/c/DOCUME~1/mkwapisz/LOCALS~1/Temp/ccd1rULD.s:216    .text:00000180 $a
/cygdrive/c/DOCUME~1/mkwapisz/LOCALS~1/Temp/ccd1rULD.s:364    .text:000002f4 $d
/cygdrive/c/DOCUME~1/mkwapisz/LOCALS~1/Temp/ccd1rULD.s:372    .text:000002fc pf_lseek
/cygdrive/c/DOCUME~1/mkwapisz/LOCALS~1/Temp/ccd1rULD.s:380    .text:000002fc $a
/cygdrive/c/DOCUME~1/mkwapisz/LOCALS~1/Temp/ccd1rULD.s:538    .text:00000440 $d
/cygdrive/c/DOCUME~1/mkwapisz/LOCALS~1/Temp/ccd1rULD.s:545    .text:00000444 pf_read
/cygdrive/c/DOCUME~1/mkwapisz/LOCALS~1/Temp/ccd1rULD.s:553    .text:00000444 $a
/cygdrive/c/DOCUME~1/mkwapisz/LOCALS~1/Temp/ccd1rULD.s:745    .text:00000624 $d
                            *COM*:00000004 rbuff
                            *COM*:00000004 fs
                            *COM*:00000004 remain
                            *COM*:00000004 clst
                            *COM*:00000004 sect
                            *COM*:00000002 rcnt
                            *COM*:00000004 dr
/cygdrive/c/DOCUME~1/mkwapisz/LOCALS~1/Temp/ccd1rULD.s:757    .text:00000644 dir_next
/cygdrive/c/DOCUME~1/mkwapisz/LOCALS~1/Temp/ccd1rULD.s:765    .text:00000644 $a
/cygdrive/c/DOCUME~1/mkwapisz/LOCALS~1/Temp/ccd1rULD.s:852    .text:000006f4 $d
/cygdrive/c/DOCUME~1/mkwapisz/LOCALS~1/Temp/ccd1rULD.s:858    .text:000006f8 pf_readdir
/cygdrive/c/DOCUME~1/mkwapisz/LOCALS~1/Temp/ccd1rULD.s:865    .text:000006f8 $a
/cygdrive/c/DOCUME~1/mkwapisz/LOCALS~1/Temp/ccd1rULD.s:1137   .text:000008e8 $d
/cygdrive/c/DOCUME~1/mkwapisz/LOCALS~1/Temp/ccd1rULD.s:1142   .text:000008ec follow_path
/cygdrive/c/DOCUME~1/mkwapisz/LOCALS~1/Temp/ccd1rULD.s:1149   .text:000008ec $a
/cygdrive/c/DOCUME~1/mkwapisz/LOCALS~1/Temp/ccd1rULD.s:1406   .text:00000af0 $d
/cygdrive/c/DOCUME~1/mkwapisz/LOCALS~1/Temp/ccd1rULD.s:1412   .text:00000af4 pf_opendir
/cygdrive/c/DOCUME~1/mkwapisz/LOCALS~1/Temp/ccd1rULD.s:1419   .text:00000af4 $a
/cygdrive/c/DOCUME~1/mkwapisz/LOCALS~1/Temp/ccd1rULD.s:1497   .text:00000b8c $d
/cygdrive/c/DOCUME~1/mkwapisz/LOCALS~1/Temp/ccd1rULD.s:1503   .text:00000b90 pf_open
/cygdrive/c/DOCUME~1/mkwapisz/LOCALS~1/Temp/ccd1rULD.s:1510   .text:00000b90 $a
/cygdrive/c/DOCUME~1/mkwapisz/LOCALS~1/Temp/ccd1rULD.s:1592   .text:00000c54 $d
/cygdrive/c/DOCUME~1/mkwapisz/LOCALS~1/Temp/ccd1rULD.s:1598   .text:00000c58 pf_mount
/cygdrive/c/DOCUME~1/mkwapisz/LOCALS~1/Temp/ccd1rULD.s:1605   .text:00000c58 $a
/cygdrive/c/DOCUME~1/mkwapisz/LOCALS~1/Temp/ccd1rULD.s:1834   .text:00000e80 $d

UNDEFINED SYMBOLS
disk_readp
__udivsi3
__umodsi3
disk_initialize
