ARM GAS  /cygdrive/c/DOCUME~1/mkwapisz/LOCALS~1/Temp/ccd1rULD.s 			page 1


   1              		.file	"pff.c"
   8 0000 8E020000 		.text
   8      02004200 
   8      00000201 
   8      FB0E0D00 
   8      01010101 
   9              	.Ltext0:
  10              		.align	2
  11              		.type	clust2sect, %function
  12              	clust2sect:
  13              	.LFB5:
  14              		.file 1 "src/pff.c"
   1:src/pff.c     **** /*----------------------------------------------------------------------------/
   2:src/pff.c     ****  /  Petit FatFs - FAT file system module  R0.02                 (C)ChaN, 2009
   3:src/pff.c     ****  /-----------------------------------------------------------------------------/
   4:src/pff.c     ****  / Petit FatFs module is an open source software to implement FAT file system to
   5:src/pff.c     ****  / small embedded systems. This is a free software and is opened for education,
   6:src/pff.c     ****  / research and commercial developments under license policy of following trems.
   7:src/pff.c     ****  /
   8:src/pff.c     ****  /  Copyright (C) 2009, ChaN, all right reserved.
   9:src/pff.c     ****  /
  10:src/pff.c     ****  / * The Petit FatFs module is a free software and there is NO WARRANTY.
  11:src/pff.c     ****  / * No restriction on use. You can use, modify and redistribute it for
  12:src/pff.c     ****  /   personal, non-profit or commercial use UNDER YOUR RESPONSIBILITY.
  13:src/pff.c     ****  / * Redistributions of source code must retain the above copyright notice.
  14:src/pff.c     ****  /
  15:src/pff.c     ****  /-----------------------------------------------------------------------------/
  16:src/pff.c     ****  / Jun 15,'09  R0.01a  First release. (Branched from FatFs R0.07b.)
  17:src/pff.c     ****  /
  18:src/pff.c     ****  / Dec 14,'09  R0.02   Added multiple code page support.
  19:src/pff.c     ****  /                     Added write funciton.
  20:src/pff.c     ****  /                     Changed stream read mode interface.
  21:src/pff.c     ****  /----------------------------------------------------------------------------*/
  22:src/pff.c     **** 
  23:src/pff.c     **** #include "pff.h"		/* Petit FatFs configurations and declarations */
  24:src/pff.c     **** #include "diskio.h"		/* Declarations of low level disk I/O functions */
  25:src/pff.c     **** 
  26:src/pff.c     **** /*--------------------------------------------------------------------------
  27:src/pff.c     **** 
  28:src/pff.c     ****  Private Functions
  29:src/pff.c     **** 
  30:src/pff.c     ****  ---------------------------------------------------------------------------*/
  31:src/pff.c     **** 
  32:src/pff.c     **** static FATFS *FatFs; /* Pointer to the file system object (logical drive) */
  33:src/pff.c     **** 
  34:src/pff.c     **** /*-----------------------------------------------------------------------*/
  35:src/pff.c     **** /* String functions                                                      */
  36:src/pff.c     **** /*-----------------------------------------------------------------------*/
  37:src/pff.c     **** 
  38:src/pff.c     **** /* Fill memory */
  39:src/pff.c     **** static void mem_set (void* dst, int val, int cnt)
ARM GAS  /cygdrive/c/DOCUME~1/mkwapisz/LOCALS~1/Temp/ccd1rULD.s 			page 2


  40:src/pff.c     **** {
  41:src/pff.c     **** 	char *d = (char*) dst;
  42:src/pff.c     **** 	while (cnt--)
  43:src/pff.c     **** 		*d++ = (char) val;
  44:src/pff.c     **** }
  45:src/pff.c     **** 
  46:src/pff.c     **** /* Compare memory to memory */
  47:src/pff.c     **** static int mem_cmp (const void* dst, const void* src, int cnt)
  48:src/pff.c     **** {
  49:src/pff.c     **** 	const char *d = (const char *) dst, *s = (const char *) src;
  50:src/pff.c     **** 	int r = 0;
  51:src/pff.c     **** 	while (cnt-- && (r = *d++ - *s++) == 0)
  52:src/pff.c     **** 		;
  53:src/pff.c     **** 	return r;
  54:src/pff.c     **** }
  55:src/pff.c     **** 
  56:src/pff.c     **** /*-----------------------------------------------------------------------*/
  57:src/pff.c     **** /* FAT access - Read value of a FAT entry                                */
  58:src/pff.c     **** /*-----------------------------------------------------------------------*/
  59:src/pff.c     **** 
  60:src/pff.c     **** static CLUST get_fat (/* 1:IO error, Else:Cluster status */
  61:src/pff.c     **** CLUST clst /* Cluster# to get the link information */
  62:src/pff.c     **** )
  63:src/pff.c     **** {
  64:src/pff.c     **** 	WORD wc, bc, ofs;
  65:src/pff.c     **** 	BYTE buf[4];
  66:src/pff.c     **** 	FATFS *fs = FatFs;
  67:src/pff.c     **** 
  68:src/pff.c     **** 	if (clst < 2 || clst >= fs->max_clust) /* Range check */
  69:src/pff.c     **** 		return 1;
  70:src/pff.c     **** 
  71:src/pff.c     **** 	switch (fs->fs_type)
  72:src/pff.c     **** 	{
  73:src/pff.c     **** 	case FS_FAT12:
  74:src/pff.c     **** 		bc = (WORD) clst;
  75:src/pff.c     **** 		bc += bc / 2;
  76:src/pff.c     **** 		ofs = bc % 512;
  77:src/pff.c     **** 		bc /= 512;
  78:src/pff.c     **** 		if (ofs != 511)
  79:src/pff.c     **** 		{
  80:src/pff.c     **** 			if (disk_readp (buf, fs->fatbase + bc, ofs, 2))
  81:src/pff.c     **** 				break;
  82:src/pff.c     **** 		} else
  83:src/pff.c     **** 		{
  84:src/pff.c     **** 			if (disk_readp (buf, fs->fatbase + bc, 511, 1))
  85:src/pff.c     **** 				break;
  86:src/pff.c     **** 			if (disk_readp (buf + 1, fs->fatbase + bc + 1, 0, 1))
  87:src/pff.c     **** 				break;
  88:src/pff.c     **** 		}
  89:src/pff.c     **** 		wc = LD_WORD(buf);
  90:src/pff.c     **** 		return (clst & 1) ? (wc >> 4) : (wc & 0xFFF);
  91:src/pff.c     **** 
  92:src/pff.c     **** 	case FS_FAT16:
  93:src/pff.c     **** 		if (disk_readp (buf, fs->fatbase + clst / 256, (WORD) (((WORD) clst % 256) * 2), 2))
  94:src/pff.c     **** 			break;
  95:src/pff.c     **** 		return LD_WORD(buf);
  96:src/pff.c     **** #if _FS_FAT32
ARM GAS  /cygdrive/c/DOCUME~1/mkwapisz/LOCALS~1/Temp/ccd1rULD.s 			page 3


  97:src/pff.c     **** 	case FS_FAT32:
  98:src/pff.c     **** 		if (disk_readp (buf, fs->fatbase + clst / 128, (WORD) (((WORD) clst % 128) * 4), 4))
  99:src/pff.c     **** 			break;
 100:src/pff.c     **** 		return LD_DWORD(buf) & 0x0FFFFFFF;
 101:src/pff.c     **** #endif
 102:src/pff.c     **** 	}
 103:src/pff.c     **** 
 104:src/pff.c     **** 	return 1; /* An error occured at the disk I/O layer */
 105:src/pff.c     **** }
 106:src/pff.c     **** 
 107:src/pff.c     **** /*-----------------------------------------------------------------------*/
 108:src/pff.c     **** /* Get sector# from cluster#                                             */
 109:src/pff.c     **** /*-----------------------------------------------------------------------*/
 110:src/pff.c     **** 
 111:src/pff.c     **** static DWORD clust2sect (/* !=0: Sector number, 0: Failed - invalid cluster# */
 112:src/pff.c     **** CLUST clst /* Cluster# to be converted */
 113:src/pff.c     **** )
 114:src/pff.c     **** {
  15              		.loc 1 114 0
  16              		@ Function supports interworking.
  17              		@ args = 0, pretend = 0, frame = 0
  18              		@ frame_needed = 0, uses_anonymous_args = 0
  19              		@ link register save eliminated.
  20              	.LVL0:
 115:src/pff.c     **** 	FATFS *fs = FatFs;
  21              		.loc 1 115 0
  22 0000 28309FE5 		ldr	r3, .L6
  23 0004 001093E5 		ldr	r1, [r3, #0]
  24              	.LVL1:
 116:src/pff.c     **** 
 117:src/pff.c     **** 	clst -= 2;
 118:src/pff.c     **** 	if (clst >= (fs->max_clust - 2))
  25              		.loc 1 118 0
  26 0008 0C3091E5 		ldr	r3, [r1, #12]
  27              		.loc 1 117 0
  28 000c 020040E2 		sub	r0, r0, #2
  29              	.LVL2:
  30              		.loc 1 118 0
  31 0010 023043E2 		sub	r3, r3, #2
  32 0014 030050E1 		cmp	r0, r3
 119:src/pff.c     **** 		return 0; /* Invalid cluster# */
 120:src/pff.c     **** 	return (DWORD) clst * fs->csize + fs->database;
  33              		.loc 1 120 0
  34 0018 18209135 		ldrcc	r2, [r1, #24]
  35              		.loc 1 118 0
  36 001c 0030A0E3 		mov	r3, #0
  37              		.loc 1 120 0
  38 0020 0130D135 		ldrccb	r3, [r1, #1]	@ zero_extendqisi2
  39 0024 90232330 		mlacc	r3, r0, r3, r2
 121:src/pff.c     **** }
  40              		.loc 1 121 0
  41 0028 0300A0E1 		mov	r0, r3
  42              	.LVL3:
  43              		.loc 1 114 0
  44              		@ lr needed for prologue
  45              		.loc 1 121 0
  46 002c 1EFF2FE1 		bx	lr
ARM GAS  /cygdrive/c/DOCUME~1/mkwapisz/LOCALS~1/Temp/ccd1rULD.s 			page 4


  47              	.L7:
  48              		.align	2
  49              	.L6:
  50 0030 00000000 		.word	FatFs
  51              	.LFE5:
  52              		.size	clust2sect, .-clust2sect
  53              		.align	2
  54              		.type	dir_rewind, %function
  55              	dir_rewind:
  56              	.LFB6:
 122:src/pff.c     **** 
 123:src/pff.c     **** /*-----------------------------------------------------------------------*/
 124:src/pff.c     **** /* Directory handling - Rewind directory index                           */
 125:src/pff.c     **** /*-----------------------------------------------------------------------*/
 126:src/pff.c     **** 
 127:src/pff.c     **** static FRESULT dir_rewind (DIR *dj /* Pointer to directory object */
 128:src/pff.c     **** )
 129:src/pff.c     **** {
  57              		.loc 1 129 0
  58              		@ Function supports interworking.
  59              		@ args = 0, pretend = 0, frame = 0
  60              		@ frame_needed = 0, uses_anonymous_args = 0
  61              	.LVL4:
 130:src/pff.c     **** 	CLUST clst;
 131:src/pff.c     **** 	FATFS *fs = FatFs;
  62              		.loc 1 131 0
  63 0034 7C309FE5 		ldr	r3, .L21
  64              		.loc 1 129 0
  65 0038 10402DE9 		stmfd	sp!, {r4, lr}
  66              	.LCFI0:
  67              		.loc 1 129 0
  68 003c 0040A0E1 		mov	r4, r0
 132:src/pff.c     **** 
 133:src/pff.c     **** 	dj->index = 0;
 134:src/pff.c     **** 	clst = dj->sclust;
  69              		.loc 1 134 0
  70 0040 080090E5 		ldr	r0, [r0, #8]
  71              	.LVL5:
  72              		.loc 1 131 0
  73 0044 002093E5 		ldr	r2, [r3, #0]
  74              	.LVL6:
 135:src/pff.c     **** 	if (clst == 1 || clst >= fs->max_clust) /* Check start cluster range */
  75              		.loc 1 135 0
  76 0048 010050E3 		cmp	r0, #1
  77              		.loc 1 133 0
  78 004c 0030A0E3 		mov	r3, #0	@ movhi
  79 0050 B030C4E1 		strh	r3, [r4, #0]	@ movhi
  80              		.loc 1 135 0
  81 0054 1300000A 		beq	.L9
  82 0058 0C3092E5 		ldr	r3, [r2, #12]
  83 005c 030050E1 		cmp	r0, r3
  84 0060 1000002A 		bcs	.L9
 136:src/pff.c     **** 		return FR_DISK_ERR;
 137:src/pff.c     **** #if _FS_FAT32
 138:src/pff.c     **** 	if (!clst && fs->fs_type == FS_FAT32) /* Replace cluster# 0 with root cluster# if in FAT32 */
  85              		.loc 1 138 0
  86 0064 000050E3 		cmp	r0, #0
ARM GAS  /cygdrive/c/DOCUME~1/mkwapisz/LOCALS~1/Temp/ccd1rULD.s 			page 5


 139:src/pff.c     **** 		clst = fs->dirbase;
 140:src/pff.c     **** #endif
 141:src/pff.c     **** 	dj->clust = clst; /* Current cluster */
  87              		.loc 1 141 0
  88 0068 0C008415 		strne	r0, [r4, #12]
  89              		.loc 1 138 0
  90 006c 0700001A 		bne	.L17
  91 0070 0030D2E5 		ldrb	r3, [r2, #0]	@ zero_extendqisi2
  92 0074 030053E3 		cmp	r3, #3
  93              		.loc 1 141 0
  94 0078 0C008415 		strne	r0, [r4, #12]
  95              		.loc 1 138 0
  96 007c 0500001A 		bne	.L16
  97              		.loc 1 139 0
  98 0080 140092E5 		ldr	r0, [r2, #20]
 142:src/pff.c     **** 	dj->sect = clst ? clust2sect (clst) : fs->dirbase; /* Current sector */
  99              		.loc 1 142 0
 100 0084 000050E3 		cmp	r0, #0
 101              		.loc 1 141 0
 102 0088 0C0084E5 		str	r0, [r4, #12]
 103              		.loc 1 142 0
 104 008c 0100000A 		beq	.L16
 105              	.L17:
 106 0090 DAFFFFEB 		bl	clust2sect
 107              	.LVL7:
 108 0094 000000EA 		b	.L18
 109              	.LVL8:
 110              	.L16:
 111 0098 140092E5 		ldr	r0, [r2, #20]
 112              	.LVL9:
 113              	.L18:
 114 009c 0030A0E3 		mov	r3, #0
 115 00a0 100084E5 		str	r0, [r4, #16]
 116 00a4 000000EA 		b	.L19
 117              	.LVL10:
 118              	.L9:
 143:src/pff.c     **** 
 144:src/pff.c     **** 	return FR_OK; /* Seek succeeded */
 119              		.loc 1 144 0
 120 00a8 0130A0E3 		mov	r3, #1
 121              	.L19:
 145:src/pff.c     **** }
 122              		.loc 1 145 0
 123 00ac 0300A0E1 		mov	r0, r3
 124              	.LVL11:
 125 00b0 1040BDE8 		ldmfd	sp!, {r4, lr}
 126 00b4 1EFF2FE1 		bx	lr
 127              	.L22:
 128              		.align	2
 129              	.L21:
 130 00b8 00000000 		.word	FatFs
 131              	.LFE6:
 132              		.size	dir_rewind, .-dir_rewind
 133              		.align	2
 134              		.type	check_fs, %function
 135              	check_fs:
 136              	.LFB13:
ARM GAS  /cygdrive/c/DOCUME~1/mkwapisz/LOCALS~1/Temp/ccd1rULD.s 			page 6


 146:src/pff.c     **** 
 147:src/pff.c     **** /*-----------------------------------------------------------------------*/
 148:src/pff.c     **** /* Directory handling - Move directory index next                        */
 149:src/pff.c     **** /*-----------------------------------------------------------------------*/
 150:src/pff.c     **** 
 151:src/pff.c     **** static FRESULT dir_next ( /* FR_OK:Succeeded, FR_NO_FILE:End of table */
 152:src/pff.c     **** DIR *dj /* Pointer to directory object */
 153:src/pff.c     **** )
 154:src/pff.c     **** {
 155:src/pff.c     **** 	CLUST clst;
 156:src/pff.c     **** 	WORD i;
 157:src/pff.c     **** 	FATFS *fs = FatFs;
 158:src/pff.c     **** 
 159:src/pff.c     **** 	i = dj->index + 1;
 160:src/pff.c     **** 	if (!i || !dj->sect) /* Report EOT when index has reached 65535 */
 161:src/pff.c     **** 		return FR_NO_FILE;
 162:src/pff.c     **** 
 163:src/pff.c     **** 	if (!(i & (16 - 1)))
 164:src/pff.c     **** 	{ /* Sector changed? */
 165:src/pff.c     **** 		dj->sect++; /* Next sector */
 166:src/pff.c     **** 
 167:src/pff.c     **** 		if (dj->clust == 0)
 168:src/pff.c     **** 		{ /* Static table */
 169:src/pff.c     **** 			if (i >= fs->n_rootdir) /* Report EOT when end of table */
 170:src/pff.c     **** 				return FR_NO_FILE;
 171:src/pff.c     **** 		} else
 172:src/pff.c     **** 		{ /* Dynamic table */
 173:src/pff.c     **** 			if (((i / 16) & (fs->csize - 1)) == 0)
 174:src/pff.c     **** 			{ /* Cluster changed? */
 175:src/pff.c     **** 				clst = get_fat (dj->clust); /* Get next cluster */
 176:src/pff.c     **** 				if (clst <= 1)
 177:src/pff.c     **** 					return FR_DISK_ERR;
 178:src/pff.c     **** 				if (clst >= fs->max_clust) /* When it reached end of dynamic table */
 179:src/pff.c     **** 					return FR_NO_FILE; /* Report EOT */
 180:src/pff.c     **** 				dj->clust = clst; /* Initialize data for new cluster */
 181:src/pff.c     **** 				dj->sect = clust2sect (clst);
 182:src/pff.c     **** 			}
 183:src/pff.c     **** 		}
 184:src/pff.c     **** 	}
 185:src/pff.c     **** 
 186:src/pff.c     **** 	dj->index = i;
 187:src/pff.c     **** 
 188:src/pff.c     **** 	return FR_OK;
 189:src/pff.c     **** }
 190:src/pff.c     **** 
 191:src/pff.c     **** /*-----------------------------------------------------------------------*/
 192:src/pff.c     **** /* Directory handling - Find an object in the directory                  */
 193:src/pff.c     **** /*-----------------------------------------------------------------------*/
 194:src/pff.c     **** 
 195:src/pff.c     **** static FRESULT dir_find (DIR *dj /* Pointer to the directory object linked to the file name */
 196:src/pff.c     **** )
 197:src/pff.c     **** {
 198:src/pff.c     **** 	FRESULT res;
 199:src/pff.c     **** 	BYTE c, *dir;
 200:src/pff.c     **** 
 201:src/pff.c     **** 	res = dir_rewind (dj); /* Rewind directory object */
 202:src/pff.c     **** 	if (res != FR_OK)
ARM GAS  /cygdrive/c/DOCUME~1/mkwapisz/LOCALS~1/Temp/ccd1rULD.s 			page 7


 203:src/pff.c     **** 		return res;
 204:src/pff.c     **** 
 205:src/pff.c     **** 	dir = FatFs->buf;
 206:src/pff.c     **** 	do
 207:src/pff.c     **** 	{
 208:src/pff.c     **** 		res = disk_readp (dir, dj->sect, (WORD) ((dj->index % 16) * 32), 32) /* Read an entry */
 209:src/pff.c     **** 		? FR_DISK_ERR : FR_OK;
 210:src/pff.c     **** 		if (res != FR_OK)
 211:src/pff.c     **** 			break;
 212:src/pff.c     **** 		c = dir[DIR_Name]; /* First character */
 213:src/pff.c     **** 		if (c == 0)
 214:src/pff.c     **** 		{
 215:src/pff.c     **** 			res = FR_NO_FILE;
 216:src/pff.c     **** 			break;
 217:src/pff.c     **** 		} /* Reached to end of table */
 218:src/pff.c     **** 		if (!(dir[DIR_Attr] & AM_VOL) && !mem_cmp (dir, dj->fn, 11)) /* Is it a valid entry? */
 219:src/pff.c     **** 			break;
 220:src/pff.c     **** 		res = dir_next (dj); /* Next entry */
 221:src/pff.c     **** 	} while (res == FR_OK);
 222:src/pff.c     **** 
 223:src/pff.c     **** 	return res;
 224:src/pff.c     **** }
 225:src/pff.c     **** 
 226:src/pff.c     **** /*-----------------------------------------------------------------------*/
 227:src/pff.c     **** /* Read an object from the directory                                     */
 228:src/pff.c     **** /*-----------------------------------------------------------------------*/
 229:src/pff.c     **** #if _USE_DIR
 230:src/pff.c     **** static FRESULT dir_read (DIR *dj /* Pointer to the directory object to store read object name */
 231:src/pff.c     **** )
 232:src/pff.c     **** {
 233:src/pff.c     **** 	FRESULT res;
 234:src/pff.c     **** 	BYTE a, c, *dir;
 235:src/pff.c     **** 
 236:src/pff.c     **** 	res = FR_NO_FILE;
 237:src/pff.c     **** 	dir = FatFs->buf;
 238:src/pff.c     **** 	while (dj->sect)
 239:src/pff.c     **** 	{
 240:src/pff.c     **** 		res = disk_readp (dir, dj->sect, (WORD) ((dj->index % 16) * 32), 32) /* Read an entry */
 241:src/pff.c     **** 		? FR_DISK_ERR : FR_OK;
 242:src/pff.c     **** 		if (res != FR_OK)
 243:src/pff.c     **** 			break;
 244:src/pff.c     **** 		c = dir[DIR_Name];
 245:src/pff.c     **** 		if (c == 0)
 246:src/pff.c     **** 		{
 247:src/pff.c     **** 			res = FR_NO_FILE;
 248:src/pff.c     **** 			break;
 249:src/pff.c     **** 		} /* Reached to end of table */
 250:src/pff.c     **** 		a = dir[DIR_Attr] & AM_MASK;
 251:src/pff.c     **** 		if (c != 0xE5 && c != '.' && !(a & AM_VOL)) /* Is it a valid entry? */
 252:src/pff.c     **** 			break;
 253:src/pff.c     **** 		res = dir_next (dj); /* Next entry */
 254:src/pff.c     **** 		if (res != FR_OK)
 255:src/pff.c     **** 			break;
 256:src/pff.c     **** 	}
 257:src/pff.c     **** 
 258:src/pff.c     **** 	if (res != FR_OK)
 259:src/pff.c     **** 		dj->sect = 0;
ARM GAS  /cygdrive/c/DOCUME~1/mkwapisz/LOCALS~1/Temp/ccd1rULD.s 			page 8


 260:src/pff.c     **** 
 261:src/pff.c     **** 	return res;
 262:src/pff.c     **** }
 263:src/pff.c     **** #endif
 264:src/pff.c     **** 
 265:src/pff.c     **** /*-----------------------------------------------------------------------*/
 266:src/pff.c     **** /* Pick a segment and create the object name in directory form           */
 267:src/pff.c     **** /*-----------------------------------------------------------------------*/
 268:src/pff.c     **** 
 269:src/pff.c     **** #ifdef _EXCVT
 270:src/pff.c     **** static const BYTE cvt[] = _EXCVT;
 271:src/pff.c     **** #endif
 272:src/pff.c     **** 
 273:src/pff.c     **** static FRESULT create_name (DIR *dj, /* Pointer to the directory object */
 274:src/pff.c     **** const char **path /* Pointer to pointer to the segment in the path string */
 275:src/pff.c     **** )
 276:src/pff.c     **** {
 277:src/pff.c     **** 	BYTE c, d, ni, si, i, *sfn;
 278:src/pff.c     **** 	const char *p;
 279:src/pff.c     **** 
 280:src/pff.c     **** 	/* Create file name in directory form */
 281:src/pff.c     **** 	sfn = dj->fn;
 282:src/pff.c     **** 	mem_set (sfn, ' ', 11);
 283:src/pff.c     **** 	si = i = 0;
 284:src/pff.c     **** 	ni = 8;
 285:src/pff.c     **** 	p = *path;
 286:src/pff.c     **** 	for (;;)
 287:src/pff.c     **** 	{
 288:src/pff.c     **** 		c = p[si++];
 289:src/pff.c     **** 		if (c <= ' ' || c == '/')
 290:src/pff.c     **** 			break; /* Break on end of segment */
 291:src/pff.c     **** 		if (c == '.' || i >= ni)
 292:src/pff.c     **** 		{
 293:src/pff.c     **** 			if (ni != 8 || c != '.')
 294:src/pff.c     **** 				break;
 295:src/pff.c     **** 			i = 8;
 296:src/pff.c     **** 			ni = 11;
 297:src/pff.c     **** 			continue;
 298:src/pff.c     **** 		}
 299:src/pff.c     **** #ifdef _EXCVT
 300:src/pff.c     **** 		if (c >= 0x80) /* To upper extended char (SBCS) */
 301:src/pff.c     **** 		c = cvt[c - 0x80];
 302:src/pff.c     **** #endif
 303:src/pff.c     **** 		if (IsDBCS1(c) && i >= ni - 1)
 304:src/pff.c     **** 		{ /* DBC 1st byte? */
 305:src/pff.c     **** 			d = p[si++]; /* Get 2nd byte */
 306:src/pff.c     **** 			sfn[i++] = c;
 307:src/pff.c     **** 			sfn[i++] = d;
 308:src/pff.c     **** 		} else
 309:src/pff.c     **** 		{ /* Single byte code */
 310:src/pff.c     **** 			if (IsLower(c))
 311:src/pff.c     **** 				c -= 0x20; /* toupper */
 312:src/pff.c     **** 			sfn[i++] = c;
 313:src/pff.c     **** 		}
 314:src/pff.c     **** 	}
 315:src/pff.c     **** 	*path = &p[si]; /* Rerurn pointer to the next segment */
 316:src/pff.c     **** 
ARM GAS  /cygdrive/c/DOCUME~1/mkwapisz/LOCALS~1/Temp/ccd1rULD.s 			page 9


 317:src/pff.c     **** 	sfn[11] = (c <= ' ') ? 1 : 0; /* Set last segment flag if end of path */
 318:src/pff.c     **** 
 319:src/pff.c     **** 	return FR_OK;
 320:src/pff.c     **** }
 321:src/pff.c     **** 
 322:src/pff.c     **** /*-----------------------------------------------------------------------*/
 323:src/pff.c     **** /* Get file information from directory entry                             */
 324:src/pff.c     **** /*-----------------------------------------------------------------------*/
 325:src/pff.c     **** #if _USE_DIR
 326:src/pff.c     **** static
 327:src/pff.c     **** void get_fileinfo ( /* No return code */
 328:src/pff.c     **** DIR *dj, /* Pointer to the directory object */
 329:src/pff.c     **** FILINFO *fno /* Pointer to store the file information */
 330:src/pff.c     **** )
 331:src/pff.c     **** {
 332:src/pff.c     **** 	BYTE i, c, *dir;
 333:src/pff.c     **** 	char *p;
 334:src/pff.c     **** 
 335:src/pff.c     **** 	p = fno->fname;
 336:src/pff.c     **** 	if (dj->sect)
 337:src/pff.c     **** 	{
 338:src/pff.c     **** 		dir = FatFs->buf;
 339:src/pff.c     **** 		for (i = 0; i < 8; i++)
 340:src/pff.c     **** 		{ /* Copy file name body */
 341:src/pff.c     **** 			c = dir[i];
 342:src/pff.c     **** 			if (c == ' ')
 343:src/pff.c     **** 				break;
 344:src/pff.c     **** 			if (c == 0x05)
 345:src/pff.c     **** 				c = 0xE5;
 346:src/pff.c     **** 			*p++ = c;
 347:src/pff.c     **** 		}
 348:src/pff.c     **** 		if (dir[8] != ' ')
 349:src/pff.c     **** 		{ /* Copy file name extension */
 350:src/pff.c     **** 			*p++ = '.';
 351:src/pff.c     **** 			for (i = 8; i < 11; i++)
 352:src/pff.c     **** 			{
 353:src/pff.c     **** 				c = dir[i];
 354:src/pff.c     **** 				if (c == ' ')
 355:src/pff.c     **** 					break;
 356:src/pff.c     **** 				*p++ = c;
 357:src/pff.c     **** 			}
 358:src/pff.c     **** 		}
 359:src/pff.c     **** 		fno->fattrib = dir[DIR_Attr]; /* Attribute */
 360:src/pff.c     **** 		fno->fsize = LD_DWORD(dir+DIR_FileSize); /* Size */
 361:src/pff.c     **** 		fno->fdate = LD_WORD(dir+DIR_WrtDate); /* Date */
 362:src/pff.c     **** 		fno->ftime = LD_WORD(dir+DIR_WrtTime); /* Time */
 363:src/pff.c     **** 	}
 364:src/pff.c     **** 	*p = 0;
 365:src/pff.c     **** }
 366:src/pff.c     **** #endif /* _USE_DIR */
 367:src/pff.c     **** 
 368:src/pff.c     **** /*-----------------------------------------------------------------------*/
 369:src/pff.c     **** /* Follow a file path                                                    */
 370:src/pff.c     **** /*-----------------------------------------------------------------------*/
 371:src/pff.c     **** 
 372:src/pff.c     **** static FRESULT follow_path ( /* FR_OK(0): successful, !=0: error code */
 373:src/pff.c     **** DIR *dj, /* Directory object to return last directory and found object */
ARM GAS  /cygdrive/c/DOCUME~1/mkwapisz/LOCALS~1/Temp/ccd1rULD.s 			page 10


 374:src/pff.c     **** const char *path /* Full-path string to find a file or directory */
 375:src/pff.c     **** )
 376:src/pff.c     **** {
 377:src/pff.c     **** 	FRESULT res;
 378:src/pff.c     **** 	BYTE *dir;
 379:src/pff.c     **** 
 380:src/pff.c     **** 	while (*path == ' ')
 381:src/pff.c     **** 		path++; /* Skip leading spaces */
 382:src/pff.c     **** 	if (*path == '/')
 383:src/pff.c     **** 		path++; /* Strip heading separator */
 384:src/pff.c     **** 	dj->sclust = 0; /* Set start directory (always root dir) */
 385:src/pff.c     **** 
 386:src/pff.c     **** 	if ((BYTE) *path <= ' ')
 387:src/pff.c     **** 	{ /* Null path means the root directory */
 388:src/pff.c     **** 		res = dir_rewind (dj);
 389:src/pff.c     **** 		FatFs->buf[0] = 0;
 390:src/pff.c     **** 
 391:src/pff.c     **** 	} else
 392:src/pff.c     **** 	{ /* Follow path */
 393:src/pff.c     **** 		for (;;)
 394:src/pff.c     **** 		{
 395:src/pff.c     **** 			res = create_name (dj, &path); /* Get a segment */
 396:src/pff.c     **** 			if (res != FR_OK)
 397:src/pff.c     **** 				break;
 398:src/pff.c     **** 			res = dir_find (dj); /* Find it */
 399:src/pff.c     **** 			if (res != FR_OK)
 400:src/pff.c     **** 			{ /* Could not find the object */
 401:src/pff.c     **** 				if (res == FR_NO_FILE && !*(dj->fn + 11))
 402:src/pff.c     **** 					res = FR_NO_PATH;
 403:src/pff.c     **** 				break;
 404:src/pff.c     **** 			}
 405:src/pff.c     **** 			if (*(dj->fn + 11))
 406:src/pff.c     **** 				break; /* Last segment match. Function completed. */
 407:src/pff.c     **** 			dir = FatFs->buf; /* There is next segment. Follow the sub directory */
 408:src/pff.c     **** 			if (!(dir[DIR_Attr] & AM_DIR))
 409:src/pff.c     **** 			{ /* Cannot follow because it is a file */
 410:src/pff.c     **** 				res = FR_NO_PATH;
 411:src/pff.c     **** 				break;
 412:src/pff.c     **** 			}
 413:src/pff.c     **** 			dj->sclust =
 414:src/pff.c     **** #if _FS_FAT32
 415:src/pff.c     **** 					((DWORD) LD_WORD(dir+DIR_FstClusHI) << 16) |
 416:src/pff.c     **** #endif
 417:src/pff.c     **** 							LD_WORD(dir+DIR_FstClusLO);
 418:src/pff.c     **** 		}
 419:src/pff.c     **** 	}
 420:src/pff.c     **** 
 421:src/pff.c     **** 	return res;
 422:src/pff.c     **** }
 423:src/pff.c     **** 
 424:src/pff.c     **** /*-----------------------------------------------------------------------*/
 425:src/pff.c     **** /* Check a sector if it is an FAT boot record                            */
 426:src/pff.c     **** /*-----------------------------------------------------------------------*/
 427:src/pff.c     **** 
 428:src/pff.c     **** static BYTE check_fs ( /* 0:The FAT boot record, 1:Valid boot record but not an FAT, 2:Not a boot r
 429:src/pff.c     **** BYTE *buf, /* Working buffer */
 430:src/pff.c     **** DWORD sect /* Sector# (lba) to check if it is an FAT boot record or not */
ARM GAS  /cygdrive/c/DOCUME~1/mkwapisz/LOCALS~1/Temp/ccd1rULD.s 			page 11


 431:src/pff.c     **** )
 432:src/pff.c     **** {
 137              		.loc 1 432 0
 138              		@ Function supports interworking.
 139              		@ args = 0, pretend = 0, frame = 0
 140              		@ frame_needed = 0, uses_anonymous_args = 0
 141              	.LVL12:
 142 00bc 70402DE9 		stmfd	sp!, {r4, r5, r6, lr}
 143              	.LCFI1:
 433:src/pff.c     **** 	if (disk_readp (buf, sect, 510, 2)) /* Read the boot sector */
 144              		.loc 1 433 0
 145 00c0 AC209FE5 		ldr	r2, .L35
 146 00c4 0230A0E3 		mov	r3, #2
 147              		.loc 1 432 0
 148 00c8 0040A0E1 		mov	r4, r0
 149 00cc 0150A0E1 		mov	r5, r1
 150              		.loc 1 433 0
 151 00d0 FEFFFFEB 		bl	disk_readp
 152              	.LVL13:
 153 00d4 000050E3 		cmp	r0, #0
 154 00d8 0300A013 		movne	r0, #3
 155 00dc 2200001A 		bne	.L26
 434:src/pff.c     **** 		return 3;
 435:src/pff.c     **** 	if (LD_WORD(buf) != 0xAA55) /* Check record signature */
 156              		.loc 1 435 0
 157 00e0 0130D4E5 		ldrb	r3, [r4, #1]	@ zero_extendqisi2
 158 00e4 0020D4E5 		ldrb	r2, [r4, #0]	@ zero_extendqisi2
 159 00e8 032482E1 		orr	r2, r2, r3, asl #8
 160 00ec 84309FE5 		ldr	r3, .L35+4
 161 00f0 030052E1 		cmp	r2, r3
 162 00f4 016084E2 		add	r6, r4, #1
 163 00f8 0200A013 		movne	r0, #2
 164 00fc 1A00001A 		bne	.L26
 436:src/pff.c     **** 		return 2;
 437:src/pff.c     **** 
 438:src/pff.c     **** 	if (!disk_readp (buf, sect, BS_FilSysType, 2) && LD_WORD(buf) == 0x4146) /* Check FAT12/16 */
 165              		.loc 1 438 0
 166 0100 0400A0E1 		mov	r0, r4
 167 0104 0510A0E1 		mov	r1, r5
 168 0108 3620A0E3 		mov	r2, #54
 169 010c 0230A0E3 		mov	r3, #2
 170 0110 FEFFFFEB 		bl	disk_readp
 171 0114 000050E3 		cmp	r0, #0
 172 0118 0500001A 		bne	.L29
 173 011c 0130D4E5 		ldrb	r3, [r4, #1]	@ zero_extendqisi2
 174 0120 0020D4E5 		ldrb	r2, [r4, #0]	@ zero_extendqisi2
 175 0124 032482E1 		orr	r2, r2, r3, asl #8
 176 0128 4C309FE5 		ldr	r3, .L35+8
 177 012c 030052E1 		cmp	r2, r3
 178 0130 0D00000A 		beq	.L26
 179              	.L29:
 439:src/pff.c     **** 		return 0;
 440:src/pff.c     **** #if _FS_FAT32
 441:src/pff.c     **** 	if (!disk_readp (buf, sect, BS_FilSysType32, 2) && LD_WORD(buf) == 0x4146) /* Check FAT32 */
 180              		.loc 1 441 0
 181 0134 0510A0E1 		mov	r1, r5
 182 0138 0400A0E1 		mov	r0, r4
ARM GAS  /cygdrive/c/DOCUME~1/mkwapisz/LOCALS~1/Temp/ccd1rULD.s 			page 12


 183 013c 5220A0E3 		mov	r2, #82
 184 0140 0230A0E3 		mov	r3, #2
 185 0144 FEFFFFEB 		bl	disk_readp
 186 0148 000050E3 		cmp	r0, #0
 187 014c 0100A013 		movne	r0, #1
 188 0150 0500001A 		bne	.L26
 189 0154 0030D6E5 		ldrb	r3, [r6, #0]	@ zero_extendqisi2
 190 0158 0020D4E5 		ldrb	r2, [r4, #0]	@ zero_extendqisi2
 191 015c 032482E1 		orr	r2, r2, r3, asl #8
 192 0160 14309FE5 		ldr	r3, .L35+8
 193 0164 030052E0 		subs	r0, r2, r3
 194 0168 0100A013 		movne	r0, #1
 195              	.L26:
 442:src/pff.c     **** 		return 0;
 443:src/pff.c     **** #endif
 444:src/pff.c     **** 	return 1;
 445:src/pff.c     **** }
 196              		.loc 1 445 0
 197 016c 7040BDE8 		ldmfd	sp!, {r4, r5, r6, lr}
 198 0170 1EFF2FE1 		bx	lr
 199              	.L36:
 200              		.align	2
 201              	.L35:
 202 0174 FE010000 		.word	510
 203 0178 55AA0000 		.word	43605
 204 017c 46410000 		.word	16710
 205              	.LFE13:
 206              		.size	check_fs, .-check_fs
 207              		.align	2
 208              		.type	get_fat, %function
 209              	get_fat:
 210              	.LFB4:
 211              		.loc 1 63 0
 212              		@ Function supports interworking.
 213              		@ args = 0, pretend = 0, frame = 4
 214              		@ frame_needed = 0, uses_anonymous_args = 0
 215              	.LVL14:
 216 0180 F0412DE9 		stmfd	sp!, {r4, r5, r6, r7, r8, lr}
 217              	.LCFI2:
 218              		.loc 1 66 0
 219 0184 68319FE5 		ldr	r3, .L56
 220              		.loc 1 68 0
 221 0188 010050E3 		cmp	r0, #1
 222              		.loc 1 63 0
 223 018c 04D04DE2 		sub	sp, sp, #4
 224              	.LCFI3:
 225              		.loc 1 63 0
 226 0190 0060A0E1 		mov	r6, r0
 227              		.loc 1 66 0
 228 0194 005093E5 		ldr	r5, [r3, #0]
 229              	.LVL15:
 230              		.loc 1 68 0
 231 0198 5100009A 		bls	.L38
 232              	.LVL16:
 233 019c 0C3095E5 		ldr	r3, [r5, #12]
 234 01a0 030050E1 		cmp	r0, r3
 235 01a4 4E00002A 		bcs	.L38
ARM GAS  /cygdrive/c/DOCUME~1/mkwapisz/LOCALS~1/Temp/ccd1rULD.s 			page 13


 236              	.LVL17:
 237              		.loc 1 71 0
 238 01a8 0070D5E5 		ldrb	r7, [r5, #0]	@ zero_extendqisi2
 239 01ac 020057E3 		cmp	r7, #2
 240 01b0 2B00000A 		beq	.L42
 241 01b4 030057E3 		cmp	r7, #3
 242 01b8 3600000A 		beq	.L43
 243 01bc 010057E3 		cmp	r7, #1
 244 01c0 4700001A 		bne	.L38
 245              		.loc 1 74 0
 246 01c4 0038A0E1 		mov	r3, r0, asl #16
 247              		.loc 1 75 0
 248 01c8 A328A0E1 		mov	r2, r3, lsr #17
 249 01cc 232882E0 		add	r2, r2, r3, lsr #16
 250              		.loc 1 76 0
 251 01d0 82CBA0E1 		mov	ip, r2, asl #23
 252              	.LVL18:
 253              		.loc 1 78 0
 254 01d4 1C319FE5 		ldr	r3, .L56+4
 255              		.loc 1 76 0
 256 01d8 ACCBA0E1 		mov	ip, ip, lsr #23
 257              		.loc 1 78 0
 258 01dc 03005CE1 		cmp	ip, r3
 259              		.loc 1 77 0
 260 01e0 A224A0E1 		mov	r2, r2, lsr #9
 261 01e4 7F4002E2 		and	r4, r2, #127
 262              	.LVL19:
 263 01e8 0D80A0E1 		mov	r8, sp
 264 01ec 103095E5 		ldr	r3, [r5, #16]
 265              		.loc 1 78 0
 266              		.loc 1 80 0
 267 01f0 03108410 		addne	r1, r4, r3
 268 01f4 0D00A011 		movne	r0, sp
 269              	.LVL20:
 270 01f8 0C20A011 		movne	r2, ip
 271 01fc 0230A013 		movne	r3, #2
 272 0200 0B00001A 		bne	.L54
 273              	.LVL21:
 274              	.L44:
 275              		.loc 1 84 0
 276 0204 031084E0 		add	r1, r4, r3
 277 0208 0C20A0E1 		mov	r2, ip
 278 020c 0D00A0E1 		mov	r0, sp
 279              	.LVL22:
 280 0210 0730A0E1 		mov	r3, r7
 281 0214 FEFFFFEB 		bl	disk_readp
 282              	.LVL23:
 283 0218 002050E2 		subs	r2, r0, #0
 284 021c 3000001A 		bne	.L38
 285              		.loc 1 86 0
 286 0220 101095E5 		ldr	r1, [r5, #16]
 287 0224 011081E2 		add	r1, r1, #1
 288 0228 011084E0 		add	r1, r4, r1
 289 022c 01008DE2 		add	r0, sp, #1
 290 0230 0730A0E1 		mov	r3, r7
 291              	.LVL24:
 292              	.L54:
ARM GAS  /cygdrive/c/DOCUME~1/mkwapisz/LOCALS~1/Temp/ccd1rULD.s 			page 14


 293 0234 FEFFFFEB 		bl	disk_readp
 294              	.LVL25:
 295 0238 000050E3 		cmp	r0, #0
 296 023c 2800001A 		bne	.L38
 297              		.loc 1 89 0
 298 0240 0120DDE5 		ldrb	r2, [sp, #1]	@ zero_extendqisi2
 299 0244 0030DDE5 		ldrb	r3, [sp, #0]	@ zero_extendqisi2
 300 0248 023483E1 		orr	r3, r3, r2, asl #8
 301 024c 0308A0E1 		mov	r0, r3, asl #16
 302 0250 2038A0E1 		mov	r3, r0, lsr #16
 303              	.LVL26:
 304              		.loc 1 90 0
 305 0254 010016E3 		tst	r6, #1
 306 0258 030AA001 		moveq	r0, r3, asl #20
 307 025c 200AA0E1 		mov	r0, r0, lsr #20
 308 0260 200000EA 		b	.L50
 309              	.LVL27:
 310              	.L42:
 311              		.loc 1 93 0
 312 0264 101095E5 		ldr	r1, [r5, #16]
 313              	.LVL28:
 314 0268 FF2000E2 		and	r2, r0, #255
 315 026c 8220A0E1 		mov	r2, r2, asl #1
 316 0270 0730A0E1 		mov	r3, r7
 317 0274 201481E0 		add	r1, r1, r0, lsr #8
 318 0278 0D00A0E1 		mov	r0, sp
 319 027c FEFFFFEB 		bl	disk_readp
 320 0280 000050E3 		cmp	r0, #0
 321              		.loc 1 95 0
 322 0284 0120DD05 		ldreqb	r2, [sp, #1]	@ zero_extendqisi2
 323 0288 0030DD05 		ldreqb	r3, [sp, #0]	@ zero_extendqisi2
 324 028c 02048301 		orreq	r0, r3, r2, asl #8
 325              		.loc 1 93 0
 326 0290 1400000A 		beq	.L50
 327 0294 120000EA 		b	.L38
 328              	.LVL29:
 329              	.L43:
 330              		.loc 1 98 0
 331 0298 101095E5 		ldr	r1, [r5, #16]
 332 029c 7F2000E2 		and	r2, r0, #127
 333 02a0 A01381E0 		add	r1, r1, r0, lsr #7
 334 02a4 0221A0E1 		mov	r2, r2, asl #2
 335 02a8 0D00A0E1 		mov	r0, sp
 336              	.LVL30:
 337 02ac 0430A0E3 		mov	r3, #4
 338 02b0 FEFFFFEB 		bl	disk_readp
 339 02b4 000050E3 		cmp	r0, #0
 340 02b8 0900001A 		bne	.L38
 341              		.loc 1 100 0
 342 02bc 0230DDE5 		ldrb	r3, [sp, #2]	@ zero_extendqisi2
 343 02c0 0320DDE5 		ldrb	r2, [sp, #3]	@ zero_extendqisi2
 344 02c4 0338A0E1 		mov	r3, r3, asl #16
 345 02c8 0010DDE5 		ldrb	r1, [sp, #0]	@ zero_extendqisi2
 346 02cc 023C83E1 		orr	r3, r3, r2, asl #24
 347 02d0 0120DDE5 		ldrb	r2, [sp, #1]	@ zero_extendqisi2
 348 02d4 013083E1 		orr	r3, r3, r1
 349 02d8 023483E1 		orr	r3, r3, r2, asl #8
ARM GAS  /cygdrive/c/DOCUME~1/mkwapisz/LOCALS~1/Temp/ccd1rULD.s 			page 15


 350 02dc 0F02C3E3 		bic	r0, r3, #-268435456
 351 02e0 000000EA 		b	.L50
 352              	.LVL31:
 353              	.L38:
 354 02e4 0100A0E3 		mov	r0, #1
 355              	.LVL32:
 356              	.L50:
 357              		.loc 1 105 0
 358 02e8 04D08DE2 		add	sp, sp, #4
 359 02ec F041BDE8 		ldmfd	sp!, {r4, r5, r6, r7, r8, lr}
 360 02f0 1EFF2FE1 		bx	lr
 361              	.L57:
 362              		.align	2
 363              	.L56:
 364 02f4 00000000 		.word	FatFs
 365 02f8 FF010000 		.word	511
 366              	.LFE4:
 367              		.size	get_fat, .-get_fat
 368              		.global	__udivsi3
 369              		.align	2
 370              		.global	pf_lseek
 371              		.type	pf_lseek, %function
 372              	pf_lseek:
 373              	.LFB17:
 446:src/pff.c     **** 
 447:src/pff.c     **** /*--------------------------------------------------------------------------
 448:src/pff.c     **** 
 449:src/pff.c     ****  Public Functions
 450:src/pff.c     **** 
 451:src/pff.c     ****  --------------------------------------------------------------------------*/
 452:src/pff.c     **** 
 453:src/pff.c     **** /*-----------------------------------------------------------------------*/
 454:src/pff.c     **** /* Mount/Unmount a Locical Drive                                         */
 455:src/pff.c     **** /*-----------------------------------------------------------------------*/
 456:src/pff.c     **** 
 457:src/pff.c     **** FRESULT pf_mount (FATFS *fs /* Pointer to new file system object (NULL: Unmount) */
 458:src/pff.c     **** )
 459:src/pff.c     **** {
 460:src/pff.c     **** 	BYTE fmt, buf[36];
 461:src/pff.c     **** 	DWORD bsect, fsize, tsect, mclst;
 462:src/pff.c     **** 
 463:src/pff.c     **** 	FatFs = 0;
 464:src/pff.c     **** 	if (!fs)
 465:src/pff.c     **** 		return FR_OK; /* Unregister fs object */
 466:src/pff.c     **** 
 467:src/pff.c     **** 	if (disk_initialize () & STA_NOINIT) /* Check if the drive is ready or not */
 468:src/pff.c     **** 		return FR_NOT_READY;
 469:src/pff.c     **** 
 470:src/pff.c     **** 	/* Search FAT partition on the drive */
 471:src/pff.c     **** 	bsect = 0;
 472:src/pff.c     **** 	fmt = check_fs (buf, bsect); /* Check sector 0 as an SFD format */
 473:src/pff.c     **** 	if (fmt == 1)
 474:src/pff.c     **** 	{ /* Not an FAT boot record, it may be FDISK format */
 475:src/pff.c     **** 		/* Check a partition listed in top of the partition table */
 476:src/pff.c     **** 		if (disk_readp (buf, bsect, MBR_Table, 16))
 477:src/pff.c     **** 		{ /* 1st partition entry */
 478:src/pff.c     **** 			fmt = 3;
ARM GAS  /cygdrive/c/DOCUME~1/mkwapisz/LOCALS~1/Temp/ccd1rULD.s 			page 16


 479:src/pff.c     **** 		} else
 480:src/pff.c     **** 		{
 481:src/pff.c     **** 			if (buf[4])
 482:src/pff.c     **** 			{ /* Is the partition existing? */
 483:src/pff.c     **** 				bsect = LD_DWORD(&buf[8]); /* Partition offset in LBA */
 484:src/pff.c     **** 				fmt = check_fs (buf, bsect); /* Check the partition */
 485:src/pff.c     **** 			}
 486:src/pff.c     **** 		}
 487:src/pff.c     **** 	}
 488:src/pff.c     **** 	if (fmt == 3)
 489:src/pff.c     **** 		return FR_DISK_ERR;
 490:src/pff.c     **** 	if (fmt)
 491:src/pff.c     **** 		return FR_NO_FILESYSTEM; /* No valid FAT patition is found */
 492:src/pff.c     **** 
 493:src/pff.c     **** 	/* Initialize the file system object */
 494:src/pff.c     **** 	if (disk_readp (buf, bsect, 13, sizeof(buf)))
 495:src/pff.c     **** 		return FR_DISK_ERR;
 496:src/pff.c     **** 
 497:src/pff.c     **** 	fsize = LD_WORD(buf+BPB_FATSz16-13); /* Number of sectors per FAT */
 498:src/pff.c     **** 	if (!fsize)
 499:src/pff.c     **** 		fsize = LD_DWORD(buf+BPB_FATSz32-13);
 500:src/pff.c     **** 
 501:src/pff.c     **** 	fsize *= buf[BPB_NumFATs - 13]; /* Number of sectors in FAT area */
 502:src/pff.c     **** 	fs->fatbase = bsect + LD_WORD(buf+BPB_RsvdSecCnt-13); /* FAT start sector (lba) */
 503:src/pff.c     **** 	fs->csize = buf[BPB_SecPerClus - 13]; /* Number of sectors per cluster */
 504:src/pff.c     **** 	fs->n_rootdir = LD_WORD(buf+BPB_RootEntCnt-13); /* Nmuber of root directory entries */
 505:src/pff.c     **** 	tsect = LD_WORD(buf+BPB_TotSec16-13); /* Number of sectors on the file system */
 506:src/pff.c     **** 	if (!tsect)
 507:src/pff.c     **** 		tsect = LD_DWORD(buf+BPB_TotSec32-13);
 508:src/pff.c     **** 	mclst = (tsect /* Last cluster# + 1 */
 509:src/pff.c     **** 	- LD_WORD(buf+BPB_RsvdSecCnt-13) - fsize - fs->n_rootdir / 16) / fs->csize + 2;
 510:src/pff.c     **** 	fs->max_clust = (CLUST) mclst;
 511:src/pff.c     **** 
 512:src/pff.c     **** 	fmt = FS_FAT12; /* Determine the FAT sub type */
 513:src/pff.c     **** 	if (mclst >= 0xFF7)
 514:src/pff.c     **** 		fmt = FS_FAT16; /* Number of clusters >= 0xFF5 */
 515:src/pff.c     **** 	if (mclst >= 0xFFF7) /* Number of clusters >= 0xFFF5 */
 516:src/pff.c     **** #if _FS_FAT32
 517:src/pff.c     **** 		fmt = FS_FAT32;
 518:src/pff.c     **** #else
 519:src/pff.c     **** 	return FR_NO_FILESYSTEM;
 520:src/pff.c     **** #endif
 521:src/pff.c     **** 
 522:src/pff.c     **** 	fs->fs_type = fmt; /* FAT sub-type */
 523:src/pff.c     **** #if _FS_FAT32
 524:src/pff.c     **** 	if (fmt == FS_FAT32)
 525:src/pff.c     **** 		fs->dirbase = LD_DWORD(buf+(BPB_RootClus-13)); /* Root directory start cluster */
 526:src/pff.c     **** 	else
 527:src/pff.c     **** #endif
 528:src/pff.c     **** 		fs->dirbase = fs->fatbase + fsize; /* Root directory start sector (lba) */
 529:src/pff.c     **** 	fs->database = fs->fatbase + fsize + fs->n_rootdir / 16; /* Data start sector (lba) */
 530:src/pff.c     **** 
 531:src/pff.c     **** 	fs->flag = 0;
 532:src/pff.c     **** 	FatFs = fs;
 533:src/pff.c     **** 
 534:src/pff.c     **** 	return FR_OK;
 535:src/pff.c     **** }
ARM GAS  /cygdrive/c/DOCUME~1/mkwapisz/LOCALS~1/Temp/ccd1rULD.s 			page 17


 536:src/pff.c     **** 
 537:src/pff.c     **** /*-----------------------------------------------------------------------*/
 538:src/pff.c     **** /* Open or Create a File                                                 */
 539:src/pff.c     **** /*-----------------------------------------------------------------------*/
 540:src/pff.c     **** 
 541:src/pff.c     **** FRESULT pf_open (const char *path /* Pointer to the file name */
 542:src/pff.c     **** )
 543:src/pff.c     **** {
 544:src/pff.c     **** 	FRESULT res;
 545:src/pff.c     **** 	DIR dj;
 546:src/pff.c     **** 	BYTE sp[12], dir[32];
 547:src/pff.c     **** 	FATFS *fs = FatFs;
 548:src/pff.c     **** 
 549:src/pff.c     **** 	if (!fs) /* Check file system */
 550:src/pff.c     **** 		return FR_NOT_ENABLED;
 551:src/pff.c     **** 
 552:src/pff.c     **** 	fs->flag = 0;
 553:src/pff.c     **** 	fs->buf = dir;
 554:src/pff.c     **** 	dj.fn = sp;
 555:src/pff.c     **** 	res = follow_path (&dj, path); /* Follow the file path */
 556:src/pff.c     **** 	if (res != FR_OK)
 557:src/pff.c     **** 		return res; /* Follow failed */
 558:src/pff.c     **** 	if (!dir[0] || (dir[DIR_Attr] & AM_DIR)) /* It is a directory */
 559:src/pff.c     **** 		return FR_NO_FILE;
 560:src/pff.c     **** 
 561:src/pff.c     **** 	fs->org_clust = /* File start cluster */
 562:src/pff.c     **** #if _FS_FAT32
 563:src/pff.c     **** 			((DWORD) LD_WORD(dir+DIR_FstClusHI) << 16) |
 564:src/pff.c     **** #endif
 565:src/pff.c     **** 					LD_WORD(dir+DIR_FstClusLO);
 566:src/pff.c     **** 	fs->fsize = LD_DWORD(dir+DIR_FileSize); /* File size */
 567:src/pff.c     **** 	fs->fptr = 0; /* File pointer */
 568:src/pff.c     **** 	fs->flag = FA_OPENED;
 569:src/pff.c     **** 
 570:src/pff.c     **** 	return FR_OK;
 571:src/pff.c     **** }
 572:src/pff.c     **** 
 573:src/pff.c     **** /*-----------------------------------------------------------------------*/
 574:src/pff.c     **** /* Read File                                                             */
 575:src/pff.c     **** /*-----------------------------------------------------------------------*/
 576:src/pff.c     **** #if _USE_READ
 577:src/pff.c     **** 
 578:src/pff.c     **** DRESULT dr;
 579:src/pff.c     **** CLUST clst;
 580:src/pff.c     **** DWORD sect, remain;
 581:src/pff.c     **** BYTE *rbuff;
 582:src/pff.c     **** WORD rcnt;
 583:src/pff.c     **** FATFS *fs;
 584:src/pff.c     **** 
 585:src/pff.c     **** FRESULT pf_read (void* buff, /* Pointer to the read buffer (NULL:Forward data to the stream)*/
 586:src/pff.c     **** WORD btr, /* Number of bytes to read */
 587:src/pff.c     **** WORD* br /* Pointer to number of bytes read */
 588:src/pff.c     **** )
 589:src/pff.c     **** {
 590:src/pff.c     **** 	//DRESULT dr;
 591:src/pff.c     **** 	//CLUST clst;
 592:src/pff.c     **** 	//DWORD sect, remain;
ARM GAS  /cygdrive/c/DOCUME~1/mkwapisz/LOCALS~1/Temp/ccd1rULD.s 			page 18


 593:src/pff.c     **** 	rbuff = buff;
 594:src/pff.c     **** 	//WORD rcnt;
 595:src/pff.c     **** 	fs = FatFs;
 596:src/pff.c     **** 
 597:src/pff.c     **** 	*br = 0;
 598:src/pff.c     **** 	if (!fs)
 599:src/pff.c     **** 		return FR_NOT_ENABLED; /* Check file system */
 600:src/pff.c     **** 	if (!(fs->flag & FA_OPENED)) /* Check if opened */
 601:src/pff.c     **** 		return FR_NOT_OPENED;
 602:src/pff.c     **** 
 603:src/pff.c     **** 	remain = fs->fsize - fs->fptr;
 604:src/pff.c     **** 	if (btr > remain)
 605:src/pff.c     **** 		btr = (WORD) remain; /* Truncate btr by remaining bytes */
 606:src/pff.c     **** 
 607:src/pff.c     **** 	while (btr)
 608:src/pff.c     **** 	{ /* Repeat until all data transferred */
 609:src/pff.c     **** 		if ((fs->fptr % 512) == 0)
 610:src/pff.c     **** 		{ /* On the sector boundary? */
 611:src/pff.c     **** 			if ((fs->fptr / 512 % fs->csize) == 0)
 612:src/pff.c     **** 			{ /* On the cluster boundary? */
 613:src/pff.c     **** 				clst = (fs->fptr == 0) ? /* On the top of the file? */
 614:src/pff.c     **** 				fs->org_clust : get_fat (fs->curr_clust);
 615:src/pff.c     **** 				if (clst <= 1)
 616:src/pff.c     **** 					goto fr_abort;
 617:src/pff.c     **** 				fs->curr_clust = clst; /* Update current cluster */
 618:src/pff.c     **** 				fs->csect = 0; /* Reset sector offset in the cluster */
 619:src/pff.c     **** 			}
 620:src/pff.c     **** 			sect = clust2sect (fs->curr_clust); /* Get current sector */
 621:src/pff.c     **** 			if (!sect)
 622:src/pff.c     **** 				goto fr_abort;
 623:src/pff.c     **** 			fs->dsect = sect + fs->csect++;
 624:src/pff.c     **** 		}
 625:src/pff.c     **** 		rcnt = 512 - ((WORD) fs->fptr % 512); /* Get partial sector data from sector buffer */
 626:src/pff.c     **** 		if (rcnt > btr)
 627:src/pff.c     **** 			rcnt = btr;
 628:src/pff.c     **** 		dr = disk_readp (!buff ? 0 : rbuff, fs->dsect, (WORD) (fs->fptr % 512), rcnt);
 629:src/pff.c     **** 		if (dr)
 630:src/pff.c     **** 			goto fr_abort;
 631:src/pff.c     **** 		fs->fptr += rcnt;
 632:src/pff.c     **** 		rbuff += rcnt; /* Update pointers and counters */
 633:src/pff.c     **** 		btr -= rcnt;
 634:src/pff.c     **** 		*br += rcnt;
 635:src/pff.c     **** 	}
 636:src/pff.c     **** 
 637:src/pff.c     **** 	return FR_OK;
 638:src/pff.c     **** 
 639:src/pff.c     **** 	fr_abort: fs->flag = 0;
 640:src/pff.c     **** 	return FR_DISK_ERR;
 641:src/pff.c     **** }
 642:src/pff.c     **** #endif
 643:src/pff.c     **** 
 644:src/pff.c     **** /*-----------------------------------------------------------------------*/
 645:src/pff.c     **** /* Write File                                                            */
 646:src/pff.c     **** /*-----------------------------------------------------------------------*/
 647:src/pff.c     **** #if _USE_WRITE
 648:src/pff.c     **** 
 649:src/pff.c     **** FRESULT pf_write (
ARM GAS  /cygdrive/c/DOCUME~1/mkwapisz/LOCALS~1/Temp/ccd1rULD.s 			page 19


 650:src/pff.c     **** 		const void* buff, /* Pointer to the data to be written */
 651:src/pff.c     **** 		WORD btw, /* Number of bytes to write (0:Finalize the current write operation) */
 652:src/pff.c     **** 		WORD* bw /* Pointer to number of bytes written */
 653:src/pff.c     **** )
 654:src/pff.c     **** {
 655:src/pff.c     **** 	CLUST clst;
 656:src/pff.c     **** 	DWORD sect, remain;
 657:src/pff.c     **** 	const BYTE *p = buff;
 658:src/pff.c     **** 	WORD wcnt;
 659:src/pff.c     **** 	FATFS *fs = FatFs;
 660:src/pff.c     **** 
 661:src/pff.c     **** 	*bw = 0;
 662:src/pff.c     **** 	if (!fs) return FR_NOT_ENABLED; /* Check file system */
 663:src/pff.c     **** 	if (!(fs->flag & FA_OPENED)) /* Check if opened */
 664:src/pff.c     **** 	return FR_NOT_OPENED;
 665:src/pff.c     **** 
 666:src/pff.c     **** 	if (!btw)
 667:src/pff.c     **** 	{ /* Finalize request */
 668:src/pff.c     **** 		if ((fs->flag & FA__WIP) && disk_writep(0, 0)) goto fw_abort;
 669:src/pff.c     **** 		fs->flag &= ~FA__WIP;
 670:src/pff.c     **** 		return FR_OK;
 671:src/pff.c     **** 	} else
 672:src/pff.c     **** 	{ /* Write data request */
 673:src/pff.c     **** 		if (!(fs->flag & FA__WIP)) /* Round down fptr to the sector boundary */
 674:src/pff.c     **** 		fs->fptr &= 0xFFFFFE00;
 675:src/pff.c     **** 	}
 676:src/pff.c     **** 	remain = fs->fsize - fs->fptr;
 677:src/pff.c     **** 	if (btw > remain) btw = (WORD)remain; /* Truncate btw by remaining bytes */
 678:src/pff.c     **** 
 679:src/pff.c     **** 	while (btw)
 680:src/pff.c     **** 	{ /* Repeat until all data transferred */
 681:src/pff.c     **** 		if (((WORD)fs->fptr % 512) == 0)
 682:src/pff.c     **** 		{ /* On the sector boundary? */
 683:src/pff.c     **** 			if ((fs->fptr / 512 % fs->csize) == 0)
 684:src/pff.c     **** 			{ /* On the cluster boundary? */
 685:src/pff.c     **** 				clst = (fs->fptr == 0) ? /* On the top of the file? */
 686:src/pff.c     **** 				fs->org_clust : get_fat(fs->curr_clust);
 687:src/pff.c     **** 				if (clst <= 1) goto fw_abort;
 688:src/pff.c     **** 				fs->curr_clust = clst; /* Update current cluster */
 689:src/pff.c     **** 				fs->csect = 0; /* Reset sector offset in the cluster */
 690:src/pff.c     **** 			}
 691:src/pff.c     **** 			sect = clust2sect(fs->curr_clust); /* Get current sector */
 692:src/pff.c     **** 			if (!sect) goto fw_abort;
 693:src/pff.c     **** 			fs->dsect = sect + fs->csect++;
 694:src/pff.c     **** 			if (disk_writep(0, fs->dsect)) goto fw_abort; /* Initiate a sector write operation */
 695:src/pff.c     **** 			fs->flag |= FA__WIP;
 696:src/pff.c     **** 		}
 697:src/pff.c     **** 		wcnt = 512 - ((WORD)fs->fptr % 512); /* Number of bytes to write to the sector */
 698:src/pff.c     **** 		if (wcnt > btw) wcnt = btw;
 699:src/pff.c     **** 		if (disk_writep(p, wcnt)) goto fw_abort; /* Send data to the sector */
 700:src/pff.c     **** 		fs->fptr += wcnt; p += wcnt; /* Update pointers and counters */
 701:src/pff.c     **** 		btw -= wcnt; *bw += wcnt;
 702:src/pff.c     **** 		if (((WORD)fs->fptr % 512) == 0)
 703:src/pff.c     **** 		{
 704:src/pff.c     **** 			if (disk_writep(0, 0)) goto fw_abort; /* Finalize the currtent secter write operation */
 705:src/pff.c     **** 			fs->flag &= ~FA__WIP;
 706:src/pff.c     **** 		}
ARM GAS  /cygdrive/c/DOCUME~1/mkwapisz/LOCALS~1/Temp/ccd1rULD.s 			page 20


 707:src/pff.c     **** 	}
 708:src/pff.c     **** 
 709:src/pff.c     **** 	return FR_OK;
 710:src/pff.c     **** 
 711:src/pff.c     **** 	fw_abort:
 712:src/pff.c     **** 	fs->flag = 0;
 713:src/pff.c     **** 	return FR_DISK_ERR;
 714:src/pff.c     **** }
 715:src/pff.c     **** #endif
 716:src/pff.c     **** 
 717:src/pff.c     **** /*-----------------------------------------------------------------------*/
 718:src/pff.c     **** /* Seek File R/W Pointer                                                 */
 719:src/pff.c     **** /*-----------------------------------------------------------------------*/
 720:src/pff.c     **** #if _USE_LSEEK
 721:src/pff.c     **** 
 722:src/pff.c     **** FRESULT pf_lseek (DWORD ofs /* File pointer from top of file */
 723:src/pff.c     **** )
 724:src/pff.c     **** {
 374              		.loc 1 724 0
 375              		@ Function supports interworking.
 376              		@ args = 0, pretend = 0, frame = 0
 377              		@ frame_needed = 0, uses_anonymous_args = 0
 378              	.LVL33:
 725:src/pff.c     **** 	CLUST clst;
 726:src/pff.c     **** 	DWORD bcs, sect, ifptr;
 727:src/pff.c     **** 	FATFS *fs = FatFs;
 379              		.loc 1 727 0
 380 02fc 3C319FE5 		ldr	r3, .L80
 381              		.loc 1 724 0
 382 0300 F0412DE9 		stmfd	sp!, {r4, r5, r6, r7, r8, lr}
 383              	.LCFI4:
 384              		.loc 1 727 0
 385 0304 005093E5 		ldr	r5, [r3, #0]
 386              	.LVL34:
 728:src/pff.c     **** 
 729:src/pff.c     **** 	if (!fs)
 387              		.loc 1 729 0
 388 0308 000055E3 		cmp	r5, #0
 389 030c 0600A003 		moveq	r0, #6
 390              	.LVL35:
 391 0310 4800000A 		beq	.L61
 730:src/pff.c     **** 		return FR_NOT_ENABLED; /* Check file system */
 731:src/pff.c     **** 	if (!(fs->flag & FA_OPENED)) /* Check if opened */
 392              		.loc 1 731 0
 393 0314 0230D5E5 		ldrb	r3, [r5, #2]	@ zero_extendqisi2
 394 0318 010013E3 		tst	r3, #1
 395 031c 0500A003 		moveq	r0, #5
 396 0320 4400000A 		beq	.L61
 397 0324 203095E5 		ldr	r3, [r5, #32]
 398              	.LVL36:
 399 0328 030050E1 		cmp	r0, r3
 400 032c 0060A031 		movcc	r6, r0
 401 0330 0360A021 		movcs	r6, r3
 402              	.LVL37:
 732:src/pff.c     **** 		return FR_NOT_OPENED;
 733:src/pff.c     **** 
 734:src/pff.c     **** 	if (ofs > fs->fsize)
ARM GAS  /cygdrive/c/DOCUME~1/mkwapisz/LOCALS~1/Temp/ccd1rULD.s 			page 21


 735:src/pff.c     **** 		ofs = fs->fsize; /* Clip offset with the file size */
 736:src/pff.c     **** 	ifptr = fs->fptr;
 737:src/pff.c     **** 	fs->fptr = 0;
 738:src/pff.c     **** 	if (ofs > 0)
 403              		.loc 1 738 0
 404 0334 000056E3 		cmp	r6, #0
 405              		.loc 1 737 0
 406 0338 0030A0E3 		mov	r3, #0
 407              		.loc 1 736 0
 408 033c 1C0095E5 		ldr	r0, [r5, #28]
 409              	.LVL38:
 410              		.loc 1 737 0
 411 0340 1C3085E5 		str	r3, [r5, #28]
 412              		.loc 1 738 0
 413 0344 3A00000A 		beq	.L64
 739:src/pff.c     **** 	{
 740:src/pff.c     **** 		bcs = (DWORD) fs->csize * 512; /* Cluster size (byte) */
 414              		.loc 1 740 0
 415 0348 0130D5E5 		ldrb	r3, [r5, #1]	@ zero_extendqisi2
 741:src/pff.c     **** 		if (ifptr > 0 && (ofs - 1) / bcs >= (ifptr - 1) / bcs)
 416              		.loc 1 741 0
 417 034c 000050E3 		cmp	r0, #0
 418              		.loc 1 740 0
 419 0350 8374A0E1 		mov	r7, r3, asl #9
 420              	.LVL39:
 421              		.loc 1 741 0
 422 0354 0D00000A 		beq	.L66
 423 0358 018040E2 		sub	r8, r0, #1
 424 035c 0710A0E1 		mov	r1, r7
 425 0360 010046E2 		sub	r0, r6, #1
 426              	.LVL40:
 427 0364 FEFFFFEB 		bl	__udivsi3
 428 0368 0710A0E1 		mov	r1, r7
 429 036c 0040A0E1 		mov	r4, r0
 430 0370 0800A0E1 		mov	r0, r8
 431 0374 FEFFFFEB 		bl	__udivsi3
 432 0378 000054E1 		cmp	r4, r0
 742:src/pff.c     **** 		{ /* When seek to same or following cluster, */
 743:src/pff.c     **** 			fs->fptr = (ifptr - 1) & ~(bcs - 1); /* start from the current cluster */
 433              		.loc 1 743 0
 434 037c 00306722 		rsbcs	r3, r7, #0
 435 0380 03300820 		andcs	r3, r8, r3
 744:src/pff.c     **** 			ofs -= fs->fptr;
 745:src/pff.c     **** 			clst = fs->curr_clust;
 436              		.loc 1 745 0
 437 0384 28209525 		ldrcs	r2, [r5, #40]
 438              	.LVL41:
 439              		.loc 1 744 0
 440 0388 06606320 		rsbcs	r6, r3, r6
 441 038c 0D00002A 		bcs	.L79
 442              	.LVL42:
 443              	.L66:
 746:src/pff.c     **** 		} else
 747:src/pff.c     **** 		{ /* When seek to back cluster, */
 748:src/pff.c     **** 			clst = fs->org_clust; /* start from the first cluster */
 444              		.loc 1 748 0
 445 0390 242095E5 		ldr	r2, [r5, #36]
ARM GAS  /cygdrive/c/DOCUME~1/mkwapisz/LOCALS~1/Temp/ccd1rULD.s 			page 22


 446              	.LVL43:
 749:src/pff.c     **** 			fs->curr_clust = clst;
 447              		.loc 1 749 0
 448 0394 282085E5 		str	r2, [r5, #40]
 449 0398 0B0000EA 		b	.L78
 450              	.LVL44:
 451              	.L70:
 750:src/pff.c     **** 		}
 751:src/pff.c     **** 		while (ofs > bcs)
 752:src/pff.c     **** 		{ /* Cluster following loop */
 753:src/pff.c     **** 			clst = get_fat (clst); /* Follow cluster chain */
 452              		.loc 1 753 0
 453 039c 77FFFFEB 		bl	get_fat
 454              	.LVL45:
 455              	.LVL46:
 754:src/pff.c     **** 			if (clst <= 1 || clst >= fs->max_clust)
 456              		.loc 1 754 0
 457 03a0 010050E3 		cmp	r0, #1
 458              	.LVL47:
 459              		.loc 1 753 0
 460 03a4 0020A0E1 		mov	r2, r0
 461              	.LVL48:
 755:src/pff.c     **** 				goto fe_abort;
 756:src/pff.c     **** 			fs->curr_clust = clst;
 757:src/pff.c     **** 			fs->fptr += bcs;
 758:src/pff.c     **** 			ofs -= bcs;
 462              		.loc 1 758 0
 463 03a8 066067E0 		rsb	r6, r7, r6
 464              		.loc 1 754 0
 465 03ac 1C00009A 		bls	.L71
 466 03b0 0C3095E5 		ldr	r3, [r5, #12]
 467 03b4 030050E1 		cmp	r0, r3
 468 03b8 1900002A 		bcs	.L71
 469              	.LVL49:
 470              		.loc 1 757 0
 471 03bc 1C3095E5 		ldr	r3, [r5, #28]
 472              		.loc 1 756 0
 473 03c0 280085E5 		str	r0, [r5, #40]
 474              		.loc 1 757 0
 475 03c4 073083E0 		add	r3, r3, r7
 476              	.LVL50:
 477              	.L79:
 478 03c8 1C3085E5 		str	r3, [r5, #28]
 479              	.LVL51:
 480              	.L78:
 481              		.loc 1 751 0
 482 03cc 070056E1 		cmp	r6, r7
 483              		.loc 1 753 0
 484 03d0 0200A0E1 		mov	r0, r2
 485              	.LVL52:
 486              		.loc 1 751 0
 487 03d4 F0FFFF8A 		bhi	.L70
 488              	.LVL53:
 759:src/pff.c     **** 		}
 760:src/pff.c     **** 		fs->fptr += ofs;
 489              		.loc 1 760 0
 490 03d8 1C3095E5 		ldr	r3, [r5, #28]
ARM GAS  /cygdrive/c/DOCUME~1/mkwapisz/LOCALS~1/Temp/ccd1rULD.s 			page 23


 491 03dc 063083E0 		add	r3, r3, r6
 492 03e0 1C3085E5 		str	r3, [r5, #28]
 761:src/pff.c     **** 		sect = clust2sect (clst); /* Current sector */
 493              		.loc 1 761 0
 494 03e4 05FFFFEB 		bl	clust2sect
 495              	.LVL54:
 762:src/pff.c     **** 		if (!sect)
 496              		.loc 1 762 0
 497 03e8 001050E2 		subs	r1, r0, #0
 498              	.LVL55:
 499 03ec 0C00000A 		beq	.L71
 763:src/pff.c     **** 			goto fe_abort;
 764:src/pff.c     **** 		fs->csect = (BYTE) (ofs / 512); /* Sector offset in the cluster */
 765:src/pff.c     **** 		if (ofs % 512)
 500              		.loc 1 765 0
 501 03f0 863BA0E1 		mov	r3, r6, asl #23
 502 03f4 A33BA0E1 		mov	r3, r3, lsr #23
 503              		.loc 1 764 0
 504 03f8 A624A0E1 		mov	r2, r6, lsr #9
 505 03fc FF0002E2 		and	r0, r2, #255
 506              		.loc 1 765 0
 507 0400 000053E3 		cmp	r3, #0
 508              		.loc 1 764 0
 509 0404 0300C5E5 		strb	r0, [r5, #3]
 510              		.loc 1 765 0
 511 0408 0900000A 		beq	.L64
 766:src/pff.c     **** 			fs->dsect = sect + fs->csect++;
 512              		.loc 1 766 0
 513 040c 002081E0 		add	r2, r1, r0
 514 0410 013080E2 		add	r3, r0, #1
 515 0414 0000A0E3 		mov	r0, #0
 516 0418 0330C5E5 		strb	r3, [r5, #3]
 517 041c 2C2085E5 		str	r2, [r5, #44]
 518 0420 040000EA 		b	.L61
 519              	.LVL56:
 520              	.L71:
 767:src/pff.c     **** 	}
 768:src/pff.c     **** 
 769:src/pff.c     **** 	return FR_OK;
 770:src/pff.c     **** 
 771:src/pff.c     **** 	fe_abort: fs->flag = 0;
 521              		.loc 1 771 0
 522 0424 0030A0E3 		mov	r3, #0
 523 0428 0100A0E3 		mov	r0, #1
 524 042c 0230C5E5 		strb	r3, [r5, #2]
 525 0430 000000EA 		b	.L61
 526              	.LVL57:
 527              	.L64:
 772:src/pff.c     **** 	return FR_DISK_ERR;
 528              		.loc 1 772 0
 529 0434 0000A0E3 		mov	r0, #0
 530              	.LVL58:
 531              	.L61:
 773:src/pff.c     **** }
 532              		.loc 1 773 0
 533 0438 F041BDE8 		ldmfd	sp!, {r4, r5, r6, r7, r8, lr}
 534 043c 1EFF2FE1 		bx	lr
ARM GAS  /cygdrive/c/DOCUME~1/mkwapisz/LOCALS~1/Temp/ccd1rULD.s 			page 24


 535              	.L81:
 536              		.align	2
 537              	.L80:
 538 0440 00000000 		.word	FatFs
 539              	.LFE17:
 540              		.size	pf_lseek, .-pf_lseek
 541              		.global	__umodsi3
 542              		.align	2
 543              		.global	pf_read
 544              		.type	pf_read, %function
 545              	pf_read:
 546              	.LFB16:
 547              		.loc 1 589 0
 548              		@ Function supports interworking.
 549              		@ args = 0, pretend = 0, frame = 0
 550              		@ frame_needed = 0, uses_anonymous_args = 0
 551              	.LVL59:
 552              		.loc 1 595 0
 553 0444 D8319FE5 		ldr	r3, .L110
 554              		.loc 1 589 0
 555 0448 F0412DE9 		stmfd	sp!, {r4, r5, r6, r7, r8, lr}
 556              	.LCFI5:
 557              		.loc 1 595 0
 558 044c 00E093E5 		ldr	lr, [r3, #0]
 559              		.loc 1 593 0
 560 0450 D0319FE5 		ldr	r3, .L110+4
 561 0454 000083E5 		str	r0, [r3, #0]
 562              		.loc 1 595 0
 563 0458 CC319FE5 		ldr	r3, .L110+8
 564              		.loc 1 589 0
 565 045c 0118A0E1 		mov	r1, r1, asl #16
 566              	.LVL60:
 567              		.loc 1 598 0
 568 0460 00005EE3 		cmp	lr, #0
 569              		.loc 1 595 0
 570 0464 00E083E5 		str	lr, [r3, #0]
 571              		.loc 1 597 0
 572 0468 0030A0E3 		mov	r3, #0	@ movhi
 573              		.loc 1 589 0
 574 046c 0080A0E1 		mov	r8, r0
 575 0470 0270A0E1 		mov	r7, r2
 576 0474 2168A0E1 		mov	r6, r1, lsr #16
 577              	.LVL61:
 578              		.loc 1 597 0
 579 0478 B030C2E1 		strh	r3, [r2, #0]	@ movhi
 580              		.loc 1 598 0
 581 047c 0600A003 		moveq	r0, #6
 582              	.LVL62:
 583 0480 6500000A 		beq	.L85
 584              		.loc 1 600 0
 585 0484 0230DEE5 		ldrb	r3, [lr, #2]	@ zero_extendqisi2
 586 0488 010013E3 		tst	r3, #1
 587 048c 0500A003 		moveq	r0, #5
 588 0490 6100000A 		beq	.L85
 589              		.loc 1 603 0
 590 0494 20308EE2 		add	r3, lr, #32
 591 0498 0C0013E8 		ldmda	r3, {r2, r3}
ARM GAS  /cygdrive/c/DOCUME~1/mkwapisz/LOCALS~1/Temp/ccd1rULD.s 			page 25


 592 049c 022043E0 		sub	r2, r3, r2
 593              	.LVL63:
 594 04a0 88319FE5 		ldr	r3, .L110+12
 595              		.loc 1 604 0
 596 04a4 020056E1 		cmp	r6, r2
 597              		.loc 1 603 0
 598 04a8 002083E5 		str	r2, [r3, #0]
 599              		.loc 1 605 0
 600 04ac 0238A081 		movhi	r3, r2, asl #16
 601 04b0 2368A081 		movhi	r6, r3, lsr #16
 602 04b4 4F0000EA 		b	.L109
 603              	.L90:
 604              		.loc 1 609 0
 605 04b8 6C319FE5 		ldr	r3, .L110+8
 606 04bc 005093E5 		ldr	r5, [r3, #0]
 607 04c0 1C4095E5 		ldr	r4, [r5, #28]
 608 04c4 843BA0E1 		mov	r3, r4, asl #23
 609 04c8 A33BA0E1 		mov	r3, r3, lsr #23
 610 04cc 000053E3 		cmp	r3, #0
 611 04d0 1E00001A 		bne	.L91
 612              		.loc 1 611 0
 613 04d4 A404A0E1 		mov	r0, r4, lsr #9
 614 04d8 0110D5E5 		ldrb	r1, [r5, #1]	@ zero_extendqisi2
 615 04dc FEFFFFEB 		bl	__umodsi3
 616 04e0 000050E3 		cmp	r0, #0
 617 04e4 0C00001A 		bne	.L93
 618              		.loc 1 613 0
 619 04e8 000054E3 		cmp	r4, #0
 620 04ec 24009505 		ldreq	r0, [r5, #36]
 621 04f0 28009515 		ldrne	r0, [r5, #40]
 622 04f4 21FFFF1B 		blne	get_fat
 623              	.L97:
 624 04f8 34319FE5 		ldr	r3, .L110+16
 625              		.loc 1 615 0
 626 04fc 010050E3 		cmp	r0, #1
 627              		.loc 1 613 0
 628 0500 000083E5 		str	r0, [r3, #0]
 629              		.loc 1 615 0
 630 0504 3F00009A 		bls	.L98
 631              		.loc 1 617 0
 632 0508 1C319FE5 		ldr	r3, .L110+8
 633 050c 002093E5 		ldr	r2, [r3, #0]
 634              		.loc 1 618 0
 635 0510 0030A0E3 		mov	r3, #0
 636 0514 0330C2E5 		strb	r3, [r2, #3]
 637              		.loc 1 617 0
 638 0518 280082E5 		str	r0, [r2, #40]
 639              	.L93:
 640              		.loc 1 620 0
 641 051c 08319FE5 		ldr	r3, .L110+8
 642 0520 004093E5 		ldr	r4, [r3, #0]
 643 0524 280094E5 		ldr	r0, [r4, #40]
 644 0528 B4FEFFEB 		bl	clust2sect
 645 052c 04319FE5 		ldr	r3, .L110+20
 646              		.loc 1 621 0
 647 0530 000050E3 		cmp	r0, #0
 648              		.loc 1 620 0
ARM GAS  /cygdrive/c/DOCUME~1/mkwapisz/LOCALS~1/Temp/ccd1rULD.s 			page 26


 649 0534 000083E5 		str	r0, [r3, #0]
 650              		.loc 1 621 0
 651 0538 3200000A 		beq	.L98
 652              		.loc 1 623 0
 653 053c 0330D4E5 		ldrb	r3, [r4, #3]	@ zero_extendqisi2
 654 0540 032080E0 		add	r2, r0, r3
 655 0544 013083E2 		add	r3, r3, #1
 656 0548 0330C4E5 		strb	r3, [r4, #3]
 657 054c 2C2084E5 		str	r2, [r4, #44]
 658              	.L91:
 659              		.loc 1 625 0
 660 0550 D4309FE5 		ldr	r3, .L110+8
 661 0554 001093E5 		ldr	r1, [r3, #0]
 662 0558 1C3091E5 		ldr	r3, [r1, #28]
 663 055c FE3CC3E3 		bic	r3, r3, #65024
 664 0560 023C63E2 		rsb	r3, r3, #512
 665 0564 0338A0E1 		mov	r3, r3, asl #16
 666 0568 2338A0E1 		mov	r3, r3, lsr #16
 667 056c C8209FE5 		ldr	r2, .L110+24
 668              		.loc 1 626 0
 669 0570 060053E1 		cmp	r3, r6
 670              		.loc 1 625 0
 671 0574 B030C2E1 		strh	r3, [r2, #0]	@ movhi
 672              		.loc 1 627 0
 673 0578 B060C281 		strhih	r6, [r2, #0]	@ movhi
 674              		.loc 1 628 0
 675 057c 000058E3 		cmp	r8, #0
 676 0580 BC21D1E1 		ldrh	r2, [r1, #28]
 677 0584 9C309F15 		ldrne	r3, .L110+4
 678 0588 AC509FE5 		ldr	r5, .L110+24
 679 058c 822BA0E1 		mov	r2, r2, asl #23
 680 0590 00009315 		ldrne	r0, [r3, #0]
 681 0594 0800A001 		moveq	r0, r8
 682 0598 B030D5E1 		ldrh	r3, [r5, #0]
 683 059c 2C1091E5 		ldr	r1, [r1, #44]
 684 05a0 A22BA0E1 		mov	r2, r2, lsr #23
 685 05a4 FEFFFFEB 		bl	disk_readp
 686 05a8 90309FE5 		ldr	r3, .L110+28
 687              		.loc 1 629 0
 688 05ac 000050E3 		cmp	r0, #0
 689              		.loc 1 628 0
 690 05b0 000083E5 		str	r0, [r3, #0]
 691              		.loc 1 629 0
 692 05b4 1300001A 		bne	.L98
 693              		.loc 1 631 0
 694 05b8 6C309FE5 		ldr	r3, .L110+8
 695              		.loc 1 632 0
 696 05bc 64409FE5 		ldr	r4, .L110+4
 697              		.loc 1 631 0
 698 05c0 00E093E5 		ldr	lr, [r3, #0]
 699              		.loc 1 632 0
 700 05c4 001094E5 		ldr	r1, [r4, #0]
 701              		.loc 1 631 0
 702 05c8 B030D5E1 		ldrh	r3, [r5, #0]
 703 05cc 1C209EE5 		ldr	r2, [lr, #28]
 704              		.loc 1 634 0
 705 05d0 B000D7E1 		ldrh	r0, [r7, #0]
ARM GAS  /cygdrive/c/DOCUME~1/mkwapisz/LOCALS~1/Temp/ccd1rULD.s 			page 27


 706              		.loc 1 633 0
 707 05d4 06C063E0 		rsb	ip, r3, r6
 708              		.loc 1 634 0
 709 05d8 000083E0 		add	r0, r3, r0
 710              		.loc 1 631 0
 711 05dc 032082E0 		add	r2, r2, r3
 712              		.loc 1 632 0
 713 05e0 031081E0 		add	r1, r1, r3
 714              		.loc 1 633 0
 715 05e4 0CC8A0E1 		mov	ip, ip, asl #16
 716              		.loc 1 631 0
 717 05e8 1C208EE5 		str	r2, [lr, #28]
 718              		.loc 1 632 0
 719 05ec 001084E5 		str	r1, [r4, #0]
 720              		.loc 1 634 0
 721 05f0 B000C7E1 		strh	r0, [r7, #0]	@ movhi
 722              		.loc 1 633 0
 723 05f4 2C68A0E1 		mov	r6, ip, lsr #16
 724              	.L109:
 725              		.loc 1 607 0
 726 05f8 000056E3 		cmp	r6, #0
 727 05fc ADFFFF1A 		bne	.L90
 728 0600 0600A0E1 		mov	r0, r6
 729 0604 040000EA 		b	.L85
 730              	.L98:
 731              		.loc 1 639 0
 732 0608 1C309FE5 		ldr	r3, .L110+8
 733 060c 002093E5 		ldr	r2, [r3, #0]
 734 0610 0030A0E3 		mov	r3, #0
 735 0614 0230C2E5 		strb	r3, [r2, #2]
 736 0618 0100A0E3 		mov	r0, #1
 737              	.LVL64:
 738              	.L85:
 739              		.loc 1 641 0
 740 061c F041BDE8 		ldmfd	sp!, {r4, r5, r6, r7, r8, lr}
 741 0620 1EFF2FE1 		bx	lr
 742              	.L111:
 743              		.align	2
 744              	.L110:
 745 0624 00000000 		.word	FatFs
 746 0628 00000000 		.word	rbuff
 747 062c 00000000 		.word	fs
 748 0630 00000000 		.word	remain
 749 0634 00000000 		.word	clst
 750 0638 00000000 		.word	sect
 751 063c 00000000 		.word	rcnt
 752 0640 00000000 		.word	dr
 753              	.LFE16:
 754              		.size	pf_read, .-pf_read
 755              		.align	2
 756              		.type	dir_next, %function
 757              	dir_next:
 758              	.LFB7:
 759              		.loc 1 154 0
 760              		@ Function supports interworking.
 761              		@ args = 0, pretend = 0, frame = 0
 762              		@ frame_needed = 0, uses_anonymous_args = 0
ARM GAS  /cygdrive/c/DOCUME~1/mkwapisz/LOCALS~1/Temp/ccd1rULD.s 			page 28


 763              	.LVL65:
 764              		.loc 1 159 0
 765 0644 B030D0E1 		ldrh	r3, [r0, #0]
 766 0648 013083E2 		add	r3, r3, #1
 767 064c 0328A0E1 		mov	r2, r3, asl #16
 768              		.loc 1 157 0
 769 0650 9C309FE5 		ldr	r3, .L126
 770              		.loc 1 154 0
 771 0654 70402DE9 		stmfd	sp!, {r4, r5, r6, lr}
 772              	.LCFI6:
 773              		.loc 1 160 0
 774 0658 2268B0E1 		movs	r6, r2, lsr #16
 775              	.LVL66:
 776              		.loc 1 154 0
 777 065c 0040A0E1 		mov	r4, r0
 778              		.loc 1 157 0
 779 0660 005093E5 		ldr	r5, [r3, #0]
 780              	.LVL67:
 781              		.loc 1 160 0
 782 0664 1F00000A 		beq	.L113
 783              	.LVL68:
 784 0668 103090E5 		ldr	r3, [r0, #16]
 785 066c 000053E3 		cmp	r3, #0
 786 0670 1C00000A 		beq	.L113
 787              	.LVL69:
 788              		.loc 1 163 0
 789 0674 0F0016E3 		tst	r6, #15
 790 0678 1700001A 		bne	.L116
 791              		.loc 1 167 0
 792 067c 0C0090E5 		ldr	r0, [r0, #12]
 793              	.LVL70:
 794              		.loc 1 165 0
 795 0680 013083E2 		add	r3, r3, #1
 796              		.loc 1 167 0
 797 0684 000050E3 		cmp	r0, #0
 798              		.loc 1 165 0
 799 0688 103084E5 		str	r3, [r4, #16]
 800              		.loc 1 167 0
 801 068c 0300001A 		bne	.L118
 802              		.loc 1 169 0
 803 0690 B430D5E1 		ldrh	r3, [r5, #4]
 804 0694 060053E1 		cmp	r3, r6
 805 0698 0F00008A 		bhi	.L116
 806 069c 110000EA 		b	.L113
 807              	.L118:
 808              		.loc 1 173 0
 809 06a0 0130D5E5 		ldrb	r3, [r5, #1]	@ zero_extendqisi2
 810 06a4 013043E2 		sub	r3, r3, #1
 811 06a8 222A13E0 		ands	r2, r3, r2, lsr #20
 812 06ac 0A00001A 		bne	.L116
 813              		.loc 1 175 0
 814 06b0 B2FEFFEB 		bl	get_fat
 815              	.LVL71:
 816              		.loc 1 176 0
 817 06b4 010050E3 		cmp	r0, #1
 818              	.LVL72:
 819              		.loc 1 175 0
ARM GAS  /cygdrive/c/DOCUME~1/mkwapisz/LOCALS~1/Temp/ccd1rULD.s 			page 29


 820 06b8 0020A0E1 		mov	r2, r0
 821              	.LVL73:
 822              		.loc 1 176 0
 823 06bc 0100A093 		movls	r0, #1
 824 06c0 0900009A 		bls	.L123
 825              		.loc 1 178 0
 826 06c4 0C3095E5 		ldr	r3, [r5, #12]
 827 06c8 030052E1 		cmp	r2, r3
 828 06cc 0500002A 		bcs	.L113
 829              		.loc 1 180 0
 830 06d0 0C2084E5 		str	r2, [r4, #12]
 831              		.loc 1 181 0
 832 06d4 49FEFFEB 		bl	clust2sect
 833              	.LVL74:
 834 06d8 100084E5 		str	r0, [r4, #16]
 835              	.LVL75:
 836              	.L116:
 837              		.loc 1 186 0
 838 06dc 0000A0E3 		mov	r0, #0
 839 06e0 B060C4E1 		strh	r6, [r4, #0]	@ movhi
 840 06e4 000000EA 		b	.L123
 841              	.LVL76:
 842              	.L113:
 843              		.loc 1 188 0
 844 06e8 0300A0E3 		mov	r0, #3
 845              	.L123:
 846              		.loc 1 189 0
 847 06ec 7040BDE8 		ldmfd	sp!, {r4, r5, r6, lr}
 848 06f0 1EFF2FE1 		bx	lr
 849              	.L127:
 850              		.align	2
 851              	.L126:
 852 06f4 00000000 		.word	FatFs
 853              	.LFE7:
 854              		.size	dir_next, .-dir_next
 855              		.align	2
 856              		.global	pf_readdir
 857              		.type	pf_readdir, %function
 858              	pf_readdir:
 859              	.LFB19:
 774:src/pff.c     **** #endif
 775:src/pff.c     **** 
 776:src/pff.c     **** /*-----------------------------------------------------------------------*/
 777:src/pff.c     **** /* Create a Directroy Object                                             */
 778:src/pff.c     **** /*-----------------------------------------------------------------------*/
 779:src/pff.c     **** #if _USE_DIR
 780:src/pff.c     **** 
 781:src/pff.c     **** FRESULT pf_opendir (DIR *dj, /* Pointer to directory object to create */
 782:src/pff.c     **** const char *path /* Pointer to the directory path */
 783:src/pff.c     **** )
 784:src/pff.c     **** {
 785:src/pff.c     **** 	FRESULT res;
 786:src/pff.c     **** 	BYTE sp[12], dir[32];
 787:src/pff.c     **** 	FATFS *fs = FatFs;
 788:src/pff.c     **** 
 789:src/pff.c     **** 	if (!fs)
 790:src/pff.c     **** 	{ /* Check file system */
ARM GAS  /cygdrive/c/DOCUME~1/mkwapisz/LOCALS~1/Temp/ccd1rULD.s 			page 30


 791:src/pff.c     **** 		res = FR_NOT_ENABLED;
 792:src/pff.c     **** 	} else
 793:src/pff.c     **** 	{
 794:src/pff.c     **** 		fs->buf = dir;
 795:src/pff.c     **** 		dj->fn = sp;
 796:src/pff.c     **** 		res = follow_path (dj, path); /* Follow the path to the directory */
 797:src/pff.c     **** 		if (res == FR_OK)
 798:src/pff.c     **** 		{ /* Follow completed */
 799:src/pff.c     **** 			if (dir[0])
 800:src/pff.c     **** 			{ /* It is not the root dir */
 801:src/pff.c     **** 				if (dir[DIR_Attr] & AM_DIR)
 802:src/pff.c     **** 				{ /* The object is a directory */
 803:src/pff.c     **** 					dj->sclust =
 804:src/pff.c     **** #if _FS_FAT32
 805:src/pff.c     **** 							((DWORD) LD_WORD(dir+DIR_FstClusHI) << 16) |
 806:src/pff.c     **** #endif
 807:src/pff.c     **** 									LD_WORD(dir+DIR_FstClusLO);
 808:src/pff.c     **** 				} else
 809:src/pff.c     **** 				{ /* The object is not a directory */
 810:src/pff.c     **** 					res = FR_NO_PATH;
 811:src/pff.c     **** 				}
 812:src/pff.c     **** 			}
 813:src/pff.c     **** 			if (res == FR_OK)
 814:src/pff.c     **** 				res = dir_rewind (dj); /* Rewind dir */
 815:src/pff.c     **** 		}
 816:src/pff.c     **** 		if (res == FR_NO_FILE)
 817:src/pff.c     **** 			res = FR_NO_PATH;
 818:src/pff.c     **** 	}
 819:src/pff.c     **** 
 820:src/pff.c     **** 	return res;
 821:src/pff.c     **** }
 822:src/pff.c     **** 
 823:src/pff.c     **** /*-----------------------------------------------------------------------*/
 824:src/pff.c     **** /* Read Directory Entry in Sequense                                      */
 825:src/pff.c     **** /*-----------------------------------------------------------------------*/
 826:src/pff.c     **** 
 827:src/pff.c     **** FRESULT pf_readdir (DIR *dj, /* Pointer to the open directory object */
 828:src/pff.c     **** FILINFO *fno /* Pointer to file information to return */
 829:src/pff.c     **** )
 830:src/pff.c     **** {
 860              		.loc 1 830 0
 861              		@ Function supports interworking.
 862              		@ args = 0, pretend = 0, frame = 44
 863              		@ frame_needed = 0, uses_anonymous_args = 0
 864              	.LVL77:
 865 06f8 70402DE9 		stmfd	sp!, {r4, r5, r6, lr}
 866              	.LCFI7:
 831:src/pff.c     **** 	FRESULT res;
 832:src/pff.c     **** 	BYTE sp[12], dir[32];
 833:src/pff.c     **** 	FATFS *fs = FatFs;
 867              		.loc 1 833 0
 868 06fc E4319FE5 		ldr	r3, .L163
 869 0700 002093E5 		ldr	r2, [r3, #0]
 870              	.LVL78:
 834:src/pff.c     **** 
 835:src/pff.c     **** 	if (!fs)
 871              		.loc 1 835 0
ARM GAS  /cygdrive/c/DOCUME~1/mkwapisz/LOCALS~1/Temp/ccd1rULD.s 			page 31


 872 0704 000052E3 		cmp	r2, #0
 873              		.loc 1 830 0
 874 0708 2CD04DE2 		sub	sp, sp, #44
 875              	.LCFI8:
 876              		.loc 1 830 0
 877 070c 0160A0E1 		mov	r6, r1
 878 0710 0050A0E1 		mov	r5, r0
 879              		.loc 1 835 0
 880 0714 06C0A003 		moveq	ip, #6
 881              	.LVL79:
 882 0718 6E00000A 		beq	.L131
 883              	.LVL80:
 836:src/pff.c     **** 	{ /* Check file system */
 837:src/pff.c     **** 		res = FR_NOT_ENABLED;
 838:src/pff.c     **** 	} else
 839:src/pff.c     **** 	{
 840:src/pff.c     **** 		fs->buf = dir;
 841:src/pff.c     **** 		dj->fn = sp;
 884              		.loc 1 841 0
 885 071c 20308DE2 		add	r3, sp, #32
 886              		.loc 1 840 0
 887 0720 08D082E5 		str	sp, [r2, #8]
 888              		.loc 1 841 0
 889 0724 043080E5 		str	r3, [r0, #4]
 842:src/pff.c     **** 		if (!fno)
 890              		.loc 1 842 0
 891 0728 000051E3 		cmp	r1, #0
 892              	.LBB6:
 893              	.LBB7:
 894              		.loc 1 237 0
 895 072c 08409215 		ldrne	r4, [r2, #8]
 896              	.LVL81:
 897 0730 03C0A013 		movne	ip, #3
 898              	.LBE7:
 899              	.LBE6:
 900              		.loc 1 842 0
 901 0734 1700001A 		bne	.L134
 902              	.LVL82:
 843:src/pff.c     **** 		{
 844:src/pff.c     **** 			res = dir_rewind (dj);
 903              		.loc 1 844 0
 904 0738 3DFEFFEB 		bl	dir_rewind
 905              	.LVL83:
 906 073c 00C0A0E1 		mov	ip, r0
 907              	.LVL84:
 908 0740 640000EA 		b	.L131
 909              	.LVL85:
 910              	.L135:
 911              	.LBB8:
 912              		.loc 1 240 0
 913 0744 B020D5E1 		ldrh	r2, [r5, #0]
 914 0748 0F2002E2 		and	r2, r2, #15
 915 074c 8222A0E1 		mov	r2, r2, asl #5
 916 0750 FEFFFFEB 		bl	disk_readp
 917              	.LVL86:
 918              	.LBB9:
 919 0754 00C050E2 		subs	ip, r0, #0
ARM GAS  /cygdrive/c/DOCUME~1/mkwapisz/LOCALS~1/Temp/ccd1rULD.s 			page 32


 920 0758 01C0A013 		movne	ip, #1
 921              	.LVL87:
 922              		.loc 1 242 0
 923 075c 00005CE3 		cmp	ip, #0
 924              	.LBE9:
 925              		.loc 1 253 0
 926 0760 0500A0E1 		mov	r0, r5
 927              	.LBB10:
 928              		.loc 1 242 0
 929 0764 1200001A 		bne	.L136
 930              	.LVL88:
 931              		.loc 1 244 0
 932 0768 0030D4E5 		ldrb	r3, [r4, #0]	@ zero_extendqisi2
 933              	.LVL89:
 934              		.loc 1 245 0
 935 076c 000053E3 		cmp	r3, #0
 936 0770 5400000A 		beq	.L138
 937              		.loc 1 251 0
 938 0774 E50053E3 		cmp	r3, #229
 939 0778 2E005313 		cmpne	r3, #46
 940              		.loc 1 250 0
 941 077c 0B30D4E5 		ldrb	r3, [r4, #11]	@ zero_extendqisi2
 942              	.LVL90:
 943              		.loc 1 251 0
 944 0780 0100000A 		beq	.L140
 945 0784 080013E3 		tst	r3, #8
 946 0788 0F00000A 		beq	.L142
 947              	.L140:
 948              	.LBE10:
 949              		.loc 1 253 0
 950 078c ACFFFFEB 		bl	dir_next
 951              	.LVL91:
 952              	.LBB11:
 953              		.loc 1 254 0
 954 0790 00C050E2 		subs	ip, r0, #0
 955              	.LVL92:
 956 0794 0600001A 		bne	.L136
 957              	.LVL93:
 958              	.L134:
 959              		.loc 1 238 0
 960 0798 102095E5 		ldr	r2, [r5, #16]
 961              	.LVL94:
 962 079c 001052E2 		subs	r1, r2, #0
 963              	.LBE11:
 964              		.loc 1 240 0
 965 07a0 2030A0E3 		mov	r3, #32
 966 07a4 0400A0E1 		mov	r0, r4
 967              	.LBB12:
 968              		.loc 1 238 0
 969 07a8 E5FFFF1A 		bne	.L135
 970              	.LVL95:
 971              		.loc 1 258 0
 972 07ac 00005CE3 		cmp	ip, #0
 973 07b0 4600000A 		beq	.L144
 974              	.LVL96:
 975              	.L136:
 976              		.loc 1 259 0
ARM GAS  /cygdrive/c/DOCUME~1/mkwapisz/LOCALS~1/Temp/ccd1rULD.s 			page 33


 977 07b4 0030A0E3 		mov	r3, #0
 978              	.LVL97:
 979              	.LBE12:
 980              	.LBE8:
 845:src/pff.c     **** 		} else
 846:src/pff.c     **** 		{
 847:src/pff.c     **** 			res = dir_read (dj);
 848:src/pff.c     **** 			if (res == FR_NO_FILE)
 981              		.loc 1 848 0
 982 07b8 03005CE3 		cmp	ip, #3
 983              	.LBB13:
 984              	.LBB14:
 985              		.loc 1 259 0
 986 07bc 103085E5 		str	r3, [r5, #16]
 987              	.LBE14:
 988              	.LBE13:
 989              		.loc 1 848 0
 990 07c0 4200000A 		beq	.L144
 849:src/pff.c     **** 			{
 850:src/pff.c     **** 				dj->sect = 0;
 851:src/pff.c     **** 				res = FR_OK;
 852:src/pff.c     **** 			}
 853:src/pff.c     **** 			if (res == FR_OK)
 991              		.loc 1 853 0
 992 07c4 00005CE3 		cmp	ip, #0
 993 07c8 4200001A 		bne	.L131
 994              	.LVL98:
 995              	.L142:
 996              	.LBB15:
 997              	.LBB16:
 998              		.loc 1 336 0
 999 07cc 103095E5 		ldr	r3, [r5, #16]
 1000 07d0 000053E3 		cmp	r3, #0
 1001              		.loc 1 335 0
 1002 07d4 09C086E2 		add	ip, r6, #9
 1003              	.LVL99:
 1004              		.loc 1 336 0
 1005 07d8 3100000A 		beq	.L147
 1006              	.LVL100:
 1007              		.loc 1 338 0
 1008 07dc 04319FE5 		ldr	r3, .L163
 1009 07e0 003093E5 		ldr	r3, [r3, #0]
 1010 07e4 080093E5 		ldr	r0, [r3, #8]
 1011              	.LVL101:
 1012 07e8 0C10A0E1 		mov	r1, ip
 1013              	.LVL102:
 1014 07ec 0020A0E3 		mov	r2, #0
 1015              	.LVL103:
 1016              	.L149:
 1017              		.loc 1 341 0
 1018 07f0 0030D2E7 		ldrb	r3, [r2, r0]	@ zero_extendqisi2
 1019              		.loc 1 342 0
 1020 07f4 200053E3 		cmp	r3, #32
 1021 07f8 0600000A 		beq	.L150
 1022              		.loc 1 344 0
 1023 07fc 050053E3 		cmp	r3, #5
 1024 0800 E530A003 		moveq	r3, #229
ARM GAS  /cygdrive/c/DOCUME~1/mkwapisz/LOCALS~1/Temp/ccd1rULD.s 			page 34


 1025              		.loc 1 346 0
 1026 0804 0C30C2E7 		strb	r3, [r2, ip]
 1027 0808 012082E2 		add	r2, r2, #1
 1028              		.loc 1 339 0
 1029 080c 080052E3 		cmp	r2, #8
 1030              		.loc 1 346 0
 1031 0810 011081E2 		add	r1, r1, #1
 1032              		.loc 1 339 0
 1033 0814 F5FFFF1A 		bne	.L149
 1034              	.L150:
 1035              		.loc 1 348 0
 1036 0818 0830D0E5 		ldrb	r3, [r0, #8]	@ zero_extendqisi2
 1037              	.LVL104:
 1038 081c 200053E3 		cmp	r3, #32
 1039 0820 01C0A001 		moveq	ip, r1
 1040 0824 0B00000A 		beq	.L156
 1041              		.loc 1 350 0
 1042 0828 2E30A0E3 		mov	r3, #46
 1043 082c 01C0A0E1 		mov	ip, r1
 1044 0830 0130CCE4 		strb	r3, [ip], #1
 1045 0834 0030A0E1 		mov	r3, r0
 1046              	.LVL105:
 1047              	.L157:
 1048              		.loc 1 353 0
 1049 0838 0820D3E5 		ldrb	r2, [r3, #8]	@ zero_extendqisi2
 1050              		.loc 1 354 0
 1051 083c 200052E3 		cmp	r2, #32
 1052              		.loc 1 351 0
 1053 0840 04E081E2 		add	lr, r1, #4
 1054              		.loc 1 356 0
 1055 0844 013083E2 		add	r3, r3, #1
 1056              		.loc 1 354 0
 1057 0848 0200000A 		beq	.L156
 1058              		.loc 1 356 0
 1059 084c 0120CCE4 		strb	r2, [ip], #1
 1060              		.loc 1 351 0
 1061 0850 0E005CE1 		cmp	ip, lr
 1062 0854 F7FFFF1A 		bne	.L157
 1063              	.L156:
 1064              		.loc 1 359 0
 1065 0858 0B30D0E5 		ldrb	r3, [r0, #11]	@ zero_extendqisi2
 1066 085c 0830C6E5 		strb	r3, [r6, #8]
 1067              		.loc 1 360 0
 1068 0860 1E30D0E5 		ldrb	r3, [r0, #30]	@ zero_extendqisi2
 1069 0864 1F20D0E5 		ldrb	r2, [r0, #31]	@ zero_extendqisi2
 1070              	.LVL106:
 1071 0868 1C10D0E5 		ldrb	r1, [r0, #28]	@ zero_extendqisi2
 1072              	.LVL107:
 1073 086c 0338A0E1 		mov	r3, r3, asl #16
 1074 0870 023C83E1 		orr	r3, r3, r2, asl #24
 1075 0874 1D20D0E5 		ldrb	r2, [r0, #29]	@ zero_extendqisi2
 1076 0878 013083E1 		orr	r3, r3, r1
 1077 087c 023483E1 		orr	r3, r3, r2, asl #8
 1078 0880 003086E5 		str	r3, [r6, #0]
 1079              		.loc 1 361 0
 1080 0884 1920D0E5 		ldrb	r2, [r0, #25]	@ zero_extendqisi2
 1081 0888 1830D0E5 		ldrb	r3, [r0, #24]	@ zero_extendqisi2
ARM GAS  /cygdrive/c/DOCUME~1/mkwapisz/LOCALS~1/Temp/ccd1rULD.s 			page 35


 1082 088c 023483E1 		orr	r3, r3, r2, asl #8
 1083 0890 B430C6E1 		strh	r3, [r6, #4]	@ movhi
 1084              		.loc 1 362 0
 1085 0894 1630D0E5 		ldrb	r3, [r0, #22]	@ zero_extendqisi2
 1086 0898 1720D0E5 		ldrb	r2, [r0, #23]	@ zero_extendqisi2
 1087 089c 023483E1 		orr	r3, r3, r2, asl #8
 1088 08a0 B630C6E1 		strh	r3, [r6, #6]	@ movhi
 1089              	.LVL108:
 1090              	.L147:
 1091              		.loc 1 364 0
 1092 08a4 0040A0E3 		mov	r4, #0
 1093              	.LVL109:
 1094 08a8 0040CCE5 		strb	r4, [ip, #0]
 1095              	.LBE16:
 1096              	.LBE15:
 854:src/pff.c     **** 			{ /* A valid entry is found */
 855:src/pff.c     **** 				get_fileinfo (dj, fno); /* Get the object information */
 856:src/pff.c     **** 				res = dir_next (dj); /* Increment index for next */
 1097              		.loc 1 856 0
 1098 08ac 0500A0E1 		mov	r0, r5
 1099              	.LVL110:
 1100 08b0 63FFFFEB 		bl	dir_next
 1101              	.LVL111:
 1102              	.LVL112:
 857:src/pff.c     **** 				if (res == FR_NO_FILE)
 1103              		.loc 1 857 0
 1104 08b4 030050E3 		cmp	r0, #3
 1105              	.LVL113:
 1106              		.loc 1 856 0
 1107 08b8 00C0A0E1 		mov	ip, r0
 1108              	.LVL114:
 858:src/pff.c     **** 				{
 859:src/pff.c     **** 					dj->sect = 0;
 1109              		.loc 1 859 0
 1110 08bc 04C0A001 		moveq	ip, r4
 1111 08c0 10408505 		streq	r4, [r5, #16]
 1112 08c4 030000EA 		b	.L131
 1113              	.LVL115:
 1114              	.L138:
 1115 08c8 03C0A0E3 		mov	ip, #3
 1116 08cc B8FFFFEA 		b	.L136
 1117              	.LVL116:
 1118              	.L144:
 1119              	.LBB17:
 1120              	.LBB18:
 1121              		.loc 1 335 0
 1122 08d0 09C086E2 		add	ip, r6, #9
 1123              	.LVL117:
 1124 08d4 F2FFFFEA 		b	.L147
 1125              	.LVL118:
 1126              	.L131:
 1127              	.LBE18:
 1128              	.LBE17:
 860:src/pff.c     **** 					res = FR_OK;
 861:src/pff.c     **** 				}
 862:src/pff.c     **** 			}
 863:src/pff.c     **** 		}
ARM GAS  /cygdrive/c/DOCUME~1/mkwapisz/LOCALS~1/Temp/ccd1rULD.s 			page 36


 864:src/pff.c     **** 	}
 865:src/pff.c     **** 
 866:src/pff.c     **** 	return res;
 867:src/pff.c     **** }
 1129              		.loc 1 867 0
 1130 08d8 0C00A0E1 		mov	r0, ip
 1131 08dc 2CD08DE2 		add	sp, sp, #44
 1132 08e0 7040BDE8 		ldmfd	sp!, {r4, r5, r6, lr}
 1133 08e4 1EFF2FE1 		bx	lr
 1134              	.L164:
 1135              		.align	2
 1136              	.L163:
 1137 08e8 00000000 		.word	FatFs
 1138              	.LFE19:
 1139              		.size	pf_readdir, .-pf_readdir
 1140              		.align	2
 1141              		.type	follow_path, %function
 1142              	follow_path:
 1143              	.LFB12:
 1144              		.loc 1 376 0
 1145              		@ Function supports interworking.
 1146              		@ args = 0, pretend = 0, frame = 0
 1147              		@ frame_needed = 0, uses_anonymous_args = 0
 1148              	.LVL119:
 1149 08ec F0402DE9 		stmfd	sp!, {r4, r5, r6, r7, lr}
 1150              	.LCFI9:
 1151              		.loc 1 376 0
 1152 08f0 0050A0E1 		mov	r5, r0
 1153 08f4 0160A0E1 		mov	r6, r1
 1154 08f8 000000EA 		b	.L166
 1155              	.LVL120:
 1156              	.L167:
 1157              		.loc 1 381 0
 1158 08fc 016086E2 		add	r6, r6, #1
 1159              	.L166:
 1160              		.loc 1 380 0
 1161 0900 0030D6E5 		ldrb	r3, [r6, #0]	@ zero_extendqisi2
 1162 0904 200053E3 		cmp	r3, #32
 1163 0908 FBFFFF0A 		beq	.L167
 1164              		.loc 1 384 0
 1165 090c 0040A0E3 		mov	r4, #0
 1166              		.loc 1 382 0
 1167 0910 2F0053E3 		cmp	r3, #47
 1168              		.loc 1 384 0
 1169 0914 084085E5 		str	r4, [r5, #8]
 1170              		.loc 1 383 0
 1171 0918 01608602 		addeq	r6, r6, #1
 1172              		.loc 1 386 0
 1173 091c 0030D6E5 		ldrb	r3, [r6, #0]	@ zero_extendqisi2
 1174 0920 200053E3 		cmp	r3, #32
 1175 0924 0600008A 		bhi	.L209
 1176              		.loc 1 388 0
 1177 0928 0500A0E1 		mov	r0, r5
 1178 092c C0FDFFEB 		bl	dir_rewind
 1179              		.loc 1 389 0
 1180 0930 B8319FE5 		ldr	r3, .L212
 1181 0934 003093E5 		ldr	r3, [r3, #0]
ARM GAS  /cygdrive/c/DOCUME~1/mkwapisz/LOCALS~1/Temp/ccd1rULD.s 			page 37


 1182 0938 083093E5 		ldr	r3, [r3, #8]
 1183 093c 0040C3E5 		strb	r4, [r3, #0]
 1184 0940 680000EA 		b	.L173
 1185              	.LVL121:
 1186              	.L209:
 1187              	.LBB27:
 1188              	.LBB28:
 1189              		.loc 1 281 0
 1190 0944 04C095E5 		ldr	ip, [r5, #4]
 1191              	.LVL122:
 1192 0948 0020A0E3 		mov	r2, #0
 1193              	.L174:
 1194              	.LBB29:
 1195              	.LBB30:
 1196              		.loc 1 43 0
 1197 094c 2030A0E3 		mov	r3, #32
 1198 0950 0C30C2E7 		strb	r3, [r2, ip]
 1199 0954 012082E2 		add	r2, r2, #1
 1200              		.loc 1 42 0
 1201 0958 0B0052E3 		cmp	r2, #11
 1202 095c FAFFFF1A 		bne	.L174
 1203 0960 0070A0E3 		mov	r7, #0
 1204 0964 08E0A0E3 		mov	lr, #8
 1205              	.LVL123:
 1206 0968 0710A0E1 		mov	r1, r7
 1207              	.LVL124:
 1208              	.LVL125:
 1209              	.L211:
 1210              	.LBE30:
 1211              	.LBE29:
 1212              		.loc 1 288 0
 1213 096c 0720D6E7 		ldrb	r2, [r6, r7]	@ zero_extendqisi2
 1214 0970 013087E2 		add	r3, r7, #1
 1215              	.LBE28:
 1216              		.loc 1 289 0
 1217 0974 2F0052E3 		cmp	r2, #47
 1218 0978 20005213 		cmpne	r2, #32
 1219              	.LBB31:
 1220              		.loc 1 312 0
 1221 097c 014081E2 		add	r4, r1, #1
 1222              	.LVL126:
 1223              		.loc 1 310 0
 1224 0980 610042E2 		sub	r0, r2, #97
 1225              		.loc 1 288 0
 1226 0984 FF7003E2 		and	r7, r3, #255
 1227              	.LBE31:
 1228              		.loc 1 289 0
 1229 0988 0E00009A 		bls	.L178
 1230              		.loc 1 291 0
 1231 098c 2E0052E3 		cmp	r2, #46
 1232 0990 0E005111 		cmpne	r1, lr
 1233 0994 0500003A 		bcc	.L180
 1234              		.loc 1 293 0
 1235 0998 2E0052E3 		cmp	r2, #46
 1236 099c 08005E03 		cmpeq	lr, #8
 1237              	.LBB32:
 1238              	.LBB33:
ARM GAS  /cygdrive/c/DOCUME~1/mkwapisz/LOCALS~1/Temp/ccd1rULD.s 			page 38


 1239              	.LBB34:
 1240              		.loc 1 42 0
 1241 09a0 0810A0E3 		mov	r1, #8
 1242 09a4 0BE0A0E3 		mov	lr, #11
 1243              	.LBE34:
 1244              	.LBE33:
 1245              	.LBE32:
 1246              		.loc 1 293 0
 1247 09a8 EFFFFF0A 		beq	.L211
 1248 09ac 050000EA 		b	.L178
 1249              	.L180:
 1250              	.LBB35:
 1251              		.loc 1 310 0
 1252 09b0 190050E3 		cmp	r0, #25
 1253              		.loc 1 311 0
 1254 09b4 203042E2 		sub	r3, r2, #32
 1255 09b8 FF200392 		andls	r2, r3, #255
 1256              		.loc 1 312 0
 1257 09bc 0120CCE7 		strb	r2, [ip, r1]
 1258 09c0 FF1004E2 		and	r1, r4, #255
 1259 09c4 E8FFFFEA 		b	.L211
 1260              	.L178:
 1261              		.loc 1 317 0
 1262 09c8 200052E3 		cmp	r2, #32
 1263 09cc 0030A083 		movhi	r3, #0
 1264 09d0 0130A093 		movls	r3, #1
 1265 09d4 0B30CCE5 		strb	r3, [ip, #11]
 1266              	.LBE35:
 1267              	.LBE27:
 1268              	.LBB36:
 1269              		.loc 1 201 0
 1270 09d8 0500A0E1 		mov	r0, r5
 1271 09dc 94FDFFEB 		bl	dir_rewind
 1272              	.LVL127:
 1273              	.LBB37:
 1274              		.loc 1 202 0
 1275 09e0 000050E3 		cmp	r0, #0
 1276              	.LVL128:
 1277 09e4 2600001A 		bne	.L184
 1278              		.loc 1 205 0
 1279 09e8 00319FE5 		ldr	r3, .L212
 1280 09ec 003093E5 		ldr	r3, [r3, #0]
 1281 09f0 084093E5 		ldr	r4, [r3, #8]
 1282              	.LVL129:
 1283              	.L186:
 1284              	.LBE37:
 1285              		.loc 1 208 0
 1286 09f4 B020D5E1 		ldrh	r2, [r5, #0]
 1287 09f8 0F2002E2 		and	r2, r2, #15
 1288 09fc 8222A0E1 		mov	r2, r2, asl #5
 1289 0a00 0400A0E1 		mov	r0, r4
 1290              	.LVL130:
 1291 0a04 101095E5 		ldr	r1, [r5, #16]
 1292 0a08 2030A0E3 		mov	r3, #32
 1293 0a0c FEFFFFEB 		bl	disk_readp
 1294              	.LBB38:
 1295 0a10 000050E2 		subs	r0, r0, #0
ARM GAS  /cygdrive/c/DOCUME~1/mkwapisz/LOCALS~1/Temp/ccd1rULD.s 			page 39


 1296 0a14 0100A013 		movne	r0, #1
 1297              	.LVL131:
 1298              		.loc 1 210 0
 1299 0a18 000050E3 		cmp	r0, #0
 1300 0a1c 1800001A 		bne	.L184
 1301              		.loc 1 213 0
 1302 0a20 0030D4E5 		ldrb	r3, [r4, #0]	@ zero_extendqisi2
 1303 0a24 000053E3 		cmp	r3, #0
 1304 0a28 1700000A 		beq	.L188
 1305              		.loc 1 218 0
 1306 0a2c 0B30D4E5 		ldrb	r3, [r4, #11]	@ zero_extendqisi2
 1307 0a30 080013E3 		tst	r3, #8
 1308 0a34 04C09505 		ldreq	ip, [r5, #4]
 1309 0a38 0010A001 		moveq	r1, r0
 1310 0a3c 0200000A 		beq	.L192
 1311 0a40 0B0000EA 		b	.L190
 1312              	.L193:
 1313              	.LBB39:
 1314              	.LBB40:
 1315              		.loc 1 51 0
 1316 0a44 0B0051E3 		cmp	r1, #11
 1317 0a48 0500000A 		beq	.L194
 1318              	.L192:
 1319 0a4c 0420D1E7 		ldrb	r2, [r1, r4]	@ zero_extendqisi2
 1320 0a50 0C30D1E7 		ldrb	r3, [r1, ip]	@ zero_extendqisi2
 1321 0a54 030052E1 		cmp	r2, r3
 1322              	.LBE40:
 1323              	.LBE39:
 1324              		.loc 1 218 0
 1325 0a58 011081E2 		add	r1, r1, #1
 1326              	.LBB41:
 1327              	.LBB42:
 1328              		.loc 1 51 0
 1329 0a5c F8FFFF0A 		beq	.L193
 1330 0a60 030000EA 		b	.L190
 1331              	.L194:
 1332              	.LBE42:
 1333              	.LBE41:
 1334              	.LBE38:
 1335              	.LBE36:
 1336              		.loc 1 405 0
 1337 0a64 0B30DCE5 		ldrb	r3, [ip, #11]	@ zero_extendqisi2
 1338 0a68 000053E3 		cmp	r3, #0
 1339 0a6c 0C00000A 		beq	.L208
 1340 0a70 1C0000EA 		b	.L173
 1341              	.L190:
 1342              	.LBB43:
 1343              		.loc 1 220 0
 1344 0a74 0500A0E1 		mov	r0, r5
 1345              	.LVL132:
 1346 0a78 F1FEFFEB 		bl	dir_next
 1347              	.LBB44:
 1348              		.loc 1 221 0
 1349 0a7c 000050E3 		cmp	r0, #0
 1350              	.LVL133:
 1351 0a80 DBFFFF0A 		beq	.L186
 1352              	.L184:
ARM GAS  /cygdrive/c/DOCUME~1/mkwapisz/LOCALS~1/Temp/ccd1rULD.s 			page 40


 1353              	.LBE44:
 1354              	.LBE43:
 1355              		.loc 1 401 0
 1356 0a84 030050E3 		cmp	r0, #3
 1357 0a88 1600001A 		bne	.L173
 1358              	.L188:
 1359 0a8c 043095E5 		ldr	r3, [r5, #4]
 1360 0a90 0B30D3E5 		ldrb	r3, [r3, #11]	@ zero_extendqisi2
 1361 0a94 000053E3 		cmp	r3, #0
 1362 0a98 0300A013 		movne	r0, #3
 1363 0a9c 1100001A 		bne	.L173
 1364 0aa0 0F0000EA 		b	.L196
 1365              	.L208:
 1366              		.loc 1 407 0
 1367 0aa4 44309FE5 		ldr	r3, .L212
 1368 0aa8 003093E5 		ldr	r3, [r3, #0]
 1369 0aac 081093E5 		ldr	r1, [r3, #8]
 1370              	.LVL134:
 1371              		.loc 1 408 0
 1372 0ab0 0B30D1E5 		ldrb	r3, [r1, #11]	@ zero_extendqisi2
 1373 0ab4 100013E3 		tst	r3, #16
 1374 0ab8 0900000A 		beq	.L196
 1375              		.loc 1 413 0
 1376 0abc 1A20D1E5 		ldrb	r2, [r1, #26]	@ zero_extendqisi2
 1377 0ac0 1500D1E5 		ldrb	r0, [r1, #21]	@ zero_extendqisi2
 1378              	.LVL135:
 1379 0ac4 1430D1E5 		ldrb	r3, [r1, #20]	@ zero_extendqisi2
 1380 0ac8 1B10D1E5 		ldrb	r1, [r1, #27]	@ zero_extendqisi2
 1381              	.LVL136:
 1382 0acc 003483E1 		orr	r3, r3, r0, asl #8
 1383 0ad0 012482E1 		orr	r2, r2, r1, asl #8
 1384 0ad4 032882E1 		orr	r2, r2, r3, asl #16
 1385              	.LBB45:
 1386              	.LBB46:
 1387              		.loc 1 315 0
 1388 0ad8 076086E0 		add	r6, r6, r7
 1389              	.LBE46:
 1390              	.LBE45:
 1391              		.loc 1 413 0
 1392 0adc 082085E5 		str	r2, [r5, #8]
 1393 0ae0 97FFFFEA 		b	.L209
 1394              	.LVL137:
 1395              	.L196:
 1396              		.loc 1 418 0
 1397 0ae4 0400A0E3 		mov	r0, #4
 1398              	.L173:
 1399              	.LVL138:
 1400              		.loc 1 422 0
 1401 0ae8 F040BDE8 		ldmfd	sp!, {r4, r5, r6, r7, lr}
 1402 0aec 1EFF2FE1 		bx	lr
 1403              	.L213:
 1404              		.align	2
 1405              	.L212:
 1406 0af0 00000000 		.word	FatFs
 1407              	.LFE12:
 1408              		.size	follow_path, .-follow_path
 1409              		.align	2
ARM GAS  /cygdrive/c/DOCUME~1/mkwapisz/LOCALS~1/Temp/ccd1rULD.s 			page 41


 1410              		.global	pf_opendir
 1411              		.type	pf_opendir, %function
 1412              	pf_opendir:
 1413              	.LFB18:
 1414              		.loc 1 784 0
 1415              		@ Function supports interworking.
 1416              		@ args = 0, pretend = 0, frame = 44
 1417              		@ frame_needed = 0, uses_anonymous_args = 0
 1418              	.LVL139:
 1419 0af4 10402DE9 		stmfd	sp!, {r4, lr}
 1420              	.LCFI10:
 1421              		.loc 1 787 0
 1422 0af8 8C309FE5 		ldr	r3, .L225
 1423 0afc 002093E5 		ldr	r2, [r3, #0]
 1424              	.LVL140:
 1425              		.loc 1 789 0
 1426 0b00 000052E3 		cmp	r2, #0
 1427              		.loc 1 784 0
 1428 0b04 2CD04DE2 		sub	sp, sp, #44
 1429              	.LCFI11:
 1430              		.loc 1 789 0
 1431 0b08 0630A0E3 		mov	r3, #6
 1432              	.LVL141:
 1433              		.loc 1 784 0
 1434 0b0c 0040A0E1 		mov	r4, r0
 1435              		.loc 1 789 0
 1436 0b10 1900000A 		beq	.L217
 1437              	.LVL142:
 1438              		.loc 1 795 0
 1439 0b14 20308DE2 		add	r3, sp, #32
 1440              	.LVL143:
 1441              		.loc 1 794 0
 1442 0b18 08D082E5 		str	sp, [r2, #8]
 1443              		.loc 1 795 0
 1444 0b1c 043080E5 		str	r3, [r0, #4]
 1445              		.loc 1 796 0
 1446 0b20 71FFFFEB 		bl	follow_path
 1447              	.LVL144:
 1448              		.loc 1 797 0
 1449 0b24 003050E2 		subs	r3, r0, #0
 1450              	.LVL145:
 1451 0b28 1000001A 		bne	.L218
 1452              		.loc 1 799 0
 1453 0b2c 0030DDE5 		ldrb	r3, [sp, #0]	@ zero_extendqisi2
 1454              	.LVL146:
 1455 0b30 000053E3 		cmp	r3, #0
 1456              		.loc 1 814 0
 1457 0b34 0400A0E1 		mov	r0, r4
 1458              		.loc 1 799 0
 1459 0b38 0A00000A 		beq	.L220
 1460              	.LVL147:
 1461              		.loc 1 801 0
 1462 0b3c 0B30DDE5 		ldrb	r3, [sp, #11]	@ zero_extendqisi2
 1463 0b40 100013E3 		tst	r3, #16
 1464 0b44 0B00000A 		beq	.L222
 1465              		.loc 1 803 0
 1466 0b48 15C0DDE5 		ldrb	ip, [sp, #21]	@ zero_extendqisi2
ARM GAS  /cygdrive/c/DOCUME~1/mkwapisz/LOCALS~1/Temp/ccd1rULD.s 			page 42


 1467 0b4c 1420DDE5 		ldrb	r2, [sp, #20]	@ zero_extendqisi2
 1468 0b50 1B10DDE5 		ldrb	r1, [sp, #27]	@ zero_extendqisi2
 1469 0b54 1A30DDE5 		ldrb	r3, [sp, #26]	@ zero_extendqisi2
 1470 0b58 0C2482E1 		orr	r2, r2, ip, asl #8
 1471 0b5c 013483E1 		orr	r3, r3, r1, asl #8
 1472 0b60 023883E1 		orr	r3, r3, r2, asl #16
 1473 0b64 083084E5 		str	r3, [r4, #8]
 1474              	.L220:
 1475              		.loc 1 814 0
 1476 0b68 31FDFFEB 		bl	dir_rewind
 1477              	.LVL148:
 1478 0b6c 0030A0E1 		mov	r3, r0
 1479              	.LVL149:
 1480              	.L218:
 1481              		.loc 1 816 0
 1482 0b70 030053E3 		cmp	r3, #3
 1483 0b74 0000001A 		bne	.L217
 1484              	.LVL150:
 1485              	.L222:
 1486 0b78 0430A0E3 		mov	r3, #4
 1487              	.LVL151:
 1488              	.L217:
 1489              		.loc 1 821 0
 1490 0b7c 0300A0E1 		mov	r0, r3
 1491 0b80 2CD08DE2 		add	sp, sp, #44
 1492 0b84 1040BDE8 		ldmfd	sp!, {r4, lr}
 1493 0b88 1EFF2FE1 		bx	lr
 1494              	.L226:
 1495              		.align	2
 1496              	.L225:
 1497 0b8c 00000000 		.word	FatFs
 1498              	.LFE18:
 1499              		.size	pf_opendir, .-pf_opendir
 1500              		.align	2
 1501              		.global	pf_open
 1502              		.type	pf_open, %function
 1503              	pf_open:
 1504              	.LFB15:
 1505              		.loc 1 543 0
 1506              		@ Function supports interworking.
 1507              		@ args = 0, pretend = 0, frame = 64
 1508              		@ frame_needed = 0, uses_anonymous_args = 0
 1509              	.LVL152:
 1510 0b90 10402DE9 		stmfd	sp!, {r4, lr}
 1511              	.LCFI12:
 1512              		.loc 1 547 0
 1513 0b94 B8309FE5 		ldr	r3, .L236
 1514 0b98 004093E5 		ldr	r4, [r3, #0]
 1515              	.LVL153:
 1516              		.loc 1 543 0
 1517 0b9c 40D04DE2 		sub	sp, sp, #64
 1518              	.LCFI13:
 1519              		.loc 1 549 0
 1520 0ba0 000054E3 		cmp	r4, #0
 1521              		.loc 1 543 0
 1522 0ba4 0010A0E1 		mov	r1, r0
 1523              		.loc 1 549 0
ARM GAS  /cygdrive/c/DOCUME~1/mkwapisz/LOCALS~1/Temp/ccd1rULD.s 			page 43


 1524 0ba8 06C0A0E3 		mov	ip, #6
 1525              	.LVL154:
 1526              		.loc 1 555 0
 1527 0bac 20008DE2 		add	r0, sp, #32
 1528              	.LVL155:
 1529              		.loc 1 549 0
 1530 0bb0 2300000A 		beq	.L230
 1531              		.loc 1 552 0
 1532 0bb4 0030A0E3 		mov	r3, #0
 1533 0bb8 0230C4E5 		strb	r3, [r4, #2]
 1534              		.loc 1 553 0
 1535 0bbc 08D084E5 		str	sp, [r4, #8]
 1536              		.loc 1 554 0
 1537 0bc0 34308DE2 		add	r3, sp, #52
 1538 0bc4 24308DE5 		str	r3, [sp, #36]
 1539              		.loc 1 555 0
 1540 0bc8 47FFFFEB 		bl	follow_path
 1541              	.LVL156:
 1542              		.loc 1 556 0
 1543 0bcc 00C050E2 		subs	ip, r0, #0
 1544              	.LVL157:
 1545 0bd0 1B00001A 		bne	.L230
 1546              		.loc 1 558 0
 1547 0bd4 0030DDE5 		ldrb	r3, [sp, #0]	@ zero_extendqisi2
 1548 0bd8 000053E3 		cmp	r3, #0
 1549 0bdc 1700000A 		beq	.L232
 1550 0be0 0B30DDE5 		ldrb	r3, [sp, #11]	@ zero_extendqisi2
 1551 0be4 100013E3 		tst	r3, #16
 1552 0be8 1400001A 		bne	.L232
 1553              		.loc 1 561 0
 1554 0bec 1B10DDE5 		ldrb	r1, [sp, #27]	@ zero_extendqisi2
 1555 0bf0 1500DDE5 		ldrb	r0, [sp, #21]	@ zero_extendqisi2
 1556 0bf4 1420DDE5 		ldrb	r2, [sp, #20]	@ zero_extendqisi2
 1557 0bf8 1A30DDE5 		ldrb	r3, [sp, #26]	@ zero_extendqisi2
 1558 0bfc 002482E1 		orr	r2, r2, r0, asl #8
 1559 0c00 013483E1 		orr	r3, r3, r1, asl #8
 1560 0c04 023883E1 		orr	r3, r3, r2, asl #16
 1561 0c08 243084E5 		str	r3, [r4, #36]
 1562              		.loc 1 566 0
 1563 0c0c 1E30DDE5 		ldrb	r3, [sp, #30]	@ zero_extendqisi2
 1564 0c10 1F20DDE5 		ldrb	r2, [sp, #31]	@ zero_extendqisi2
 1565 0c14 1C10DDE5 		ldrb	r1, [sp, #28]	@ zero_extendqisi2
 1566 0c18 0338A0E1 		mov	r3, r3, asl #16
 1567 0c1c 023C83E1 		orr	r3, r3, r2, asl #24
 1568 0c20 1D20DDE5 		ldrb	r2, [sp, #29]	@ zero_extendqisi2
 1569 0c24 013083E1 		orr	r3, r3, r1
 1570 0c28 023483E1 		orr	r3, r3, r2, asl #8
 1571              		.loc 1 568 0
 1572 0c2c 0120A0E3 		mov	r2, #1
 1573 0c30 0220C4E5 		strb	r2, [r4, #2]
 1574              		.loc 1 566 0
 1575 0c34 203084E5 		str	r3, [r4, #32]
 1576              		.loc 1 567 0
 1577 0c38 1CC084E5 		str	ip, [r4, #28]
 1578 0c3c 000000EA 		b	.L230
 1579              	.L232:
 1580              		.loc 1 570 0
ARM GAS  /cygdrive/c/DOCUME~1/mkwapisz/LOCALS~1/Temp/ccd1rULD.s 			page 44


 1581 0c40 03C0A0E3 		mov	ip, #3
 1582              	.LVL158:
 1583              	.L230:
 1584              		.loc 1 571 0
 1585 0c44 0C00A0E1 		mov	r0, ip
 1586 0c48 40D08DE2 		add	sp, sp, #64
 1587 0c4c 1040BDE8 		ldmfd	sp!, {r4, lr}
 1588 0c50 1EFF2FE1 		bx	lr
 1589              	.L237:
 1590              		.align	2
 1591              	.L236:
 1592 0c54 00000000 		.word	FatFs
 1593              	.LFE15:
 1594              		.size	pf_open, .-pf_open
 1595              		.align	2
 1596              		.global	pf_mount
 1597              		.type	pf_mount, %function
 1598              	pf_mount:
 1599              	.LFB14:
 1600              		.loc 1 459 0
 1601              		@ Function supports interworking.
 1602              		@ args = 0, pretend = 0, frame = 36
 1603              		@ frame_needed = 0, uses_anonymous_args = 0
 1604              	.LVL159:
 1605 0c58 70402DE9 		stmfd	sp!, {r4, r5, r6, lr}
 1606              	.LCFI14:
 1607              		.loc 1 463 0
 1608 0c5c 1C329FE5 		ldr	r3, .L268
 1609              		.loc 1 464 0
 1610 0c60 005050E2 		subs	r5, r0, #0
 1611              		.loc 1 463 0
 1612 0c64 0020A0E3 		mov	r2, #0
 1613              		.loc 1 459 0
 1614 0c68 24D04DE2 		sub	sp, sp, #36
 1615              	.LCFI15:
 1616              		.loc 1 463 0
 1617 0c6c 002083E5 		str	r2, [r3, #0]
 1618              		.loc 1 464 0
 1619 0c70 0500A001 		moveq	r0, r5
 1620              	.LVL160:
 1621 0c74 7E00000A 		beq	.L241
 1622              		.loc 1 467 0
 1623 0c78 FEFFFFEB 		bl	disk_initialize
 1624 0c7c 014010E2 		ands	r4, r0, #1
 1625 0c80 0200A013 		movne	r0, #2
 1626 0c84 7A00001A 		bne	.L241
 1627              		.loc 1 472 0
 1628 0c88 0D00A0E1 		mov	r0, sp
 1629 0c8c 0410A0E1 		mov	r1, r4
 1630 0c90 09FDFFEB 		bl	check_fs
 1631              	.LVL161:
 1632              		.loc 1 473 0
 1633 0c94 010050E3 		cmp	r0, #1
 1634              		.loc 1 472 0
 1635 0c98 0D60A0E1 		mov	r6, sp
 1636              		.loc 1 473 0
 1637 0c9c 1400001A 		bne	.L246
ARM GAS  /cygdrive/c/DOCUME~1/mkwapisz/LOCALS~1/Temp/ccd1rULD.s 			page 45


 1638              		.loc 1 476 0
 1639 0ca0 0410A0E1 		mov	r1, r4
 1640 0ca4 0D00A0E1 		mov	r0, sp
 1641              	.LVL162:
 1642 0ca8 D4219FE5 		ldr	r2, .L268+4
 1643 0cac 1030A0E3 		mov	r3, #16
 1644 0cb0 FEFFFFEB 		bl	disk_readp
 1645 0cb4 000050E3 		cmp	r0, #0
 1646 0cb8 5E00001A 		bne	.L247
 1647              		.loc 1 481 0
 1648 0cbc 0430DDE5 		ldrb	r3, [sp, #4]	@ zero_extendqisi2
 1649 0cc0 000053E3 		cmp	r3, #0
 1650 0cc4 5D00000A 		beq	.L249
 1651              		.loc 1 483 0
 1652 0cc8 0A30DDE5 		ldrb	r3, [sp, #10]	@ zero_extendqisi2
 1653 0ccc 0B20DDE5 		ldrb	r2, [sp, #11]	@ zero_extendqisi2
 1654 0cd0 0810DDE5 		ldrb	r1, [sp, #8]	@ zero_extendqisi2
 1655 0cd4 0338A0E1 		mov	r3, r3, asl #16
 1656 0cd8 023C83E1 		orr	r3, r3, r2, asl #24
 1657 0cdc 0920DDE5 		ldrb	r2, [sp, #9]	@ zero_extendqisi2
 1658 0ce0 013083E1 		orr	r3, r3, r1
 1659 0ce4 024483E1 		orr	r4, r3, r2, asl #8
 1660              	.LVL163:
 1661              		.loc 1 484 0
 1662 0ce8 0D00A0E1 		mov	r0, sp
 1663 0cec 0410A0E1 		mov	r1, r4
 1664 0cf0 F1FCFFEB 		bl	check_fs
 1665              	.LVL164:
 1666              	.L246:
 1667              		.loc 1 488 0
 1668 0cf4 030050E3 		cmp	r0, #3
 1669 0cf8 4E00000A 		beq	.L247
 1670              		.loc 1 490 0
 1671 0cfc 000050E3 		cmp	r0, #0
 1672 0d00 4E00001A 		bne	.L249
 1673              		.loc 1 494 0
 1674 0d04 0D00A0E1 		mov	r0, sp
 1675              	.LVL165:
 1676 0d08 0410A0E1 		mov	r1, r4
 1677 0d0c 0D20A0E3 		mov	r2, #13
 1678 0d10 2430A0E3 		mov	r3, #36
 1679 0d14 FEFFFFEB 		bl	disk_readp
 1680 0d18 000050E3 		cmp	r0, #0
 1681 0d1c 4500001A 		bne	.L247
 1682              		.loc 1 497 0
 1683 0d20 0A20DDE5 		ldrb	r2, [sp, #10]	@ zero_extendqisi2
 1684 0d24 0930DDE5 		ldrb	r3, [sp, #9]	@ zero_extendqisi2
 1685              		.loc 1 498 0
 1686 0d28 023493E1 		orrs	r3, r3, r2, asl #8
 1687              		.loc 1 499 0
 1688 0d2c 1930DD05 		ldreqb	r3, [sp, #25]	@ zero_extendqisi2
 1689 0d30 1A20DD05 		ldreqb	r2, [sp, #26]	@ zero_extendqisi2
 1690 0d34 1710DD05 		ldreqb	r1, [sp, #23]	@ zero_extendqisi2
 1691 0d38 0338A001 		moveq	r3, r3, asl #16
 1692 0d3c 023C8301 		orreq	r3, r3, r2, asl #24
 1693 0d40 1820DD05 		ldreqb	r2, [sp, #24]	@ zero_extendqisi2
 1694 0d44 01308301 		orreq	r3, r3, r1
ARM GAS  /cygdrive/c/DOCUME~1/mkwapisz/LOCALS~1/Temp/ccd1rULD.s 			page 46


 1695 0d48 02C48301 		orreq	ip, r3, r2, asl #8
 1696              	.LVL166:
 1697              		.loc 1 497 0
 1698 0d4c 03C0A011 		movne	ip, r3
 1699              		.loc 1 502 0
 1700 0d50 0220DDE5 		ldrb	r2, [sp, #2]	@ zero_extendqisi2
 1701 0d54 0130DDE5 		ldrb	r3, [sp, #1]	@ zero_extendqisi2
 1702 0d58 023483E1 		orr	r3, r3, r2, asl #8
 1703 0d5c 033084E0 		add	r3, r4, r3
 1704              		.loc 1 501 0
 1705 0d60 0310DDE5 		ldrb	r1, [sp, #3]	@ zero_extendqisi2
 1706              		.loc 1 502 0
 1707 0d64 103085E5 		str	r3, [r5, #16]
 1708              		.loc 1 503 0
 1709 0d68 0030DDE5 		ldrb	r3, [sp, #0]	@ zero_extendqisi2
 1710 0d6c 0130C5E5 		strb	r3, [r5, #1]
 1711              		.loc 1 504 0
 1712 0d70 0520DDE5 		ldrb	r2, [sp, #5]	@ zero_extendqisi2
 1713 0d74 0430DDE5 		ldrb	r3, [sp, #4]	@ zero_extendqisi2
 1714              		.loc 1 501 0
 1715 0d78 910C04E0 		mul	r4, r1, ip
 1716              	.LVL167:
 1717              		.loc 1 504 0
 1718 0d7c 02E483E1 		orr	lr, r3, r2, asl #8
 1719 0d80 B4E0C5E1 		strh	lr, [r5, #4]	@ movhi
 1720              		.loc 1 505 0
 1721 0d84 0720DDE5 		ldrb	r2, [sp, #7]	@ zero_extendqisi2
 1722 0d88 0630DDE5 		ldrb	r3, [sp, #6]	@ zero_extendqisi2
 1723              		.loc 1 506 0
 1724 0d8c 020493E1 		orrs	r0, r3, r2, asl #8
 1725              		.loc 1 507 0
 1726 0d90 1530DD05 		ldreqb	r3, [sp, #21]	@ zero_extendqisi2
 1727 0d94 1620DD05 		ldreqb	r2, [sp, #22]	@ zero_extendqisi2
 1728 0d98 0338A001 		moveq	r3, r3, asl #16
 1729 0d9c 1310DD05 		ldreqb	r1, [sp, #19]	@ zero_extendqisi2
 1730 0da0 023C8301 		orreq	r3, r3, r2, asl #24
 1731 0da4 1420DD05 		ldreqb	r2, [sp, #20]	@ zero_extendqisi2
 1732 0da8 01308301 		orreq	r3, r3, r1
 1733              		.loc 1 505 0
 1734 0dac 0020A011 		movne	r2, r0
 1735              	.LVL168:
 1736              	.LVL169:
 1737              		.loc 1 507 0
 1738 0db0 02248301 		orreq	r2, r3, r2, asl #8
 1739              	.LVL170:
 1740              		.loc 1 508 0
 1741 0db4 0100DDE5 		ldrb	r0, [sp, #1]	@ zero_extendqisi2
 1742 0db8 0230DDE5 		ldrb	r3, [sp, #2]	@ zero_extendqisi2
 1743 0dbc 030480E1 		orr	r0, r0, r3, asl #8
 1744 0dc0 020060E0 		rsb	r0, r0, r2
 1745 0dc4 000064E0 		rsb	r0, r4, r0
 1746 0dc8 2E0240E0 		sub	r0, r0, lr, lsr #4
 1747 0dcc 0110D5E5 		ldrb	r1, [r5, #1]	@ zero_extendqisi2
 1748 0dd0 FEFFFFEB 		bl	__udivsi3
 1749              	.LVL171:
 1750              		.loc 1 513 0
 1751 0dd4 AC309FE5 		ldr	r3, .L268+8
ARM GAS  /cygdrive/c/DOCUME~1/mkwapisz/LOCALS~1/Temp/ccd1rULD.s 			page 47


 1752              		.loc 1 508 0
 1753 0dd8 020080E2 		add	r0, r0, #2
 1754              	.LVL172:
 1755              		.loc 1 513 0
 1756 0ddc 030050E1 		cmp	r0, r3
 1757              		.loc 1 510 0
 1758 0de0 0C0085E5 		str	r0, [r5, #12]
 1759              		.loc 1 513 0
 1760 0de4 0120A093 		movls	r2, #1
 1761              	.LVL173:
 1762 0de8 0300009A 		bls	.L262
 1763              		.loc 1 515 0
 1764 0dec 98309FE5 		ldr	r3, .L268+12
 1765 0df0 030050E1 		cmp	r0, r3
 1766 0df4 1300008A 		bhi	.L263
 1767 0df8 0220A0E3 		mov	r2, #2
 1768              	.L262:
 1769              		.loc 1 528 0
 1770 0dfc 103095E5 		ldr	r3, [r5, #16]
 1771              		.loc 1 522 0
 1772 0e00 0020C5E5 		strb	r2, [r5, #0]
 1773              		.loc 1 528 0
 1774 0e04 043083E0 		add	r3, r3, r4
 1775              	.L267:
 1776              		.loc 1 529 0
 1777 0e08 B420D5E1 		ldrh	r2, [r5, #4]
 1778              	.LVL174:
 1779              		.loc 1 528 0
 1780 0e0c 143085E5 		str	r3, [r5, #20]
 1781              		.loc 1 529 0
 1782 0e10 103095E5 		ldr	r3, [r5, #16]
 1783 0e14 223283E0 		add	r3, r3, r2, lsr #4
 1784 0e18 033084E0 		add	r3, r4, r3
 1785              		.loc 1 531 0
 1786 0e1c 0020A0E3 		mov	r2, #0
 1787              		.loc 1 529 0
 1788 0e20 183085E5 		str	r3, [r5, #24]
 1789              		.loc 1 532 0
 1790 0e24 54309FE5 		ldr	r3, .L268
 1791 0e28 0200A0E1 		mov	r0, r2
 1792              	.LVL175:
 1793              		.loc 1 531 0
 1794 0e2c 0220C5E5 		strb	r2, [r5, #2]
 1795              		.loc 1 532 0
 1796 0e30 005083E5 		str	r5, [r3, #0]
 1797 0e34 0E0000EA 		b	.L241
 1798              	.LVL176:
 1799              	.L247:
 1800              		.loc 1 534 0
 1801 0e38 0100A0E3 		mov	r0, #1
 1802              	.LVL177:
 1803 0e3c 0C0000EA 		b	.L241
 1804              	.LVL178:
 1805              	.L249:
 1806 0e40 0700A0E3 		mov	r0, #7
 1807              	.LVL179:
 1808 0e44 0A0000EA 		b	.L241
ARM GAS  /cygdrive/c/DOCUME~1/mkwapisz/LOCALS~1/Temp/ccd1rULD.s 			page 48


 1809              	.LVL180:
 1810              	.L263:
 1811              		.loc 1 522 0
 1812 0e48 0330A0E3 		mov	r3, #3
 1813 0e4c 0030C5E5 		strb	r3, [r5, #0]
 1814              		.loc 1 525 0
 1815 0e50 2130DDE5 		ldrb	r3, [sp, #33]	@ zero_extendqisi2
 1816 0e54 2220DDE5 		ldrb	r2, [sp, #34]	@ zero_extendqisi2
 1817              	.LVL181:
 1818 0e58 0338A0E1 		mov	r3, r3, asl #16
 1819 0e5c 1F10DDE5 		ldrb	r1, [sp, #31]	@ zero_extendqisi2
 1820 0e60 023C83E1 		orr	r3, r3, r2, asl #24
 1821 0e64 2020DDE5 		ldrb	r2, [sp, #32]	@ zero_extendqisi2
 1822 0e68 013083E1 		orr	r3, r3, r1
 1823 0e6c 023483E1 		orr	r3, r3, r2, asl #8
 1824 0e70 E4FFFFEA 		b	.L267
 1825              	.LVL182:
 1826              	.L241:
 1827              		.loc 1 535 0
 1828 0e74 24D08DE2 		add	sp, sp, #36
 1829 0e78 7040BDE8 		ldmfd	sp!, {r4, r5, r6, lr}
 1830 0e7c 1EFF2FE1 		bx	lr
 1831              	.L269:
 1832              		.align	2
 1833              	.L268:
 1834 0e80 00000000 		.word	FatFs
 1835 0e84 BE010000 		.word	446
 1836 0e88 F60F0000 		.word	4086
 1837 0e8c F6FF0000 		.word	65526
 1838              	.LFE14:
 1839              		.size	pf_mount, .-pf_mount
 1840              		.bss
 1841              		.align	2
 1842              	FatFs:
 1843 0000 00000000 		.space	4
 1844              		.comm	dr,4,4
 1845              		.comm	clst,4,4
 1846              		.comm	sect,4,4
 1847              		.comm	remain,4,4
 1848              		.comm	rbuff,4,4
 1849              		.comm	rcnt,2,2
 1850              		.comm	fs,4,4
 1851              		.section	.debug_frame,"",%progbits
 1852              	.Lframe0:
 1853 0000 0C000000 		.4byte	.LECIE0-.LSCIE0
 1854              	.LSCIE0:
 1855 0004 FFFFFFFF 		.4byte	0xffffffff
 1856 0008 01       		.byte	0x1
 1857 0009 00       		.ascii	"\000"
 1858 000a 01       		.uleb128 0x1
 1859 000b 7C       		.sleb128 -4
 1860 000c 0E       		.byte	0xe
 1861 000d 0C       		.byte	0xc
 1862 000e 0D       		.uleb128 0xd
 1863 000f 00       		.uleb128 0x0
 1864              		.align	2
 1865              	.LECIE0:
ARM GAS  /cygdrive/c/DOCUME~1/mkwapisz/LOCALS~1/Temp/ccd1rULD.s 			page 49


 1866              	.LSFDE0:
 1867 0010 0C000000 		.4byte	.LEFDE0-.LASFDE0
 1868              	.LASFDE0:
 1869 0014 00000000 		.4byte	.Lframe0
 1870 0018 00000000 		.4byte	.LFB5
 1871 001c 34000000 		.4byte	.LFE5-.LFB5
 1872              		.align	2
 1873              	.LEFDE0:
 1874              	.LSFDE2:
 1875 0020 14000000 		.4byte	.LEFDE2-.LASFDE2
 1876              	.LASFDE2:
 1877 0024 00000000 		.4byte	.Lframe0
 1878 0028 34000000 		.4byte	.LFB6
 1879 002c 88000000 		.4byte	.LFE6-.LFB6
 1880 0030 48       		.byte	0x4
 1881              		.4byte	.LCFI0-.LFB6
 1882 0031 0E       		.byte	0xe
 1883 0032 08       		.uleb128 0x8
 1884 0033 8E       		.byte	0x8e
 1885 0034 01       		.uleb128 0x1
 1886 0035 84       		.byte	0x84
 1887 0036 02       		.uleb128 0x2
 1888 0037 00       		.align	2
 1889              	.LEFDE2:
 1890              	.LSFDE4:
 1891 0038 18000000 		.4byte	.LEFDE4-.LASFDE4
 1892              	.LASFDE4:
 1893 003c 00000000 		.4byte	.Lframe0
 1894 0040 BC000000 		.4byte	.LFB13
 1895 0044 C4000000 		.4byte	.LFE13-.LFB13
 1896 0048 44       		.byte	0x4
 1897              		.4byte	.LCFI1-.LFB13
 1898 0049 0E       		.byte	0xe
 1899 004a 10       		.uleb128 0x10
 1900 004b 8E       		.byte	0x8e
 1901 004c 01       		.uleb128 0x1
 1902 004d 86       		.byte	0x86
 1903 004e 02       		.uleb128 0x2
 1904 004f 85       		.byte	0x85
 1905 0050 03       		.uleb128 0x3
 1906 0051 84       		.byte	0x84
 1907 0052 04       		.uleb128 0x4
 1908 0053 00       		.align	2
 1909              	.LEFDE4:
 1910              	.LSFDE6:
 1911 0054 20000000 		.4byte	.LEFDE6-.LASFDE6
 1912              	.LASFDE6:
 1913 0058 00000000 		.4byte	.Lframe0
 1914 005c 80010000 		.4byte	.LFB4
 1915 0060 7C010000 		.4byte	.LFE4-.LFB4
 1916 0064 44       		.byte	0x4
 1917              		.4byte	.LCFI2-.LFB4
 1918 0065 0E       		.byte	0xe
 1919 0066 18       		.uleb128 0x18
 1920 0067 4C       		.byte	0x4
 1921              		.4byte	.LCFI3-.LCFI2
 1922 0068 0E       		.byte	0xe
ARM GAS  /cygdrive/c/DOCUME~1/mkwapisz/LOCALS~1/Temp/ccd1rULD.s 			page 50


 1923 0069 1C       		.uleb128 0x1c
 1924 006a 8E       		.byte	0x8e
 1925 006b 01       		.uleb128 0x1
 1926 006c 88       		.byte	0x88
 1927 006d 02       		.uleb128 0x2
 1928 006e 87       		.byte	0x87
 1929 006f 03       		.uleb128 0x3
 1930 0070 86       		.byte	0x86
 1931 0071 04       		.uleb128 0x4
 1932 0072 85       		.byte	0x85
 1933 0073 05       		.uleb128 0x5
 1934 0074 84       		.byte	0x84
 1935 0075 06       		.uleb128 0x6
 1936 0076 0000     		.align	2
 1937              	.LEFDE6:
 1938              	.LSFDE8:
 1939 0078 1C000000 		.4byte	.LEFDE8-.LASFDE8
 1940              	.LASFDE8:
 1941 007c 00000000 		.4byte	.Lframe0
 1942 0080 FC020000 		.4byte	.LFB17
 1943 0084 48010000 		.4byte	.LFE17-.LFB17
 1944 0088 48       		.byte	0x4
 1945              		.4byte	.LCFI4-.LFB17
 1946 0089 0E       		.byte	0xe
 1947 008a 18       		.uleb128 0x18
 1948 008b 8E       		.byte	0x8e
 1949 008c 01       		.uleb128 0x1
 1950 008d 88       		.byte	0x88
 1951 008e 02       		.uleb128 0x2
 1952 008f 87       		.byte	0x87
 1953 0090 03       		.uleb128 0x3
 1954 0091 86       		.byte	0x86
 1955 0092 04       		.uleb128 0x4
 1956 0093 85       		.byte	0x85
 1957 0094 05       		.uleb128 0x5
 1958 0095 84       		.byte	0x84
 1959 0096 06       		.uleb128 0x6
 1960 0097 00       		.align	2
 1961              	.LEFDE8:
 1962              	.LSFDE10:
 1963 0098 1C000000 		.4byte	.LEFDE10-.LASFDE10
 1964              	.LASFDE10:
 1965 009c 00000000 		.4byte	.Lframe0
 1966 00a0 44040000 		.4byte	.LFB16
 1967 00a4 00020000 		.4byte	.LFE16-.LFB16
 1968 00a8 48       		.byte	0x4
 1969              		.4byte	.LCFI5-.LFB16
 1970 00a9 0E       		.byte	0xe
 1971 00aa 18       		.uleb128 0x18
 1972 00ab 8E       		.byte	0x8e
 1973 00ac 01       		.uleb128 0x1
 1974 00ad 88       		.byte	0x88
 1975 00ae 02       		.uleb128 0x2
 1976 00af 87       		.byte	0x87
 1977 00b0 03       		.uleb128 0x3
 1978 00b1 86       		.byte	0x86
 1979 00b2 04       		.uleb128 0x4
ARM GAS  /cygdrive/c/DOCUME~1/mkwapisz/LOCALS~1/Temp/ccd1rULD.s 			page 51


 1980 00b3 85       		.byte	0x85
 1981 00b4 05       		.uleb128 0x5
 1982 00b5 84       		.byte	0x84
 1983 00b6 06       		.uleb128 0x6
 1984 00b7 00       		.align	2
 1985              	.LEFDE10:
 1986              	.LSFDE12:
 1987 00b8 18000000 		.4byte	.LEFDE12-.LASFDE12
 1988              	.LASFDE12:
 1989 00bc 00000000 		.4byte	.Lframe0
 1990 00c0 44060000 		.4byte	.LFB7
 1991 00c4 B4000000 		.4byte	.LFE7-.LFB7
 1992 00c8 54       		.byte	0x4
 1993              		.4byte	.LCFI6-.LFB7
 1994 00c9 0E       		.byte	0xe
 1995 00ca 10       		.uleb128 0x10
 1996 00cb 8E       		.byte	0x8e
 1997 00cc 01       		.uleb128 0x1
 1998 00cd 86       		.byte	0x86
 1999 00ce 02       		.uleb128 0x2
 2000 00cf 85       		.byte	0x85
 2001 00d0 03       		.uleb128 0x3
 2002 00d1 84       		.byte	0x84
 2003 00d2 04       		.uleb128 0x4
 2004 00d3 00       		.align	2
 2005              	.LEFDE12:
 2006              	.LSFDE14:
 2007 00d4 1C000000 		.4byte	.LEFDE14-.LASFDE14
 2008              	.LASFDE14:
 2009 00d8 00000000 		.4byte	.Lframe0
 2010 00dc F8060000 		.4byte	.LFB19
 2011 00e0 F4010000 		.4byte	.LFE19-.LFB19
 2012 00e4 44       		.byte	0x4
 2013              		.4byte	.LCFI7-.LFB19
 2014 00e5 0E       		.byte	0xe
 2015 00e6 10       		.uleb128 0x10
 2016 00e7 50       		.byte	0x4
 2017              		.4byte	.LCFI8-.LCFI7
 2018 00e8 0E       		.byte	0xe
 2019 00e9 3C       		.uleb128 0x3c
 2020 00ea 8E       		.byte	0x8e
 2021 00eb 01       		.uleb128 0x1
 2022 00ec 86       		.byte	0x86
 2023 00ed 02       		.uleb128 0x2
 2024 00ee 85       		.byte	0x85
 2025 00ef 03       		.uleb128 0x3
 2026 00f0 84       		.byte	0x84
 2027 00f1 04       		.uleb128 0x4
 2028 00f2 0000     		.align	2
 2029              	.LEFDE14:
 2030              	.LSFDE16:
 2031 00f4 1C000000 		.4byte	.LEFDE16-.LASFDE16
 2032              	.LASFDE16:
 2033 00f8 00000000 		.4byte	.Lframe0
 2034 00fc EC080000 		.4byte	.LFB12
 2035 0100 08020000 		.4byte	.LFE12-.LFB12
 2036 0104 44       		.byte	0x4
ARM GAS  /cygdrive/c/DOCUME~1/mkwapisz/LOCALS~1/Temp/ccd1rULD.s 			page 52


 2037              		.4byte	.LCFI9-.LFB12
 2038 0105 0E       		.byte	0xe
 2039 0106 14       		.uleb128 0x14
 2040 0107 8E       		.byte	0x8e
 2041 0108 01       		.uleb128 0x1
 2042 0109 87       		.byte	0x87
 2043 010a 02       		.uleb128 0x2
 2044 010b 86       		.byte	0x86
 2045 010c 03       		.uleb128 0x3
 2046 010d 85       		.byte	0x85
 2047 010e 04       		.uleb128 0x4
 2048 010f 84       		.byte	0x84
 2049 0110 05       		.uleb128 0x5
 2050 0111 000000   		.align	2
 2051              	.LEFDE16:
 2052              	.LSFDE18:
 2053 0114 18000000 		.4byte	.LEFDE18-.LASFDE18
 2054              	.LASFDE18:
 2055 0118 00000000 		.4byte	.Lframe0
 2056 011c F40A0000 		.4byte	.LFB18
 2057 0120 9C000000 		.4byte	.LFE18-.LFB18
 2058 0124 44       		.byte	0x4
 2059              		.4byte	.LCFI10-.LFB18
 2060 0125 0E       		.byte	0xe
 2061 0126 08       		.uleb128 0x8
 2062 0127 50       		.byte	0x4
 2063              		.4byte	.LCFI11-.LCFI10
 2064 0128 0E       		.byte	0xe
 2065 0129 34       		.uleb128 0x34
 2066 012a 8E       		.byte	0x8e
 2067 012b 01       		.uleb128 0x1
 2068 012c 84       		.byte	0x84
 2069 012d 02       		.uleb128 0x2
 2070 012e 0000     		.align	2
 2071              	.LEFDE18:
 2072              	.LSFDE20:
 2073 0130 18000000 		.4byte	.LEFDE20-.LASFDE20
 2074              	.LASFDE20:
 2075 0134 00000000 		.4byte	.Lframe0
 2076 0138 900B0000 		.4byte	.LFB15
 2077 013c C8000000 		.4byte	.LFE15-.LFB15
 2078 0140 44       		.byte	0x4
 2079              		.4byte	.LCFI12-.LFB15
 2080 0141 0E       		.byte	0xe
 2081 0142 08       		.uleb128 0x8
 2082 0143 8E       		.byte	0x8e
 2083 0144 01       		.uleb128 0x1
 2084 0145 84       		.byte	0x84
 2085 0146 02       		.uleb128 0x2
 2086 0147 4C       		.byte	0x4
 2087              		.4byte	.LCFI13-.LCFI12
 2088 0148 0E       		.byte	0xe
 2089 0149 48       		.uleb128 0x48
 2090 014a 0000     		.align	2
 2091              	.LEFDE20:
 2092              	.LSFDE22:
 2093 014c 1C000000 		.4byte	.LEFDE22-.LASFDE22
ARM GAS  /cygdrive/c/DOCUME~1/mkwapisz/LOCALS~1/Temp/ccd1rULD.s 			page 53


 2094              	.LASFDE22:
 2095 0150 00000000 		.4byte	.Lframe0
 2096 0154 580C0000 		.4byte	.LFB14
 2097 0158 38020000 		.4byte	.LFE14-.LFB14
 2098 015c 44       		.byte	0x4
 2099              		.4byte	.LCFI14-.LFB14
 2100 015d 0E       		.byte	0xe
 2101 015e 10       		.uleb128 0x10
 2102 015f 8E       		.byte	0x8e
 2103 0160 01       		.uleb128 0x1
 2104 0161 86       		.byte	0x86
 2105 0162 02       		.uleb128 0x2
 2106 0163 85       		.byte	0x85
 2107 0164 03       		.uleb128 0x3
 2108 0165 84       		.byte	0x84
 2109 0166 04       		.uleb128 0x4
 2110 0167 50       		.byte	0x4
 2111              		.4byte	.LCFI15-.LCFI14
 2112 0168 0E       		.byte	0xe
 2113 0169 34       		.uleb128 0x34
 2114 016a 0000     		.align	2
 2115              	.LEFDE22:
 2116              		.file 2 "src/integer.h"
 2117              		.file 3 "src/pff.h"
 2118              		.file 4 "src/diskio.h"
 2119              		.text
 2120              	.Letext0: