ARM GAS  /cygdrive/c/DOCUME~1/mkwapisz/LOCALS~1/Temp/cc0xtwrH.s 			page 1


   1              		.file	"sd.c"
   8 0000 9E000000 		.text
   8      02002C00 
   8      00000201 
   8      FB0E0D00 
   8      01010101 
   9              	.Ltext0:
  10              		.align	2
  11              		.global	sdResp8bError
  12              		.type	sdResp8bError, %function
  13              	sdResp8bError:
  14              	.LFB6:
  15              		.file 1 "src/sd.c"
   1:src/sd.c      **** #include "sd.h"
   2:src/sd.c      **** #include "spi.h"
   3:src/sd.c      **** 
   4:src/sd.c      **** /*
   5:src/sd.c      ****  * Inicjalizacja portu SPI do odczytu karty SD.
   6:src/sd.c      ****  */
   7:src/sd.c      **** CHAR sdInit (void)
   8:src/sd.c      **** {
   9:src/sd.c      **** 	SHORT i = 100;
  10:src/sd.c      **** 	BYTE resp;
  11:src/sd.c      **** 
  12:src/sd.c      **** 	// Wys³anie 'i' razy rozkazu na port SPI inicjuj¹cego.
  13:src/sd.c      **** 	do
  14:src/sd.c      **** 	{
  15:src/sd.c      **** 		sdCommand (0, 0, 0);
  16:src/sd.c      **** 		resp = sdResp8b ();
  17:src/sd.c      **** 
  18:src/sd.c      **** 	} while (resp != 1 && i--);
  19:src/sd.c      **** 
  20:src/sd.c      **** 
  21:src/sd.c      **** 	// Jeœli pêtla wysz³a z powodu wys³ania 'i' rozkazów, a nie
  22:src/sd.c      **** 	// dlatego, ¿e otrzymano odpowiedŸ.
  23:src/sd.c      **** 	if (resp != 1)
  24:src/sd.c      **** 	{
  25:src/sd.c      **** 		if (resp == 0xff)
  26:src/sd.c      **** 		{
  27:src/sd.c      **** 			return (-1);
  28:src/sd.c      **** 		} else
  29:src/sd.c      **** 		{
  30:src/sd.c      **** 			sdResp8bError (resp);
  31:src/sd.c      **** 			return (-2);
  32:src/sd.c      **** 		}
  33:src/sd.c      **** 	}
  34:src/sd.c      **** 
  35:src/sd.c      **** 	// Oczekiwanie na odpowiedŸ (returns 0 on CMD1), ¿e urz¹dzenie
  36:src/sd.c      **** 	// zosta³o poprawnie zainicjalizowane.
  37:src/sd.c      **** 	i = 32000;
  38:src/sd.c      **** 	do
ARM GAS  /cygdrive/c/DOCUME~1/mkwapisz/LOCALS~1/Temp/cc0xtwrH.s 			page 2


  39:src/sd.c      **** 	{
  40:src/sd.c      **** 		sdCommand (1, 0, 0);
  41:src/sd.c      **** 
  42:src/sd.c      **** 		resp = sdResp8b ();
  43:src/sd.c      **** 		if (resp != 0)
  44:src/sd.c      **** 		{
  45:src/sd.c      **** 			sdResp8bError (resp);
  46:src/sd.c      **** 		}
  47:src/sd.c      **** 	} while (resp == 1 && i--);
  48:src/sd.c      **** 
  49:src/sd.c      **** 	if (resp != 0)
  50:src/sd.c      **** 	{
  51:src/sd.c      **** 		sdResp8bError (resp);
  52:src/sd.c      **** 		return (-3);
  53:src/sd.c      **** 	}
  54:src/sd.c      **** 
  55:src/sd.c      **** 	return (0);
  56:src/sd.c      **** }
  57:src/sd.c      **** 
  58:src/sd.c      **** void sdCommand (BYTE cmd, WORD paramx, WORD paramy)
  59:src/sd.c      **** {
  60:src/sd.c      **** 	SELECT_CARD();
  61:src/sd.c      **** 
  62:src/sd.c      **** 	spiSend (0xff);
  63:src/sd.c      **** 
  64:src/sd.c      **** 	spiSend (0x40 | cmd);
  65:src/sd.c      **** 	spiSend ((BYTE) (paramx >> 8)); /* MSB of parameter x */
  66:src/sd.c      **** 	spiSend ((BYTE) (paramx)); /* LSB of parameter x */
  67:src/sd.c      **** 	spiSend ((BYTE) (paramy >> 8)); /* MSB of parameter y */
  68:src/sd.c      **** 	spiSend ((BYTE) (paramy)); /* LSB of parameter y */
  69:src/sd.c      **** 
  70:src/sd.c      **** 	spiSend (0x95); /* Checksum (should be only valid for first command (0) */
  71:src/sd.c      **** 
  72:src/sd.c      **** 	spiSend (0xff); /* eat empty command - response */
  73:src/sd.c      **** 
  74:src/sd.c      **** 	UNSELECT_CARD();
  75:src/sd.c      **** }
  76:src/sd.c      **** 
  77:src/sd.c      **** BYTE i;
  78:src/sd.c      **** BYTE resp8b;
  79:src/sd.c      **** 
  80:src/sd.c      **** BYTE sdResp8b (void)
  81:src/sd.c      **** {
  82:src/sd.c      **** 	SELECT_CARD();
  83:src/sd.c      **** 	/* Respone will come after 1 - 8 pings */
  84:src/sd.c      **** 	for (i = 0; i < 8; i++)
  85:src/sd.c      **** 	{
  86:src/sd.c      **** 		resp8b = spiSend (0xff);
  87:src/sd.c      **** 		if (resp8b != 0xff)
  88:src/sd.c      **** 		{
  89:src/sd.c      **** 			return (resp8b);
  90:src/sd.c      **** 		}
  91:src/sd.c      **** 	}
  92:src/sd.c      **** 	UNSELECT_CARD();
  93:src/sd.c      **** 	return (resp8b);
  94:src/sd.c      **** }
  95:src/sd.c      **** 
ARM GAS  /cygdrive/c/DOCUME~1/mkwapisz/LOCALS~1/Temp/cc0xtwrH.s 			page 3


  96:src/sd.c      **** WORD resp16;
  97:src/sd.c      **** WORD sdResp16b (void)
  98:src/sd.c      **** {
  99:src/sd.c      **** 
 100:src/sd.c      **** 	SELECT_CARD();
 101:src/sd.c      **** 	resp16 = (sdResp8b () << 8) & 0xff00;
 102:src/sd.c      **** 	SELECT_CARD();
 103:src/sd.c      **** 	resp16 |= spiSend (0xff);
 104:src/sd.c      **** 	UNSELECT_CARD();
 105:src/sd.c      **** 	return (resp16);
 106:src/sd.c      **** }
 107:src/sd.c      **** 
 108:src/sd.c      **** void sdResp8bError (BYTE value)
 109:src/sd.c      **** {
  16              		.loc 1 109 0
  17              		@ Function supports interworking.
  18              		@ args = 0, pretend = 0, frame = 0
  19              		@ frame_needed = 0, uses_anonymous_args = 0
  20              		@ link register save eliminated.
  21              	.LVL0:
  22              		@ lr needed for prologue
 110:src/sd.c      **** #ifdef DEBUG
 111:src/sd.c      **** 	switch(value)
 112:src/sd.c      **** 	{
 113:src/sd.c      **** 		case 0x40:
 114:src/sd.c      **** 		printf("Argument out of bounds.\n");
 115:src/sd.c      **** 		break;
 116:src/sd.c      **** 		case 0x20:
 117:src/sd.c      **** 		printf("Address out of bounds.\n");
 118:src/sd.c      **** 		break;
 119:src/sd.c      **** 		case 0x10:
 120:src/sd.c      **** 		printf("Error during erase sequence.\n");
 121:src/sd.c      **** 		break;
 122:src/sd.c      **** 		case 0x08:
 123:src/sd.c      **** 		printf("CRC failed.\n");
 124:src/sd.c      **** 		break;
 125:src/sd.c      **** 		case 0x04:
 126:src/sd.c      **** 		printf("Illegal command.\n");
 127:src/sd.c      **** 		break;
 128:src/sd.c      **** 		case 0x02:
 129:src/sd.c      **** 		printf("Erase reset (see SanDisk docs p5-13).\n");
 130:src/sd.c      **** 		break;
 131:src/sd.c      **** 		case 0x01:
 132:src/sd.c      **** 		printf("Card is initialising.\n");
 133:src/sd.c      **** 		break;
 134:src/sd.c      **** 		default:
 135:src/sd.c      **** 		printf("Unknown error 0x%x (see SanDisk docs p5-13).\n",value);
 136:src/sd.c      **** 		break;
 137:src/sd.c      **** 	}
 138:src/sd.c      **** #endif
 139:src/sd.c      **** }
  23              		.loc 1 139 0
  24 0000 1EFF2FE1 		bx	lr
  25              	.LFE6:
  26              		.size	sdResp8bError, .-sdResp8bError
  27              		.align	2
  28              		.global	sdResp8b
ARM GAS  /cygdrive/c/DOCUME~1/mkwapisz/LOCALS~1/Temp/cc0xtwrH.s 			page 4


  29              		.type	sdResp8b, %function
  30              	sdResp8b:
  31              	.LFB4:
  32              		.loc 1 81 0
  33              		@ Function supports interworking.
  34              		@ args = 0, pretend = 0, frame = 0
  35              		@ frame_needed = 0, uses_anonymous_args = 0
  36              		.loc 1 82 0
  37 0004 50309FE5 		ldr	r3, .L12
  38 0008 022BA0E3 		mov	r2, #2048
  39 000c 0C2083E5 		str	r2, [r3, #12]
  40              		.loc 1 84 0
  41 0010 48309FE5 		ldr	r3, .L12+4
  42 0014 022B42E2 		sub	r2, r2, #2048
  43              		.loc 1 81 0
  44 0018 04E02DE5 		str	lr, [sp, #-4]!
  45              	.LCFI0:
  46              		.loc 1 84 0
  47 001c 0020C3E5 		strb	r2, [r3, #0]
  48              	.L4:
  49              		.loc 1 86 0
  50 0020 FF00A0E3 		mov	r0, #255
  51 0024 FEFFFFEB 		bl	spiSend
  52 0028 34309FE5 		ldr	r3, .L12+8
  53              		.loc 1 87 0
  54 002c FF0050E3 		cmp	r0, #255
  55              		.loc 1 84 0
  56 0030 28209FE5 		ldr	r2, .L12+4
  57              		.loc 1 86 0
  58 0034 0000C3E5 		strb	r0, [r3, #0]
  59              		.loc 1 87 0
  60 0038 0500001A 		bne	.L7
  61              		.loc 1 84 0
  62 003c 0030D2E5 		ldrb	r3, [r2, #0]	@ zero_extendqisi2
  63 0040 013083E2 		add	r3, r3, #1
  64 0044 FF3003E2 		and	r3, r3, #255
  65 0048 070053E3 		cmp	r3, #7
  66 004c 0030C2E5 		strb	r3, [r2, #0]
  67 0050 F2FFFF9A 		bls	.L4
  68              	.L7:
  69              		.loc 1 94 0
  70 0054 04E09DE4 		ldr	lr, [sp], #4
  71 0058 1EFF2FE1 		bx	lr
  72              	.L13:
  73              		.align	2
  74              	.L12:
  75 005c 008002E0 		.word	-536707072
  76 0060 00000000 		.word	i
  77 0064 00000000 		.word	resp8b
  78              	.LFE4:
  79              		.size	sdResp8b, .-sdResp8b
  80              		.align	2
  81              		.global	sdResp16b
  82              		.type	sdResp16b, %function
  83              	sdResp16b:
  84              	.LFB5:
  85              		.loc 1 98 0
ARM GAS  /cygdrive/c/DOCUME~1/mkwapisz/LOCALS~1/Temp/cc0xtwrH.s 			page 5


  86              		@ Function supports interworking.
  87              		@ args = 0, pretend = 0, frame = 0
  88              		@ frame_needed = 0, uses_anonymous_args = 0
  89 0068 F0402DE9 		stmfd	sp!, {r4, r5, r6, r7, lr}
  90              	.LCFI1:
  91              		.loc 1 100 0
  92 006c 40609FE5 		ldr	r6, .L16
  93 0070 025BA0E3 		mov	r5, #2048
  94 0074 0C5086E5 		str	r5, [r6, #12]
  95              		.loc 1 101 0
  96 0078 FEFFFFEB 		bl	sdResp8b
  97 007c 34709FE5 		ldr	r7, .L16+4
  98 0080 004CA0E1 		mov	r4, r0, asl #24
  99 0084 2448A0E1 		mov	r4, r4, lsr #16
 100              		.loc 1 102 0
 101 0088 0C5086E5 		str	r5, [r6, #12]
 102              		.loc 1 103 0
 103 008c FF00A0E3 		mov	r0, #255
 104              		.loc 1 101 0
 105 0090 B040C7E1 		strh	r4, [r7, #0]	@ movhi
 106              		.loc 1 103 0
 107 0094 FEFFFFEB 		bl	spiSend
 108 0098 004084E1 		orr	r4, r4, r0
 109 009c 0448A0E1 		mov	r4, r4, asl #16
 110 00a0 2448A0E1 		mov	r4, r4, lsr #16
 111              		.loc 1 106 0
 112 00a4 0400A0E1 		mov	r0, r4
 113              		.loc 1 103 0
 114 00a8 B040C7E1 		strh	r4, [r7, #0]	@ movhi
 115              		.loc 1 106 0
 116 00ac F040BDE8 		ldmfd	sp!, {r4, r5, r6, r7, lr}
 117 00b0 1EFF2FE1 		bx	lr
 118              	.L17:
 119              		.align	2
 120              	.L16:
 121 00b4 008002E0 		.word	-536707072
 122 00b8 00000000 		.word	resp16
 123              	.LFE5:
 124              		.size	sdResp16b, .-sdResp16b
 125              		.align	2
 126              		.global	sdCommand
 127              		.type	sdCommand, %function
 128              	sdCommand:
 129              	.LFB3:
 130              		.loc 1 59 0
 131              		@ Function supports interworking.
 132              		@ args = 0, pretend = 0, frame = 0
 133              		@ frame_needed = 0, uses_anonymous_args = 0
 134              	.LVL1:
 135              		.loc 1 60 0
 136 00bc 6C309FE5 		ldr	r3, .L20
 137 00c0 02CBA0E3 		mov	ip, #2048
 138              		.loc 1 59 0
 139 00c4 70402DE9 		stmfd	sp!, {r4, r5, r6, lr}
 140              	.LCFI2:
 141              		.loc 1 60 0
 142 00c8 0CC083E5 		str	ip, [r3, #12]
ARM GAS  /cygdrive/c/DOCUME~1/mkwapisz/LOCALS~1/Temp/cc0xtwrH.s 			page 6


 143              		.loc 1 59 0
 144 00cc FF6000E2 		and	r6, r0, #255
 145              		.loc 1 62 0
 146 00d0 FF00A0E3 		mov	r0, #255
 147              	.LVL2:
 148              		.loc 1 59 0
 149 00d4 0148A0E1 		mov	r4, r1, asl #16
 150 00d8 0258A0E1 		mov	r5, r2, asl #16
 151              		.loc 1 62 0
 152 00dc FEFFFFEB 		bl	spiSend
 153              	.LVL3:
 154              		.loc 1 64 0
 155 00e0 400086E3 		orr	r0, r6, #64
 156 00e4 FEFFFFEB 		bl	spiSend
 157              		.loc 1 65 0
 158 00e8 240CA0E1 		mov	r0, r4, lsr #24
 159              		.loc 1 59 0
 160 00ec 2448A0E1 		mov	r4, r4, lsr #16
 161              	.LVL4:
 162              		.loc 1 66 0
 163 00f0 FF4004E2 		and	r4, r4, #255
 164              	.LVL5:
 165              		.loc 1 65 0
 166 00f4 FEFFFFEB 		bl	spiSend
 167              		.loc 1 66 0
 168 00f8 0400A0E1 		mov	r0, r4
 169 00fc FEFFFFEB 		bl	spiSend
 170              		.loc 1 67 0
 171 0100 250CA0E1 		mov	r0, r5, lsr #24
 172              		.loc 1 59 0
 173 0104 2558A0E1 		mov	r5, r5, lsr #16
 174              	.LVL6:
 175              		.loc 1 68 0
 176 0108 FF5005E2 		and	r5, r5, #255
 177              	.LVL7:
 178              		.loc 1 67 0
 179 010c FEFFFFEB 		bl	spiSend
 180              		.loc 1 68 0
 181 0110 0500A0E1 		mov	r0, r5
 182 0114 FEFFFFEB 		bl	spiSend
 183              		.loc 1 70 0
 184 0118 9500A0E3 		mov	r0, #149
 185 011c FEFFFFEB 		bl	spiSend
 186              		.loc 1 72 0
 187 0120 FF00A0E3 		mov	r0, #255
 188 0124 FEFFFFEB 		bl	spiSend
 189              		.loc 1 75 0
 190 0128 7040BDE8 		ldmfd	sp!, {r4, r5, r6, lr}
 191 012c 1EFF2FE1 		bx	lr
 192              	.L21:
 193              		.align	2
 194              	.L20:
 195 0130 008002E0 		.word	-536707072
 196              	.LFE3:
 197              		.size	sdCommand, .-sdCommand
 198              		.section	.rodata.str1.4,"aMS",%progbits,1
 199              		.align	2
ARM GAS  /cygdrive/c/DOCUME~1/mkwapisz/LOCALS~1/Temp/cc0xtwrH.s 			page 7


 200              	.LC0:
 201 0000 43617264 		.ascii	"Card is Locked.\000"
 201      20697320 
 201      4C6F636B 
 201      65642E00 
 202              		.align	2
 203              	.LC1:
 204 0010 57502045 		.ascii	"WP Erase Skip, Lock/Unlock Cmd Failed.\000"
 204      72617365 
 204      20536B69 
 204      702C204C 
 204      6F636B2F 
 205 0037 00       		.align	2
 206              	.LC2:
 207 0038 47656E65 		.ascii	"General / Unknown error -- card broken?.\000"
 207      72616C20 
 207      2F20556E 
 207      6B6E6F77 
 207      6E206572 
 208 0061 000000   		.align	2
 209              	.LC3:
 210 0064 496E7465 		.ascii	"Internal card controller error.\000"
 210      726E616C 
 210      20636172 
 210      6420636F 
 210      6E74726F 
 211              		.align	2
 212              	.LC4:
 213 0084 43617264 		.ascii	"Card internal ECC was applied, but failed to correc"
 213      20696E74 
 213      65726E61 
 213      6C204543 
 213      43207761 
 214 00b7 74207468 		.ascii	"t the data.\000"
 214      65206461 
 214      74612E00 
 215 00c3 00       		.align	2
 216              	.LC5:
 217 00c4 57726974 		.ascii	"Write protect violation.\000"
 217      65207072 
 217      6F746563 
 217      74207669 
 217      6F6C6174 
 218 00dd 000000   		.align	2
 219              	.LC6:
 220 00e0 416E2069 		.ascii	"An invalid selection, sectors for erase.\000"
 220      6E76616C 
 220      69642073 
 220      656C6563 
 220      74696F6E 
 221 0109 000000   		.align	2
 222              	.LC7:
 223 010c 4F757420 		.ascii	"Out of Range, CSD_Overwrite.\000"
 223      6F662052 
 223      616E6765 
 223      2C204353 
 223      445F4F76 
ARM GAS  /cygdrive/c/DOCUME~1/mkwapisz/LOCALS~1/Temp/cc0xtwrH.s 			page 8


 224 0129 000000   		.align	2
 225              	.LC8:
 226 012c 556E6B6E 		.ascii	"Unknown error: 0x%x (see SanDisk docs).\012\000"
 226      6F776E20 
 226      6572726F 
 226      723A2030 
 226      78257820 
 227 0155 000000   		.text
 228              		.align	2
 229              		.global	sdState
 230              		.type	sdState, %function
 231              	sdState:
 232              	.LFB7:
 140:src/sd.c      **** 
 141:src/sd.c      **** CHAR sdState (void)
 142:src/sd.c      **** {
 233              		.loc 1 142 0
 234              		@ Function supports interworking.
 235              		@ args = 0, pretend = 0, frame = 0
 236              		@ frame_needed = 0, uses_anonymous_args = 0
 143:src/sd.c      **** 	WORD value;
 144:src/sd.c      **** 
 145:src/sd.c      **** 	sdCommand (13, 0, 0);
 237              		.loc 1 145 0
 238 0134 0010A0E3 		mov	r1, #0
 239              		.loc 1 142 0
 240 0138 04E02DE5 		str	lr, [sp, #-4]!
 241              	.LCFI3:
 242              		.loc 1 145 0
 243 013c 0D00A0E3 		mov	r0, #13
 244 0140 0120A0E1 		mov	r2, r1
 245 0144 FEFFFFEB 		bl	sdCommand
 146:src/sd.c      **** 	value = sdResp16b ();
 246              		.loc 1 146 0
 247 0148 FEFFFFEB 		bl	sdResp16b
 248              	.LVL8:
 147:src/sd.c      **** 
 148:src/sd.c      **** 	switch (value)
 249              		.loc 1 148 0
 250 014c 080050E3 		cmp	r0, #8
 251 0150 1A00000A 		beq	.L28
 252 0154 0800008A 		bhi	.L33
 253 0158 010050E3 		cmp	r0, #1
 254 015c 1100000A 		beq	.L25
 255 0160 0100A033 		movcc	r0, #1
 256              	.LVL9:
 257 0164 2500003A 		bcc	.L35
 258              	.LVL10:
 259 0168 020050E3 		cmp	r0, #2
 260 016c 0F00000A 		beq	.L26
 261 0170 040050E3 		cmp	r0, #4
 262 0174 1C00001A 		bne	.L23
 263 0178 0E0000EA 		b	.L27
 264              	.L33:
 265 017c 200050E3 		cmp	r0, #32
 266 0180 1200000A 		beq	.L30
 267 0184 0200008A 		bhi	.L34
ARM GAS  /cygdrive/c/DOCUME~1/mkwapisz/LOCALS~1/Temp/cc0xtwrH.s 			page 9


 268 0188 100050E3 		cmp	r0, #16
 269 018c 1600001A 		bne	.L23
 270 0190 0C0000EA 		b	.L29
 271              	.L34:
 272 0194 400050E3 		cmp	r0, #64
 273 0198 0E00000A 		beq	.L31
 274 019c 800050E3 		cmp	r0, #128
 275 01a0 1100001A 		bne	.L23
 276 01a4 0D0000EA 		b	.L32
 277              	.L25:
 149:src/sd.c      **** 	{
 150:src/sd.c      **** 	case 0x000:
 151:src/sd.c      **** 		return (1);
 152:src/sd.c      **** 		break;
 153:src/sd.c      **** 	case 0x0001:
 154:src/sd.c      **** 		printf ("Card is Locked.\n");
 278              		.loc 1 154 0
 279 01a8 58009FE5 		ldr	r0, .L41
 280              	.LVL11:
 281 01ac 0C0000EA 		b	.L40
 282              	.LVL12:
 283              	.L26:
 155:src/sd.c      **** 		break;
 156:src/sd.c      **** 	case 0x0002:
 157:src/sd.c      **** 		printf ("WP Erase Skip, Lock/Unlock Cmd Failed.\n");
 284              		.loc 1 157 0
 285 01b0 54009FE5 		ldr	r0, .L41+4
 286              	.LVL13:
 287 01b4 0A0000EA 		b	.L40
 288              	.LVL14:
 289              	.L27:
 158:src/sd.c      **** 		break;
 159:src/sd.c      **** 	case 0x0004:
 160:src/sd.c      **** 		printf ("General / Unknown error -- card broken?.\n");
 290              		.loc 1 160 0
 291 01b8 50009FE5 		ldr	r0, .L41+8
 292              	.LVL15:
 293 01bc 080000EA 		b	.L40
 294              	.LVL16:
 295              	.L28:
 161:src/sd.c      **** 		break;
 162:src/sd.c      **** 	case 0x0008:
 163:src/sd.c      **** 		printf ("Internal card controller error.\n");
 296              		.loc 1 163 0
 297 01c0 4C009FE5 		ldr	r0, .L41+12
 298              	.LVL17:
 299 01c4 060000EA 		b	.L40
 300              	.LVL18:
 301              	.L29:
 164:src/sd.c      **** 		break;
 165:src/sd.c      **** 	case 0x0010:
 166:src/sd.c      **** 		printf ("Card internal ECC was applied, but failed to correct the data.\n");
 302              		.loc 1 166 0
 303 01c8 48009FE5 		ldr	r0, .L41+16
 304              	.LVL19:
 305 01cc 040000EA 		b	.L40
 306              	.LVL20:
ARM GAS  /cygdrive/c/DOCUME~1/mkwapisz/LOCALS~1/Temp/cc0xtwrH.s 			page 10


 307              	.L30:
 167:src/sd.c      **** 		break;
 168:src/sd.c      **** 	case 0x0020:
 169:src/sd.c      **** 		printf ("Write protect violation.\n");
 308              		.loc 1 169 0
 309 01d0 44009FE5 		ldr	r0, .L41+20
 310              	.LVL21:
 311 01d4 020000EA 		b	.L40
 312              	.LVL22:
 313              	.L31:
 170:src/sd.c      **** 		break;
 171:src/sd.c      **** 	case 0x0040:
 172:src/sd.c      **** 		printf ("An invalid selection, sectors for erase.\n");
 314              		.loc 1 172 0
 315 01d8 40009FE5 		ldr	r0, .L41+24
 316              	.LVL23:
 317 01dc 000000EA 		b	.L40
 318              	.LVL24:
 319              	.L32:
 173:src/sd.c      **** 		break;
 174:src/sd.c      **** 	case 0x0080:
 175:src/sd.c      **** 		printf ("Out of Range, CSD_Overwrite.\n");
 320              		.loc 1 175 0
 321 01e0 3C009FE5 		ldr	r0, .L41+28
 322              	.LVL25:
 323              	.L40:
 324 01e4 FEFFFFEB 		bl	puts
 325 01e8 030000EA 		b	.L39
 326              	.LVL26:
 327              	.L23:
 176:src/sd.c      **** 		break;
 177:src/sd.c      **** 	default:
 178:src/sd.c      **** 		if (value > 0x00FF)
 328              		.loc 1 178 0
 329 01ec FF0050E3 		cmp	r0, #255
 179:src/sd.c      **** 			sdResp8bError ((BYTE) (value >> 8));
 180:src/sd.c      **** 		else
 181:src/sd.c      **** 			printf ("Unknown error: 0x%x (see SanDisk docs).\n", value);
 330              		.loc 1 181 0
 331 01f0 0010A091 		movls	r1, r0
 332 01f4 2C009F95 		ldrls	r0, .L41+32
 333              	.LVL27:
 334 01f8 FEFFFF9B 		blls	printf
 335              	.LVL28:
 336              	.L39:
 337 01fc 0000E0E3 		mvn	r0, #0
 338              	.LVL29:
 339              	.L35:
 182:src/sd.c      **** 		break;
 183:src/sd.c      **** 	}
 184:src/sd.c      **** 	return (-1);
 185:src/sd.c      **** }
 340              		.loc 1 185 0
 341 0200 04E09DE4 		ldr	lr, [sp], #4
 342 0204 1EFF2FE1 		bx	lr
 343              	.L42:
 344              		.align	2
ARM GAS  /cygdrive/c/DOCUME~1/mkwapisz/LOCALS~1/Temp/cc0xtwrH.s 			page 11


 345              	.L41:
 346 0208 00000000 		.word	.LC0
 347 020c 10000000 		.word	.LC1
 348 0210 38000000 		.word	.LC2
 349 0214 64000000 		.word	.LC3
 350 0218 84000000 		.word	.LC4
 351 021c C4000000 		.word	.LC5
 352 0220 E0000000 		.word	.LC6
 353 0224 0C010000 		.word	.LC7
 354 0228 2C010000 		.word	.LC8
 355              	.LFE7:
 356              		.size	sdState, .-sdState
 357              		.align	2
 358              		.global	sdInit
 359              		.type	sdInit, %function
 360              	sdInit:
 361              	.LFB2:
 362              		.loc 1 8 0
 363              		@ Function supports interworking.
 364              		@ args = 0, pretend = 0, frame = 0
 365              		@ frame_needed = 0, uses_anonymous_args = 0
 366 022c 10402DE9 		stmfd	sp!, {r4, lr}
 367              	.LCFI4:
 368              		.loc 1 8 0
 369 0230 6440A0E3 		mov	r4, #100
 370              	.LVL30:
 371              	.L44:
 372              		.loc 1 15 0
 373 0234 0000A0E3 		mov	r0, #0
 374 0238 0010A0E1 		mov	r1, r0
 375 023c 0020A0E1 		mov	r2, r0
 376 0240 FEFFFFEB 		bl	sdCommand
 377              		.loc 1 16 0
 378 0244 FEFFFFEB 		bl	sdResp8b
 379              		.loc 1 18 0
 380 0248 013044E2 		sub	r3, r4, #1
 381 024c 0338A0E1 		mov	r3, r3, asl #16
 382 0250 010050E3 		cmp	r0, #1
 383 0254 2348A0E1 		mov	r4, r3, lsr #16
 384 0258 0500000A 		beq	.L45
 385 025c 010873E3 		cmn	r3, #65536
 386 0260 F3FFFF1A 		bne	.L44
 387              		.loc 1 25 0
 388 0264 FF0050E3 		cmp	r0, #255
 389 0268 0100E013 		mvnne	r0, #1
 390 026c 0000E003 		mvneq	r0, #0
 391 0270 100000EA 		b	.L50
 392              	.L45:
 393 0274 7D4CA0E3 		mov	r4, #32000
 394              	.LVL31:
 395              	.LVL32:
 396              	.L51:
 397              		.loc 1 40 0
 398 0278 0010A0E3 		mov	r1, #0
 399 027c 0120A0E1 		mov	r2, r1
 400 0280 0100A0E3 		mov	r0, #1
 401              	.LVL33:
ARM GAS  /cygdrive/c/DOCUME~1/mkwapisz/LOCALS~1/Temp/cc0xtwrH.s 			page 12


 402 0284 FEFFFFEB 		bl	sdCommand
 403              		.loc 1 42 0
 404 0288 FEFFFFEB 		bl	sdResp8b
 405              		.loc 1 47 0
 406 028c 013044E2 		sub	r3, r4, #1
 407              	.LVL34:
 408 0290 010050E3 		cmp	r0, #1
 409 0294 0338A0E1 		mov	r3, r3, asl #16
 410 0298 0300001A 		bne	.L52
 411 029c 010873E3 		cmn	r3, #65536
 412 02a0 2348A0E1 		mov	r4, r3, lsr #16
 413 02a4 0200000A 		beq	.L54
 414 02a8 F2FFFFEA 		b	.L51
 415              	.L52:
 416              		.loc 1 49 0
 417 02ac 000050E3 		cmp	r0, #0
 418 02b0 0000000A 		beq	.L50
 419              	.L54:
 420 02b4 0200E0E3 		mvn	r0, #2
 421              	.LVL35:
 422              	.L50:
 423              	.LVL36:
 424              		.loc 1 56 0
 425 02b8 1040BDE8 		ldmfd	sp!, {r4, lr}
 426 02bc 1EFF2FE1 		bx	lr
 427              	.LFE2:
 428              		.size	sdInit, .-sdInit
 429              		.comm	i,1,1
 430              		.comm	resp8b,1,1
 431              		.comm	resp16,2,2
 432              		.section	.debug_frame,"",%progbits
 433              	.Lframe0:
 434 0000 0C000000 		.4byte	.LECIE0-.LSCIE0
 435              	.LSCIE0:
 436 0004 FFFFFFFF 		.4byte	0xffffffff
 437 0008 01       		.byte	0x1
 438 0009 00       		.ascii	"\000"
 439 000a 01       		.uleb128 0x1
 440 000b 7C       		.sleb128 -4
 441 000c 0E       		.byte	0xe
 442 000d 0C       		.byte	0xc
 443 000e 0D       		.uleb128 0xd
 444 000f 00       		.uleb128 0x0
 445              		.align	2
 446              	.LECIE0:
 447              	.LSFDE0:
 448 0010 0C000000 		.4byte	.LEFDE0-.LASFDE0
 449              	.LASFDE0:
 450 0014 00000000 		.4byte	.Lframe0
 451 0018 00000000 		.4byte	.LFB6
 452 001c 04000000 		.4byte	.LFE6-.LFB6
 453              		.align	2
 454              	.LEFDE0:
 455              	.LSFDE2:
 456 0020 14000000 		.4byte	.LEFDE2-.LASFDE2
 457              	.LASFDE2:
 458 0024 00000000 		.4byte	.Lframe0
ARM GAS  /cygdrive/c/DOCUME~1/mkwapisz/LOCALS~1/Temp/cc0xtwrH.s 			page 13


 459 0028 04000000 		.4byte	.LFB4
 460 002c 64000000 		.4byte	.LFE4-.LFB4
 461 0030 58       		.byte	0x4
 462              		.4byte	.LCFI0-.LFB4
 463 0031 0E       		.byte	0xe
 464 0032 04       		.uleb128 0x4
 465 0033 8E       		.byte	0x8e
 466 0034 01       		.uleb128 0x1
 467 0035 000000   		.align	2
 468              	.LEFDE2:
 469              	.LSFDE4:
 470 0038 1C000000 		.4byte	.LEFDE4-.LASFDE4
 471              	.LASFDE4:
 472 003c 00000000 		.4byte	.Lframe0
 473 0040 68000000 		.4byte	.LFB5
 474 0044 54000000 		.4byte	.LFE5-.LFB5
 475 0048 44       		.byte	0x4
 476              		.4byte	.LCFI1-.LFB5
 477 0049 0E       		.byte	0xe
 478 004a 14       		.uleb128 0x14
 479 004b 8E       		.byte	0x8e
 480 004c 01       		.uleb128 0x1
 481 004d 87       		.byte	0x87
 482 004e 02       		.uleb128 0x2
 483 004f 86       		.byte	0x86
 484 0050 03       		.uleb128 0x3
 485 0051 85       		.byte	0x85
 486 0052 04       		.uleb128 0x4
 487 0053 84       		.byte	0x84
 488 0054 05       		.uleb128 0x5
 489 0055 000000   		.align	2
 490              	.LEFDE4:
 491              	.LSFDE6:
 492 0058 18000000 		.4byte	.LEFDE6-.LASFDE6
 493              	.LASFDE6:
 494 005c 00000000 		.4byte	.Lframe0
 495 0060 BC000000 		.4byte	.LFB3
 496 0064 78000000 		.4byte	.LFE3-.LFB3
 497 0068 4C       		.byte	0x4
 498              		.4byte	.LCFI2-.LFB3
 499 0069 0E       		.byte	0xe
 500 006a 10       		.uleb128 0x10
 501 006b 8E       		.byte	0x8e
 502 006c 01       		.uleb128 0x1
 503 006d 86       		.byte	0x86
 504 006e 02       		.uleb128 0x2
 505 006f 85       		.byte	0x85
 506 0070 03       		.uleb128 0x3
 507 0071 84       		.byte	0x84
 508 0072 04       		.uleb128 0x4
 509 0073 00       		.align	2
 510              	.LEFDE6:
 511              	.LSFDE8:
 512 0074 14000000 		.4byte	.LEFDE8-.LASFDE8
 513              	.LASFDE8:
 514 0078 00000000 		.4byte	.Lframe0
 515 007c 34010000 		.4byte	.LFB7
ARM GAS  /cygdrive/c/DOCUME~1/mkwapisz/LOCALS~1/Temp/cc0xtwrH.s 			page 14


 516 0080 F8000000 		.4byte	.LFE7-.LFB7
 517 0084 48       		.byte	0x4
 518              		.4byte	.LCFI3-.LFB7
 519 0085 0E       		.byte	0xe
 520 0086 04       		.uleb128 0x4
 521 0087 8E       		.byte	0x8e
 522 0088 01       		.uleb128 0x1
 523 0089 000000   		.align	2
 524              	.LEFDE8:
 525              	.LSFDE10:
 526 008c 14000000 		.4byte	.LEFDE10-.LASFDE10
 527              	.LASFDE10:
 528 0090 00000000 		.4byte	.Lframe0
 529 0094 2C020000 		.4byte	.LFB2
 530 0098 94000000 		.4byte	.LFE2-.LFB2
 531 009c 44       		.byte	0x4
 532              		.4byte	.LCFI4-.LFB2
 533 009d 0E       		.byte	0xe
 534 009e 08       		.uleb128 0x8
 535 009f 8E       		.byte	0x8e
 536 00a0 01       		.uleb128 0x1
 537 00a1 84       		.byte	0x84
 538 00a2 02       		.uleb128 0x2
 539 00a3 00       		.align	2
 540              	.LEFDE10:
 541              		.file 2 "src/integer.h"
 542              		.text
 543              	.Letext0: