ARM GAS  /cygdrive/c/DOCUME~1/mkwapisz/LOCALS~1/Temp/ccr6frYC.s 			page 1


   1              		.file	"spi.c"
   8 0000 A3000000 		.text
   8      02005A00 
   8      00000201 
   8      FB0E0D00 
   8      01010101 
   9              	.Ltext0:
  10              		.align	2
  11              		.global	setSpiSpeed
  12              		.type	setSpiSpeed, %function
  13              	setSpiSpeed:
  14              	.LFB3:
  15              		.file 1 "src/spi.c"
   1:src/spi.c     **** #include "spi.h"
   2:src/spi.c     **** #include "integer.h"
   3:src/spi.c     **** 
   4:src/spi.c     **** #include "../../../pre_emptive_os/api/general.h"
   5:src/spi.c     **** 
   6:src/spi.c     **** BYTE my_spiSend(BYTE outgoing);
   7:src/spi.c     **** //------------------------------------------------------------------------------
   8:src/spi.c     **** 
   9:src/spi.c     **** void initSpi(void) {
  10:src/spi.c     **** 	// setup GPIO
  11:src/spi.c     **** 	SPI_IODIR |= (1 << SPI_SCK_PIN) | (1 << SPI_MOSI_PIN) | (1 << SPI_SS_PIN);
  12:src/spi.c     **** 	SPI_IODIR &= ~(1 << SPI_MISO_PIN);
  13:src/spi.c     **** 
  14:src/spi.c     **** 	// set Chip-Select high - unselect card
  15:src/spi.c     **** 	UNSELECT_CARD();
  16:src/spi.c     **** 
  17:src/spi.c     **** 	// reset Pin-Functions	
  18:src/spi.c     **** 	SPI_PINSEL &= ~((3 << SPI_SCK_FUNCBIT) | (3 << SPI_MISO_FUNCBIT) | (3
  19:src/spi.c     **** 			<< SPI_MOSI_FUNCBIT) | (3 << SPI_SS_FUNCBIT));
  20:src/spi.c     **** 
  21:src/spi.c     **** 	SPI_PINSEL |= ((1 << SPI_SCK_FUNCBIT) | (1 << SPI_MISO_FUNCBIT) | (1
  22:src/spi.c     **** 			<< SPI_MOSI_FUNCBIT));
  23:src/spi.c     **** 
  24:src/spi.c     **** 	// enable SPI-Master
  25:src/spi.c     **** 	S0SPCR = (1 << MSTR) | (0 << CPOL);
  26:src/spi.c     **** 
  27:src/spi.c     **** 	// low speed during init
  28:src/spi.c     **** 	setSpiSpeed(254);
  29:src/spi.c     **** 
  30:src/spi.c     **** 	CHAR i = 0;
  31:src/spi.c     **** 	/* Send 21 spi commands with card not selected */
  32:src/spi.c     **** 	for (i = 0; i < 21; i++) {
  33:src/spi.c     **** 		my_spiSend(0xff);
  34:src/spi.c     **** 	}
  35:src/spi.c     **** }
  36:src/spi.c     **** 
  37:src/spi.c     **** void setSpiSpeed(BYTE speed) {
  16              		.loc 1 37 0
ARM GAS  /cygdrive/c/DOCUME~1/mkwapisz/LOCALS~1/Temp/ccr6frYC.s 			page 2


  17              		@ Function supports interworking.
  18              		@ args = 0, pretend = 0, frame = 0
  19              		@ frame_needed = 0, uses_anonymous_args = 0
  20              		@ link register save eliminated.
  21              	.LVL0:
  38:src/spi.c     **** 	speed &= 0xFE;
  22              		.loc 1 38 0
  23 0000 FE0000E2 		and	r0, r0, #254
  24              	.LVL1:
  39:src/spi.c     **** 	if (speed < SPI_PRESCALE_MIN) {
  25              		.loc 1 39 0
  26 0004 3F0050E3 		cmp	r0, #63
  40:src/spi.c     **** 		speed = SPI_PRESCALE_MIN;
  41:src/spi.c     **** 	}
  42:src/spi.c     **** 
  43:src/spi.c     **** 	SPI_PRESCALE_REG = speed;
  27              		.loc 1 43 0
  28 0008 08309FE5 		ldr	r3, .L5
  29              		.loc 1 39 0
  30 000c 4000A093 		movls	r0, #64
  31              		.loc 1 37 0
  32              		@ lr needed for prologue
  33              		.loc 1 43 0
  34 0010 0C0083E5 		str	r0, [r3, #12]
  44:src/spi.c     **** }
  35              		.loc 1 44 0
  36 0014 1EFF2FE1 		bx	lr
  37              	.L6:
  38              		.align	2
  39              	.L5:
  40 0018 000002E0 		.word	-536739840
  41              	.LFE3:
  42              		.size	setSpiSpeed, .-setSpiSpeed
  43              		.align	2
  44              		.global	my_spiSend
  45              		.type	my_spiSend, %function
  46              	my_spiSend:
  47              	.LFB4:
  45:src/spi.c     **** 
  46:src/spi.c     **** BYTE my_spiSend(BYTE outgoing) {
  48              		.loc 1 46 0
  49              		@ Function supports interworking.
  50              		@ args = 0, pretend = 0, frame = 0
  51              		@ frame_needed = 0, uses_anonymous_args = 0
  52              		@ link register save eliminated.
  53              	.LVL2:
  47:src/spi.c     **** 	while (1) {
  48:src/spi.c     **** 		if (SEMAFOR_SPI == 0) {
  54              		.loc 1 48 0
  55 001c 40309FE5 		ldr	r3, .L17
  56 0020 0030D3E5 		ldrb	r3, [r3, #0]	@ zero_extendqisi2
  57 0024 000053E3 		cmp	r3, #0
  58              		.loc 1 46 0
  59 0028 FF0000E2 		and	r0, r0, #255
  60              		@ lr needed for prologue
  61              		.loc 1 48 0
  62 002c 0000A013 		movne	r0, #0
ARM GAS  /cygdrive/c/DOCUME~1/mkwapisz/LOCALS~1/Temp/ccr6frYC.s 			page 3


  63              	.LVL3:
  64 0030 1EFF2F11 		bxne	lr
  65              	.LBB2:
  49:src/spi.c     **** 			SEMAFOR_SPI = 1;
  50:src/spi.c     **** 			BYTE incoming;
  51:src/spi.c     **** 
  52:src/spi.c     **** 			S0SPDR = outgoing;
  66              		.loc 1 52 0
  67 0034 2C309FE5 		ldr	r3, .L17+4
  68              	.LVL4:
  69 0038 080083E5 		str	r0, [r3, #8]
  70              	.L12:
  53:src/spi.c     **** 			while (!(S0SPSR & (1 << SPIF)))
  71              		.loc 1 53 0
  72 003c 24209FE5 		ldr	r2, .L17+4
  73 0040 043092E5 		ldr	r3, [r2, #4]
  74 0044 800013E3 		tst	r3, #128
  75 0048 FBFFFF0A 		beq	.L12
  54:src/spi.c     **** 				;
  55:src/spi.c     **** 			incoming = S0SPDR;
  76              		.loc 1 55 0
  77 004c 081092E5 		ldr	r1, [r2, #8]
  56:src/spi.c     **** 
  57:src/spi.c     **** 			SEMAFOR_SPI = 0;
  78              		.loc 1 57 0
  79 0050 0C309FE5 		ldr	r3, .L17
  80 0054 0020A0E3 		mov	r2, #0
  58:src/spi.c     **** 			return (incoming);
  81              		.loc 1 58 0
  82 0058 FF0001E2 		and	r0, r1, #255
  83              	.LVL5:
  84              		.loc 1 57 0
  85 005c 0020C3E5 		strb	r2, [r3, #0]
  86              	.LBE2:
  59:src/spi.c     **** 		} else
  60:src/spi.c     **** 			return 0;
  61:src/spi.c     **** 	}
  62:src/spi.c     **** }
  87              		.loc 1 62 0
  88 0060 1EFF2FE1 		bx	lr
  89              	.L18:
  90              		.align	2
  91              	.L17:
  92 0064 00000000 		.word	SEMAFOR_SPI
  93 0068 000002E0 		.word	-536739840
  94              	.LFE4:
  95              		.size	my_spiSend, .-my_spiSend
  96              		.align	2
  97              		.global	spiSend
  98              		.type	spiSend, %function
  99              	spiSend:
 100              	.LFB5:
  63:src/spi.c     **** 
  64:src/spi.c     **** BYTE incoming;
  65:src/spi.c     **** 
  66:src/spi.c     **** BYTE spiSend(BYTE toSend) {
 101              		.loc 1 66 0
ARM GAS  /cygdrive/c/DOCUME~1/mkwapisz/LOCALS~1/Temp/ccr6frYC.s 			page 4


 102              		@ Function supports interworking.
 103              		@ args = 0, pretend = 0, frame = 0
 104              		@ frame_needed = 0, uses_anonymous_args = 0
 105              		@ link register save eliminated.
 106              	.LVL6:
  67:src/spi.c     **** 	while (1) {
  68:src/spi.c     **** 		if (SEMAFOR_SPI == 0) {
 107              		.loc 1 68 0
 108 006c 4C309FE5 		ldr	r3, .L29
 109 0070 0030D3E5 		ldrb	r3, [r3, #0]	@ zero_extendqisi2
 110 0074 000053E3 		cmp	r3, #0
 111              		.loc 1 66 0
 112 0078 FF0000E2 		and	r0, r0, #255
 113              		@ lr needed for prologue
 114              		.loc 1 68 0
 115 007c 0000A013 		movne	r0, #0
 116              	.LVL7:
 117 0080 1EFF2F11 		bxne	lr
  69:src/spi.c     **** 			SEMAFOR_SPI = 1;
  70:src/spi.c     **** 			S0SPDR = toSend;
 118              		.loc 1 70 0
 119 0084 38309FE5 		ldr	r3, .L29+4
 120              	.LVL8:
 121 0088 080083E5 		str	r0, [r3, #8]
 122              	.L24:
  71:src/spi.c     **** 			while (!(S0SPSR & (1 << SPIF)))
 123              		.loc 1 71 0
 124 008c 30209FE5 		ldr	r2, .L29+4
 125 0090 043092E5 		ldr	r3, [r2, #4]
 126 0094 800013E3 		tst	r3, #128
 127 0098 FBFFFF0A 		beq	.L24
  72:src/spi.c     **** 				;
  73:src/spi.c     **** 
  74:src/spi.c     **** 			incoming = S0SPDR;
 128              		.loc 1 74 0
 129 009c 082092E5 		ldr	r2, [r2, #8]
  75:src/spi.c     **** 
  76:src/spi.c     **** 			SEMAFOR_SPI = 0;
 130              		.loc 1 76 0
 131 00a0 18309FE5 		ldr	r3, .L29
 132 00a4 0010A0E3 		mov	r1, #0
 133              		.loc 1 74 0
 134 00a8 FF2002E2 		and	r2, r2, #255
 135              		.loc 1 76 0
 136 00ac 0010C3E5 		strb	r1, [r3, #0]
 137              		.loc 1 74 0
 138 00b0 10309FE5 		ldr	r3, .L29+8
  77:src/spi.c     **** 			return incoming;
 139              		.loc 1 77 0
 140 00b4 0200A0E1 		mov	r0, r2
 141              	.LVL9:
 142              		.loc 1 74 0
 143 00b8 0020C3E5 		strb	r2, [r3, #0]
  78:src/spi.c     **** 		} else
  79:src/spi.c     **** 			return 0;
  80:src/spi.c     **** 	}
  81:src/spi.c     **** }
ARM GAS  /cygdrive/c/DOCUME~1/mkwapisz/LOCALS~1/Temp/ccr6frYC.s 			page 5


 144              		.loc 1 81 0
 145 00bc 1EFF2FE1 		bx	lr
 146              	.L30:
 147              		.align	2
 148              	.L29:
 149 00c0 00000000 		.word	SEMAFOR_SPI
 150 00c4 000002E0 		.word	-536739840
 151 00c8 00000000 		.word	incoming
 152              	.LFE5:
 153              		.size	spiSend, .-spiSend
 154              		.align	2
 155              		.global	initSpi
 156              		.type	initSpi, %function
 157              	initSpi:
 158              	.LFB2:
 159              		.loc 1 9 0
 160              		@ Function supports interworking.
 161              		@ args = 0, pretend = 0, frame = 0
 162              		@ frame_needed = 0, uses_anonymous_args = 0
 163              		.loc 1 11 0
 164 00cc 6C209FE5 		ldr	r2, .L37
 165 00d0 083092E5 		ldr	r3, [r2, #8]
 166 00d4 853E83E3 		orr	r3, r3, #2128
 167 00d8 083082E5 		str	r3, [r2, #8]
 168              		.loc 1 12 0
 169 00dc 083092E5 		ldr	r3, [r2, #8]
 170 00e0 2030C3E3 		bic	r3, r3, #32
 171 00e4 083082E5 		str	r3, [r2, #8]
 172              		.loc 1 18 0
 173 00e8 012982E2 		add	r2, r2, #16384
 174 00ec 003092E5 		ldr	r3, [r2, #0]
 175 00f0 FF3CC3E3 		bic	r3, r3, #65280
 176 00f4 003082E5 		str	r3, [r2, #0]
 177              		.loc 1 21 0
 178 00f8 003092E5 		ldr	r3, [r2, #0]
 179              		.loc 1 25 0
 180 00fc 40109FE5 		ldr	r1, .L37+4
 181              		.loc 1 21 0
 182 0100 153C83E3 		orr	r3, r3, #5376
 183 0104 003082E5 		str	r3, [r2, #0]
 184              		.loc 1 25 0
 185 0108 2030A0E3 		mov	r3, #32
 186 010c 003081E5 		str	r3, [r1, #0]
 187              	.LBB5:
 188              	.LBB6:
 189              		.loc 1 43 0
 190 0110 DE3083E2 		add	r3, r3, #222
 191 0114 0C3081E5 		str	r3, [r1, #12]
 192              	.LBE6:
 193              	.LBE5:
 194              		.loc 1 9 0
 195 0118 10402DE9 		stmfd	sp!, {r4, lr}
 196              	.LCFI0:
 197              	.LBB7:
 198              	.LBB8:
 199              		.loc 1 43 0
 200 011c 0040A0E3 		mov	r4, #0
ARM GAS  /cygdrive/c/DOCUME~1/mkwapisz/LOCALS~1/Temp/ccr6frYC.s 			page 6


 201              	.LVL10:
 202              	.L32:
 203              	.LBE8:
 204              	.LBE7:
 205              		.loc 1 33 0
 206 0120 FF00A0E3 		mov	r0, #255
 207 0124 FEFFFFEB 		bl	my_spiSend
 208              		.loc 1 32 0
 209 0128 013084E2 		add	r3, r4, #1
 210 012c FF4003E2 		and	r4, r3, #255
 211 0130 150054E3 		cmp	r4, #21
 212 0134 F9FFFF1A 		bne	.L32
 213              		.loc 1 35 0
 214 0138 1040BDE8 		ldmfd	sp!, {r4, lr}
 215 013c 1EFF2FE1 		bx	lr
 216              	.L38:
 217              		.align	2
 218              	.L37:
 219 0140 008002E0 		.word	-536707072
 220 0144 000002E0 		.word	-536739840
 221              	.LFE2:
 222              		.size	initSpi, .-initSpi
 223              		.bss
 224              	SEMAFOR_SPI:
 225 0000 00       		.space	1
 226              		.comm	incoming,1,1
 227              		.section	.debug_frame,"",%progbits
 228              	.Lframe0:
 229 0000 0C000000 		.4byte	.LECIE0-.LSCIE0
 230              	.LSCIE0:
 231 0004 FFFFFFFF 		.4byte	0xffffffff
 232 0008 01       		.byte	0x1
 233 0009 00       		.ascii	"\000"
 234 000a 01       		.uleb128 0x1
 235 000b 7C       		.sleb128 -4
 236 000c 0E       		.byte	0xe
 237 000d 0C       		.byte	0xc
 238 000e 0D       		.uleb128 0xd
 239 000f 00       		.uleb128 0x0
 240              		.align	2
 241              	.LECIE0:
 242              	.LSFDE0:
 243 0010 0C000000 		.4byte	.LEFDE0-.LASFDE0
 244              	.LASFDE0:
 245 0014 00000000 		.4byte	.Lframe0
 246 0018 00000000 		.4byte	.LFB3
 247 001c 1C000000 		.4byte	.LFE3-.LFB3
 248              		.align	2
 249              	.LEFDE0:
 250              	.LSFDE2:
 251 0020 0C000000 		.4byte	.LEFDE2-.LASFDE2
 252              	.LASFDE2:
 253 0024 00000000 		.4byte	.Lframe0
 254 0028 1C000000 		.4byte	.LFB4
 255 002c 50000000 		.4byte	.LFE4-.LFB4
 256              		.align	2
 257              	.LEFDE2:
ARM GAS  /cygdrive/c/DOCUME~1/mkwapisz/LOCALS~1/Temp/ccr6frYC.s 			page 7


 258              	.LSFDE4:
 259 0030 0C000000 		.4byte	.LEFDE4-.LASFDE4
 260              	.LASFDE4:
 261 0034 00000000 		.4byte	.Lframe0
 262 0038 6C000000 		.4byte	.LFB5
 263 003c 60000000 		.4byte	.LFE5-.LFB5
 264              		.align	2
 265              	.LEFDE4:
 266              	.LSFDE6:
 267 0040 14000000 		.4byte	.LEFDE6-.LASFDE6
 268              	.LASFDE6:
 269 0044 00000000 		.4byte	.Lframe0
 270 0048 CC000000 		.4byte	.LFB2
 271 004c 7C000000 		.4byte	.LFE2-.LFB2
 272 0050 02       		.byte	0x4
 273 0051 50       		.4byte	.LCFI0-.LFB2
 274 0052 0E       		.byte	0xe
 275 0053 08       		.uleb128 0x8
 276 0054 8E       		.byte	0x8e
 277 0055 01       		.uleb128 0x1
 278 0056 84       		.byte	0x84
 279 0057 02       		.uleb128 0x2
 280              		.align	2
 281              	.LEFDE6:
 282              		.file 2 "src/integer.h"
 283              		.file 3 "src/../../../pre_emptive_os/api/general.h"
 284              		.text
 285              	.Letext0: