ARM GAS  /cygdrive/c/DOCUME~1/mkwapisz/LOCALS~1/Temp/cc1VEogw.s 			page 1


   1              		.code	16
   2              		.file	"main.c"
   3              		.section	.debug_abbrev,"",%progbits
   4              	.Ldebug_abbrev0:
   5              		.section	.debug_info,"",%progbits
   6              	.Ldebug_info0:
   7              		.section	.debug_line,"",%progbits
   8              	.Ldebug_line0:
   9 0000 E5000000 		.text
   9      02006600 
   9      00000201 
   9      FB0E0D00 
   9      01010101 
  10              	.Ltext0:
  11              		.align	2
  12              		.global	appTick
  13              		.code 16
  14              		.thumb_func
  15              		.type	appTick, %function
  16              	appTick:
  17              	.LFB12:
  18              		.file 1 "main.c"
   1:main.c        **** #include "../pre_emptive_os/api/osapi.h"
   2:main.c        **** #include "../pre_emptive_os/api/general.h"
   3:main.c        **** #include <printf_P.h>
   4:main.c        **** #include <ea_init.h>
   5:main.c        **** #include <lpc2xxx.h>
   6:main.c        **** #include <consol.h>
   7:main.c        **** 
   8:main.c        **** #include "i2c.h"
   9:main.c        **** #include "key.h"
  10:main.c        **** 
  11:main.c        **** #include "usb/lpc_usb.h"
  12:main.c        **** #include "usb/lpc_hid.h"
  13:main.c        **** 
  14:main.c        **** #include "pff2/src/diskio.h"
  15:main.c        **** #include "pff2/src/pff.h"
  16:main.c        **** 
  17:main.c        **** static void ProceduraGlowna(void* arg);
  18:main.c        **** #define PAMIEC_PROCEDURA_GLOWNA  400
  19:main.c        **** static tU8 ProceduraGlownaPamiec[PAMIEC_PROCEDURA_GLOWNA];
  20:main.c        **** 
  21:main.c        **** static void proc1(void* arg);
  22:main.c        **** #define PROC1_STACK_SIZE 2048
  23:main.c        **** static tU8 proc1Stack[PROC1_STACK_SIZE];
  24:main.c        **** static tU8 pid1;
  25:main.c        **** 
  26:main.c        **** static void proc2(void* arg);
  27:main.c        **** #define PROC2_STACK_SIZE 750
  28:main.c        **** static tU8 proc2Stack[PROC2_STACK_SIZE];
  29:main.c        **** static tU8 pid2;
  30:main.c        **** 
  31:main.c        **** static void proc3(void* arg);
  32:main.c        **** #define PROC3_STACK_SIZE 2048
  33:main.c        **** static tU8 proc3Stack[PROC3_STACK_SIZE];
  34:main.c        **** static tU8 pid3;
  35:main.c        **** 
ARM GAS  /cygdrive/c/DOCUME~1/mkwapisz/LOCALS~1/Temp/cc1VEogw.s 			page 2


  36:main.c        **** static void ZapalajDiodeProces(void* arg);
  37:main.c        **** #define ZAPALAJDIODE_STACK_SIZE 256
  38:main.c        **** static tU8 zapalajDiode[ZAPALAJDIODE_STACK_SIZE];
  39:main.c        **** static tU8 pidZapalajDiode;
  40:main.c        **** 
  41:main.c        **** static tU8 contrast = 46;
  42:main.c        **** tU8 odczytujSD = FALSE;
  43:main.c        **** 
  44:main.c        **** static void drawMenu(int);
  45:main.c        **** static void PoinformujZeWczytanoSd(int _wariant);
  46:main.c        **** static void PoinformujZeNieWczytanoSd(FRESULT blad, int _wariant);
  47:main.c        **** static void rysuj(int _wariant, FRESULT _odp);
  48:main.c        **** 
  49:main.c        **** volatile tU32 msClock = 0;
  50:main.c        **** 
  51:main.c        **** /**
  52:main.c        ****  * 1 - czerwony
  53:main.c        ****  * 2 - zielony
  54:main.c        ****  * 0 - niebieski
  55:main.c        ****  */
  56:main.c        **** static int kolorDiody = 0;
  57:main.c        **** 
  58:main.c        **** /*od plików*/
  59:main.c        **** FATFS fatfs; /* File system object */
  60:main.c        **** DIR dir; /* Directory object */
  61:main.c        **** FILINFO fno; /* File information object */
  62:main.c        **** FRESULT odpowiedz;
  63:main.c        **** /*od plików END*/
  64:main.c        **** 
  65:main.c        **** /*
  66:main.c        ****  * Funkcja wejœciowa programu.
  67:main.c        ****  */
  68:main.c        **** int main(void) {
  69:main.c        **** 	tU8 error;
  70:main.c        **** 	tU8 pid;
  71:main.c        **** 
  72:main.c        **** 	//immediately turn off buzzer (if connected)
  73:main.c        **** 	IODIR0 |= 0x00000080;
  74:main.c        **** 	IOSET0 = 0x00000080;
  75:main.c        **** 
  76:main.c        **** 	osInit();
  77:main.c        **** 
  78:main.c        **** 	osCreateProcess(ProceduraGlowna, ProceduraGlownaPamiec,
  79:main.c        **** 			PAMIEC_PROCEDURA_GLOWNA, &pid, 1, NULL, &error);
  80:main.c        **** 	osStartProcess(pid, &error);
  81:main.c        **** 
  82:main.c        **** 	osStart();
  83:main.c        **** 	return 0;
  84:main.c        **** }
  85:main.c        **** 
  86:main.c        **** /*
  87:main.c        ****  * Procedura g³ówna programu odpalaj¹ca pozosta³e procedury.
  88:main.c        ****  */
  89:main.c        **** static void ProceduraGlowna(void* arg) {
  90:main.c        **** 	tU8 error;
  91:main.c        **** 
  92:main.c        **** 	InicjalizacjaKonsoli();
ARM GAS  /cygdrive/c/DOCUME~1/mkwapisz/LOCALS~1/Temp/cc1VEogw.s 			page 3


  93:main.c        **** 
  94:main.c        **** 	//Wyœwietlacz 1.
  95:main.c        **** 	osCreateProcess(proc1, proc1Stack, PROC1_STACK_SIZE, &pid1, 3, NULL, &error);
  96:main.c        **** 	osStartProcess(pid1, &error);
  97:main.c        **** 
  98:main.c        **** 	odpowiedz = 0;//pf_mount(&fatfs);
  99:main.c        **** 
 100:main.c        **** 	//Wyœwietlacz 2.
 101:main.c        **** 	osCreateProcess(proc2, proc2Stack, PROC2_STACK_SIZE, &pid2, 3, NULL, &error);
 102:main.c        **** 	osStartProcess(pid2, &error);
 103:main.c        **** 	//	osCreateProcess(proc3, proc3Stack, PROC3_STACK_SIZE, &pid3, 3, NULL, &error);
 104:main.c        **** 	//	osStartProcess(pid3, &error);
 105:main.c        **** 
 106:main.c        **** 	if (odpowiedz == FR_OK) {
 107:main.c        **** 		kolorDiody = 0;
 108:main.c        **** 	} else {
 109:main.c        **** 		kolorDiody = 1;
 110:main.c        **** 	}
 111:main.c        **** 
 112:main.c        **** 	//Stworzenie procesu obs³uguj¹cego migaj¹c¹ diodê (na zielono, czerwono lub niebiesko).
 113:main.c        **** 	osCreateProcess(ZapalajDiodeProces, zapalajDiode, ZAPALAJDIODE_STACK_SIZE,
 114:main.c        **** 			&pidZapalajDiode, 3, NULL, &error);
 115:main.c        **** 	osStartProcess(pidZapalajDiode, &error);
 116:main.c        **** 
 117:main.c        **** 	//Zakoñczenie procesów.
 118:main.c        **** 	osDeleteProcess();
 119:main.c        **** }
 120:main.c        **** 
 121:main.c        **** static void proc1(void* arg) {
 122:main.c        **** 	WyswietlTekstNaLcd();
 123:main.c        **** }
 124:main.c        **** 
 125:main.c        **** static void proc2(void* arg) {
 126:main.c        **** 	tU8 error;
 127:main.c        **** 
 128:main.c        **** 	if (odczytujSD == FALSE) {
 129:main.c        **** 
 130:main.c        **** 		IODIR |= 0x00006000; //P0.13/14
 131:main.c        **** 		IOSET = 0x00006000;
 132:main.c        **** 
 133:main.c        **** 		lcdInit();
 134:main.c        **** 		initKeyProc();
 135:main.c        **** 		int akcja = 0;
 136:main.c        **** 		drawMenu(akcja);
 137:main.c        **** 		lcdContrast(contrast);
 138:main.c        **** 
 139:main.c        **** 		while (odczytujSD == FALSE) {
 140:main.c        **** 			tU8 anyKey; // ruch joistick'a
 141:main.c        **** 
 142:main.c        **** 			anyKey = checkKey();
 143:main.c        **** 			if (anyKey != KEY_NOTHING) {
 144:main.c        **** 				if (anyKey == KEY_CENTER) {
 145:main.c        **** 					//drawMenu(0);
 146:main.c        **** 				} else if (anyKey == KEY_RIGHT) {
 147:main.c        **** 					drawMenu((++akcja) % 3);
 148:main.c        **** 				} else if (anyKey == KEY_LEFT) {
 149:main.c        **** 					//drawMenu((--akcja) % 3);
ARM GAS  /cygdrive/c/DOCUME~1/mkwapisz/LOCALS~1/Temp/cc1VEogw.s 			page 4


 150:main.c        **** 				} else if (anyKey == KEY_DOWN) {
 151:main.c        **** 					if (akcja == 0) {
 152:main.c        **** 						odpowiedz = pf_mount(&fatfs);
 153:main.c        **** 						if (odpowiedz == FR_OK) {
 154:main.c        **** 							kolorDiody = 2;
 155:main.c        **** 							drawMenu(3);
 156:main.c        **** 						} else {
 157:main.c        **** 							kolorDiody = 1;
 158:main.c        **** 							drawMenu(4);
 159:main.c        **** 						}
 160:main.c        **** 						odczytujSD = TRUE;
 161:main.c        **** 					}
 162:main.c        **** 				} else if (anyKey == KEY_UP) {
 163:main.c        **** 					if (akcja == 0) {
 164:main.c        **** 						odpowiedz = pf_mount(&fatfs);
 165:main.c        **** 						if (odpowiedz == FR_OK) {
 166:main.c        **** 							kolorDiody = 2;
 167:main.c        **** 							drawMenu(3);
 168:main.c        **** 						} else {
 169:main.c        **** 							kolorDiody = 1;
 170:main.c        **** 							drawMenu(4);
 171:main.c        **** 						}
 172:main.c        **** 						odczytujSD = TRUE;
 173:main.c        **** 					}
 174:main.c        **** 				}
 175:main.c        **** 			}
 176:main.c        **** 		}
 177:main.c        **** 	} else {
 178:main.c        **** 	}
 179:main.c        **** }
 180:main.c        **** 
 181:main.c        **** /*
 182:main.c        ****  * 0 - Graj
 183:main.c        ****  * 1 - Zatrzymaj
 184:main.c        ****  * 2 - Nastepny
 185:main.c        ****  */
 186:main.c        **** static void drawMenu(int _akcja) {
 187:main.c        **** 	lcdColor(0, 0);
 188:main.c        **** 	lcdClrscr();
 189:main.c        **** 
 190:main.c        **** 	lcdRect(14, 0, 102, 128, 0x6d);
 191:main.c        **** 	lcdRect(15, 17, 100, 110, 0);
 192:main.c        **** 
 193:main.c        **** 	lcdGotoxy(24, 1); // po³o¿enie tekstu x=24, y=1
 194:main.c        **** 	lcdColor(0x6d, 0);
 195:main.c        **** 	lcdPuts("Sterowanie");
 196:main.c        **** 
 197:main.c        **** 	lcdGotoxy(22, 20 + (14 * 1));
 198:main.c        **** 	lcdColor(0x00, 0xe0);
 199:main.c        **** 	//  lcdColor(0x00,0xfd);
 200:main.c        **** 	switch (_akcja) {
 201:main.c        **** 	case 0: {
 202:main.c        **** 		lcdPuts("Wczytaj");
 203:main.c        **** 		break;
 204:main.c        **** 	}
 205:main.c        **** 	case 1: {
 206:main.c        **** 		lcdPuts("Zakoncz");
ARM GAS  /cygdrive/c/DOCUME~1/mkwapisz/LOCALS~1/Temp/cc1VEogw.s 			page 5


 207:main.c        **** 		break;
 208:main.c        **** 	}
 209:main.c        **** 	case 2: {
 210:main.c        **** 		lcdPuts("..");
 211:main.c        **** 		break;
 212:main.c        **** 	}
 213:main.c        **** 	case 3: {
 214:main.c        **** 		lcdPuts("Odczytano");
 215:main.c        **** 		break;
 216:main.c        **** 	}
 217:main.c        **** 	case 4: {
 218:main.c        **** 		lcdPuts("Nie odczytano");
 219:main.c        **** 		break;
 220:main.c        **** 	}
 221:main.c        **** 	}
 222:main.c        **** }
 223:main.c        **** 
 224:main.c        **** static void proc3(void *arg) {
 225:main.c        **** 
 226:main.c        **** 	lcdInit();
 227:main.c        **** 	initKeyProc();
 228:main.c        **** 
 229:main.c        **** 	lcdContrast(contrast);
 230:main.c        **** 
 231:main.c        **** 	int wariantT = 0;
 232:main.c        **** 
 233:main.c        **** 	rysuj(wariantT, odpowiedz);
 234:main.c        **** 
 235:main.c        **** 	while (1) {
 236:main.c        **** 		tU8 ruchJ;
 237:main.c        **** 		ruchJ = checkKey();
 238:main.c        **** 
 239:main.c        **** 		if (ruchJ != KEY_NOTHING) {
 240:main.c        **** 			if (ruchJ == KEY_LEFT) {
 241:main.c        **** 			} else if (ruchJ == KEY_RIGHT) {
 242:main.c        **** 				rysuj((++wariantT) % 2, odpowiedz);
 243:main.c        **** 			} else if (ruchJ == KEY_DOWN) {
 244:main.c        **** 			} else if (ruchJ == KEY_UP) {
 245:main.c        **** 			}
 246:main.c        **** 		}
 247:main.c        **** 	}
 248:main.c        **** 
 249:main.c        **** }
 250:main.c        **** 
 251:main.c        **** static void rysuj(int _wariant, FRESULT _odp) {
 252:main.c        **** 	lcdColor(0, 0);
 253:main.c        **** 	lcdClrscr();
 254:main.c        **** 	lcdColor(0x00, 0xe0);
 255:main.c        **** 	if (_odp == FR_OK) {
 256:main.c        **** 		PoinformujZeWczytanoSd(_wariant);
 257:main.c        **** 
 258:main.c        **** 	} else {
 259:main.c        **** 		PoinformujZeNieWczytanoSd(_odp, _wariant);
 260:main.c        **** 	}
 261:main.c        **** 
 262:main.c        **** }
 263:main.c        **** 
ARM GAS  /cygdrive/c/DOCUME~1/mkwapisz/LOCALS~1/Temp/cc1VEogw.s 			page 6


 264:main.c        **** static void PoinformujZeWczytanoSd(int _wariant) {
 265:main.c        **** 
 266:main.c        **** 	switch (_wariant) {
 267:main.c        **** 	case 0:
 268:main.c        **** 		lcdGotoxy(22, 20);
 269:main.c        **** 		lcdPuts("Wczytano");
 270:main.c        **** 
 271:main.c        **** 		lcdGotoxy(22, 60);
 272:main.c        **** 		lcdPuts("Plik");
 273:main.c        **** 
 274:main.c        **** 		break;
 275:main.c        **** 
 276:main.c        **** 	case 1:
 277:main.c        **** 		lcdGotoxy(32, 20 + (14 * 2));
 278:main.c        **** 		lcdPuts("Brawo!");
 279:main.c        **** 
 280:main.c        **** 		break;
 281:main.c        **** 	default:
 282:main.c        **** 		lcdGotoxy(32, 20 + (14 * 2));
 283:main.c        **** 		lcdPuts("?");
 284:main.c        **** 
 285:main.c        **** 		break;
 286:main.c        **** 	}
 287:main.c        **** }
 288:main.c        **** 
 289:main.c        **** static void PoinformujZeNieWczytanoSd(FRESULT blad, int _wariant) {
 290:main.c        **** 
 291:main.c        **** 	if (_wariant == 0) {
 292:main.c        **** 		lcdGotoxy(49, 20 + (14 * 2));
 293:main.c        **** 		lcdPuts("Nie");
 294:main.c        **** 
 295:main.c        **** 		lcdGotoxy(31, 20 + (14 * 3));
 296:main.c        **** 		lcdPuts("Wczytano");
 297:main.c        **** 
 298:main.c        **** 		lcdGotoxy(40, 20 + (14 * 4));
 299:main.c        **** 		lcdPuts("Pliku");
 300:main.c        **** 	} else if (_wariant == 1) {
 301:main.c        **** 		lcdGotoxy(22, 20 + (14 * 5));
 302:main.c        **** 
 303:main.c        **** 		if (blad == FR_NO_FILESYSTEM) {
 304:main.c        **** 			lcdPuts("Blad systemu");
 305:main.c        **** 		} else if (blad == FR_DISK_ERR || blad == FR_NOT_READY) {
 306:main.c        **** 			lcdPuts("STA_NO_RDY");
 307:main.c        **** 		} else {
 308:main.c        **** 			lcdPuts("inny blad");
 309:main.c        **** 		}
 310:main.c        **** 	}
 311:main.c        **** }
 312:main.c        **** 
 313:main.c        **** static void ZapalajDiodeProces(void* arg) {
 314:main.c        **** 	ZaplajDiode(kolorDiody);
 315:main.c        **** }
 316:main.c        **** 
 317:main.c        **** /*****************************************************************************
 318:main.c        ****  *
 319:main.c        ****  * Description:
 320:main.c        ****  *    The timer tick entry function that is called once every timer tick
ARM GAS  /cygdrive/c/DOCUME~1/mkwapisz/LOCALS~1/Temp/cc1VEogw.s 			page 7


 321:main.c        ****  *    interrupt in the RTOS. Observe that any processing in this
 322:main.c        ****  *    function must be kept as short as possible since this function
 323:main.c        ****  *    execute in interrupt context.
 324:main.c        ****  *
 325:main.c        ****  * Params:
 326:main.c        ****  *    [in] elapsedTime - The number of elapsed milliseconds since last call.
 327:main.c        ****  *
 328:main.c        ****  ****************************************************************************/
 329:main.c        **** void appTick(tU32 elapsedTime) {
  19              		.loc 1 329 0
  20              	.LVL0:
 330:main.c        **** 	msClock += elapsedTime;
  21              		.loc 1 330 0
  22 0000 024A     		ldr	r2, .L3
  23 0002 1368     		ldr	r3, [r2]
  24 0004 1B18     		add	r3, r3, r0
  25              		.loc 1 329 0
  26              		@ lr needed for prologue
  27              		.loc 1 330 0
  28 0006 1360     		str	r3, [r2]
 331:main.c        **** }
  29              		.loc 1 331 0
  30              		@ sp needed for prologue
  31 0008 7047     		bx	lr
  32              	.L4:
  33 000a 0000     		.align	2
  34              	.L3:
  35 000c 00000000 		.word	msClock
  36              	.LFE12:
  37              		.size	appTick, .-appTick
  38              		.align	2
  39              		.global	main
  40              		.code 16
  41              		.thumb_func
  42              		.type	main, %function
  43              	main:
  44              	.LFB2:
  45              		.loc 1 68 0
  46 0010 30B5     		push	{r4, r5, lr}
  47              	.LCFI0:
  48              		.loc 1 73 0
  49 0012 124A     		ldr	r2, .L7
  50 0014 1368     		ldr	r3, [r2]
  51 0016 8021     		mov	r1, #128
  52 0018 0B43     		orr	r3, r3, r1
  53 001a 1360     		str	r3, [r2]
  54              		.loc 1 74 0
  55 001c 104B     		ldr	r3, .L7+4
  56              		.loc 1 68 0
  57 001e 84B0     		sub	sp, sp, #16
  58              	.LCFI1:
  59              		.loc 1 74 0
  60 0020 1960     		str	r1, [r3]
  61              		.loc 1 76 0
  62 0022 FFF7FEFF 		bl	osInit
  63              		.loc 1 78 0
  64 0026 6D46     		mov	r5, sp
ARM GAS  /cygdrive/c/DOCUME~1/mkwapisz/LOCALS~1/Temp/cc1VEogw.s 			page 8


  65 0028 0123     		mov	r3, #1
  66 002a 0E35     		add	r5, r5, #14
  67 002c 0093     		str	r3, [sp]
  68 002e 6C46     		mov	r4, sp
  69 0030 0023     		mov	r3, #0
  70 0032 C822     		mov	r2, #200
  71 0034 5200     		lsl	r2, r2, #1
  72 0036 0193     		str	r3, [sp, #4]
  73 0038 0F34     		add	r4, r4, #15
  74 003a 2B1C     		mov	r3, r5
  75 003c 0948     		ldr	r0, .L7+8
  76 003e 0A49     		ldr	r1, .L7+12
  77 0040 0294     		str	r4, [sp, #8]
  78 0042 FFF7FEFF 		bl	osCreateProcess
  79              	.LVL1:
  80              		.loc 1 80 0
  81 0046 2878     		ldrb	r0, [r5]
  82 0048 211C     		mov	r1, r4
  83 004a FFF7FEFF 		bl	osStartProcess
  84              		.loc 1 82 0
  85 004e FFF7FEFF 		bl	osStart
  86              		.loc 1 84 0
  87 0052 0020     		mov	r0, #0
  88 0054 04B0     		add	sp, sp, #16
  89              		@ sp needed for prologue
  90 0056 30BC     		pop	{r4, r5}
  91 0058 02BC     		pop	{r1}
  92 005a 0847     		bx	r1
  93              	.L8:
  94              		.align	2
  95              	.L7:
  96 005c 088002E0 		.word	-536707064
  97 0060 048002E0 		.word	-536707068
  98 0064 00000000 		.word	ProceduraGlowna
  99 0068 0C000000 		.word	ProceduraGlownaPamiec
 100              	.LFE2:
 101              		.size	main, .-main
 102              		.align	2
 103              		.code 16
 104              		.thumb_func
 105              		.type	ProceduraGlowna, %function
 106              	ProceduraGlowna:
 107              	.LFB3:
 108              		.loc 1 89 0
 109 006c F0B5     		push	{r4, r5, r6, r7, lr}
 110              	.LCFI2:
 111              	.LVL2:
 112 006e 84B0     		sub	sp, sp, #16
 113              	.LCFI3:
 114              		.loc 1 92 0
 115 0070 FFF7FEFF 		bl	InicjalizacjaKonsoli
 116              	.LVL3:
 117              		.loc 1 95 0
 118 0074 214E     		ldr	r6, .L15
 119 0076 0323     		mov	r3, #3
 120 0078 6D46     		mov	r5, sp
 121 007a 8022     		mov	r2, #128
ARM GAS  /cygdrive/c/DOCUME~1/mkwapisz/LOCALS~1/Temp/cc1VEogw.s 			page 9


 122 007c 0F35     		add	r5, r5, #15
 123 007e 0024     		mov	r4, #0
 124 0080 1201     		lsl	r2, r2, #4
 125 0082 1F48     		ldr	r0, .L15+4
 126 0084 1F49     		ldr	r1, .L15+8
 127 0086 0093     		str	r3, [sp]
 128 0088 331C     		mov	r3, r6
 129 008a 0194     		str	r4, [sp, #4]
 130 008c 0295     		str	r5, [sp, #8]
 131 008e FFF7FEFF 		bl	osCreateProcess
 132              		.loc 1 96 0
 133 0092 3078     		ldrb	r0, [r6]
 134 0094 291C     		mov	r1, r5
 135 0096 FFF7FEFF 		bl	osStartProcess
 136              		.loc 1 98 0
 137 009a 1B4F     		ldr	r7, .L15+12
 138              		.loc 1 101 0
 139 009c 1B4E     		ldr	r6, .L15+16
 140 009e 0323     		mov	r3, #3
 141              		.loc 1 98 0
 142 00a0 3C60     		str	r4, [r7]
 143              		.loc 1 101 0
 144 00a2 1B4A     		ldr	r2, .L15+20
 145 00a4 1B48     		ldr	r0, .L15+24
 146 00a6 1C49     		ldr	r1, .L15+28
 147 00a8 0093     		str	r3, [sp]
 148 00aa 331C     		mov	r3, r6
 149 00ac 0194     		str	r4, [sp, #4]
 150 00ae 0295     		str	r5, [sp, #8]
 151 00b0 FFF7FEFF 		bl	osCreateProcess
 152              		.loc 1 102 0
 153 00b4 3078     		ldrb	r0, [r6]
 154 00b6 291C     		mov	r1, r5
 155 00b8 FFF7FEFF 		bl	osStartProcess
 156              		.loc 1 106 0
 157 00bc 3B68     		ldr	r3, [r7]
 158 00be 174A     		ldr	r2, .L15+32
 159 00c0 002B     		cmp	r3, #0
 160 00c2 00D0     		beq	.L14
 161              		.loc 1 109 0
 162 00c4 0123     		mov	r3, #1
 163              	.L14:
 164 00c6 1360     		str	r3, [r2]
 165              		.loc 1 113 0
 166 00c8 154D     		ldr	r5, .L15+36
 167 00ca 0323     		mov	r3, #3
 168 00cc 0093     		str	r3, [sp]
 169 00ce 6C46     		mov	r4, sp
 170 00d0 0023     		mov	r3, #0
 171 00d2 8022     		mov	r2, #128
 172 00d4 5200     		lsl	r2, r2, #1
 173 00d6 0193     		str	r3, [sp, #4]
 174 00d8 0F34     		add	r4, r4, #15
 175 00da 2B1C     		mov	r3, r5
 176 00dc 1148     		ldr	r0, .L15+40
 177 00de 1249     		ldr	r1, .L15+44
 178 00e0 0294     		str	r4, [sp, #8]
ARM GAS  /cygdrive/c/DOCUME~1/mkwapisz/LOCALS~1/Temp/cc1VEogw.s 			page 10


 179 00e2 FFF7FEFF 		bl	osCreateProcess
 180              		.loc 1 115 0
 181 00e6 2878     		ldrb	r0, [r5]
 182 00e8 211C     		mov	r1, r4
 183 00ea FFF7FEFF 		bl	osStartProcess
 184              		.loc 1 118 0
 185 00ee FFF7FEFF 		bl	osDeleteProcess
 186              		.loc 1 119 0
 187 00f2 04B0     		add	sp, sp, #16
 188              		@ sp needed for prologue
 189 00f4 F0BC     		pop	{r4, r5, r6, r7}
 190 00f6 01BC     		pop	{r0}
 191 00f8 0047     		bx	r0
 192              	.L16:
 193 00fa 0000     		.align	2
 194              	.L15:
 195 00fc 9C090000 		.word	pid1
 196 0100 00000000 		.word	proc1
 197 0104 9C010000 		.word	proc1Stack
 198 0108 00000000 		.word	odpowiedz
 199 010c 8B0C0000 		.word	pid2
 200 0110 EE020000 		.word	750
 201 0114 00000000 		.word	proc2
 202 0118 9D090000 		.word	proc2Stack
 203 011c 08000000 		.word	kolorDiody
 204 0120 8C0D0000 		.word	pidZapalajDiode
 205 0124 00000000 		.word	ZapalajDiodeProces
 206 0128 8C0C0000 		.word	zapalajDiode
 207              	.LFE3:
 208              		.size	ProceduraGlowna, .-ProceduraGlowna
 209              		.align	2
 210              		.code 16
 211              		.thumb_func
 212              		.type	ZapalajDiodeProces, %function
 213              	ZapalajDiodeProces:
 214              	.LFB11:
 215              		.loc 1 313 0
 216 012c 00B5     		push	{lr}
 217              	.LCFI4:
 218              	.LVL4:
 219              		.loc 1 314 0
 220 012e 034B     		ldr	r3, .L19
 221 0130 1868     		ldr	r0, [r3]
 222              	.LVL5:
 223 0132 FFF7FEFF 		bl	ZaplajDiode
 224              		.loc 1 315 0
 225              		@ sp needed for prologue
 226 0136 01BC     		pop	{r0}
 227 0138 0047     		bx	r0
 228              	.L20:
 229 013a 0000     		.align	2
 230              	.L19:
 231 013c 08000000 		.word	kolorDiody
 232              	.LFE11:
 233              		.size	ZapalajDiodeProces, .-ZapalajDiodeProces
 234              		.section	.rodata.str1.4,"aMS",%progbits,1
 235              		.align	2
ARM GAS  /cygdrive/c/DOCUME~1/mkwapisz/LOCALS~1/Temp/cc1VEogw.s 			page 11


 236              	.LC15:
 237 0000 53746572 		.ascii	"Sterowanie\000"
 237      6F77616E 
 237      696500
 238 000b 00       		.align	2
 239              	.LC18:
 240 000c 57637A79 		.ascii	"Wczytaj\000"
 240      74616A00 
 241              		.align	2
 242              	.LC20:
 243 0014 5A616B6F 		.ascii	"Zakoncz\000"
 243      6E637A00 
 244              		.align	2
 245              	.LC22:
 246 001c 2E2E00   		.ascii	"..\000"
 247 001f 00       		.align	2
 248              	.LC24:
 249 0020 4F64637A 		.ascii	"Odczytano\000"
 249      7974616E 
 249      6F00
 250 002a 0000     		.align	2
 251              	.LC26:
 252 002c 4E696520 		.ascii	"Nie odczytano\000"
 252      6F64637A 
 252      7974616E 
 252      6F00
 253 003a 0000     		.text
 254              		.align	2
 255              		.code 16
 256              		.thumb_func
 257              		.type	drawMenu, %function
 258              	drawMenu:
 259              	.LFB6:
 260              		.loc 1 186 0
 261 0140 10B5     		push	{r4, lr}
 262              	.LCFI5:
 263              	.LVL6:
 264 0142 81B0     		sub	sp, sp, #4
 265              	.LCFI6:
 266              		.loc 1 187 0
 267 0144 0021     		mov	r1, #0
 268              		.loc 1 186 0
 269 0146 041C     		mov	r4, r0
 270              		.loc 1 187 0
 271 0148 0020     		mov	r0, #0
 272              	.LVL7:
 273 014a FFF7FEFF 		bl	lcdColor
 274              		.loc 1 188 0
 275 014e FFF7FEFF 		bl	lcdClrscr
 276              		.loc 1 190 0
 277 0152 6D23     		mov	r3, #109
 278 0154 0093     		str	r3, [sp]
 279 0156 0021     		mov	r1, #0
 280 0158 6622     		mov	r2, #102
 281 015a 8023     		mov	r3, #128
 282 015c 0E20     		mov	r0, #14
 283 015e FFF7FEFF 		bl	lcdRect
ARM GAS  /cygdrive/c/DOCUME~1/mkwapisz/LOCALS~1/Temp/cc1VEogw.s 			page 12


 284              		.loc 1 191 0
 285 0162 0023     		mov	r3, #0
 286 0164 6422     		mov	r2, #100
 287 0166 0093     		str	r3, [sp]
 288 0168 1121     		mov	r1, #17
 289 016a 6E23     		mov	r3, #110
 290 016c 0F20     		mov	r0, #15
 291 016e FFF7FEFF 		bl	lcdRect
 292              		.loc 1 193 0
 293 0172 0121     		mov	r1, #1
 294 0174 1820     		mov	r0, #24
 295 0176 FFF7FEFF 		bl	lcdGotoxy
 296              		.loc 1 194 0
 297 017a 0021     		mov	r1, #0
 298 017c 6D20     		mov	r0, #109
 299 017e FFF7FEFF 		bl	lcdColor
 300              		.loc 1 195 0
 301 0182 1048     		ldr	r0, .L31
 302 0184 FFF7FEFF 		bl	lcdPuts
 303              		.loc 1 197 0
 304 0188 2221     		mov	r1, #34
 305 018a 1620     		mov	r0, #22
 306 018c FFF7FEFF 		bl	lcdGotoxy
 307              		.loc 1 198 0
 308 0190 0020     		mov	r0, #0
 309 0192 E021     		mov	r1, #224
 310 0194 FFF7FEFF 		bl	lcdColor
 311              		.loc 1 200 0
 312 0198 042C     		cmp	r4, #4
 313 019a 0ED8     		bhi	.L29
 314 019c 0A4A     		ldr	r2, .L31+4
 315 019e A300     		lsl	r3, r4, #2
 316 01a0 9B58     		ldr	r3, [r3, r2]
 317 01a2 9F46     		mov	pc, r3
 318              		.section	.rodata
 319              		.align	2
 320              		.align	2
 321              	.L28:
 322 0000 A4010000 		.word	.L23
 323 0004 A8010000 		.word	.L24
 324 0008 AC010000 		.word	.L25
 325 000c B0010000 		.word	.L26
 326 0010 B4010000 		.word	.L27
 327              		.text
 328              	.L23:
 329              		.loc 1 202 0
 330 01a4 0948     		ldr	r0, .L31+8
 331 01a6 06E0     		b	.L30
 332              	.L24:
 333              		.loc 1 206 0
 334 01a8 0948     		ldr	r0, .L31+12
 335 01aa 04E0     		b	.L30
 336              	.L25:
 337              		.loc 1 210 0
 338 01ac 0948     		ldr	r0, .L31+16
 339 01ae 02E0     		b	.L30
 340              	.L26:
ARM GAS  /cygdrive/c/DOCUME~1/mkwapisz/LOCALS~1/Temp/cc1VEogw.s 			page 13


 341              		.loc 1 214 0
 342 01b0 0948     		ldr	r0, .L31+20
 343 01b2 00E0     		b	.L30
 344              	.L27:
 345              		.loc 1 218 0
 346 01b4 0948     		ldr	r0, .L31+24
 347              	.L30:
 348 01b6 FFF7FEFF 		bl	lcdPuts
 349              	.L29:
 350              		.loc 1 222 0
 351 01ba 01B0     		add	sp, sp, #4
 352              		@ sp needed for prologue
 353              	.LVL8:
 354 01bc 10BC     		pop	{r4}
 355 01be 01BC     		pop	{r0}
 356 01c0 0047     		bx	r0
 357              	.L32:
 358 01c2 0000     		.align	2
 359              	.L31:
 360 01c4 00000000 		.word	.LC15
 361 01c8 00000000 		.word	.L28
 362 01cc 0C000000 		.word	.LC18
 363 01d0 14000000 		.word	.LC20
 364 01d4 1C000000 		.word	.LC22
 365 01d8 20000000 		.word	.LC24
 366 01dc 2C000000 		.word	.LC26
 367              	.LFE6:
 368              		.size	drawMenu, .-drawMenu
 369              		.global	__modsi3
 370              		.align	2
 371              		.code 16
 372              		.thumb_func
 373              		.type	proc2, %function
 374              	proc2:
 375              	.LFB5:
 376              		.loc 1 125 0
 377 01e0 30B5     		push	{r4, r5, lr}
 378              	.LCFI7:
 379              	.LVL9:
 380              		.loc 1 128 0
 381 01e2 2C4B     		ldr	r3, .L66
 382 01e4 1B78     		ldrb	r3, [r3]
 383 01e6 002B     		cmp	r3, #0
 384 01e8 50D1     		bne	.L54
 385              	.LBB2:
 386              		.loc 1 130 0
 387 01ea 2B49     		ldr	r1, .L66+4
 388 01ec C022     		mov	r2, #192
 389 01ee 0B68     		ldr	r3, [r1]
 390 01f0 D201     		lsl	r2, r2, #7
 391 01f2 1343     		orr	r3, r3, r2
 392 01f4 0B60     		str	r3, [r1]
 393              		.loc 1 131 0
 394 01f6 294B     		ldr	r3, .L66+8
 395 01f8 1A60     		str	r2, [r3]
 396              		.loc 1 133 0
 397 01fa FFF7FEFF 		bl	lcdInit
ARM GAS  /cygdrive/c/DOCUME~1/mkwapisz/LOCALS~1/Temp/cc1VEogw.s 			page 14


 398              	.LVL10:
 399              		.loc 1 134 0
 400 01fe FFF7FEFF 		bl	initKeyProc
 401              		.loc 1 136 0
 402 0202 0020     		mov	r0, #0
 403 0204 FFF79CFF 		bl	drawMenu
 404              		.loc 1 137 0
 405 0208 2E20     		mov	r0, #46
 406 020a FFF7FEFF 		bl	lcdContrast
 407 020e 0025     		mov	r5, #0
 408              	.LVL11:
 409 0210 38E0     		b	.L65
 410              	.LVL12:
 411              	.L37:
 412              	.LBB3:
 413              		.loc 1 142 0
 414 0212 FFF7FEFF 		bl	checkKey
 415 0216 041C     		mov	r4, r0
 416              		.loc 1 143 0
 417 0218 0028     		cmp	r0, #0
 418 021a 33D0     		beq	.L65
 419              	.LVL13:
 420              		.loc 1 144 0
 421 021c 1028     		cmp	r0, #16
 422 021e 31D0     		beq	.L65
 423              		.loc 1 146 0
 424 0220 0228     		cmp	r0, #2
 425 0222 07D1     		bne	.L40
 426              		.loc 1 147 0
 427 0224 0135     		add	r5, r5, #1
 428 0226 0321     		mov	r1, #3
 429 0228 281C     		mov	r0, r5
 430              	.LVL14:
 431 022a FFF7FEFF 		bl	__modsi3
 432 022e FFF787FF 		bl	drawMenu
 433 0232 27E0     		b	.L65
 434              	.LVL15:
 435              	.L40:
 436              		.loc 1 148 0
 437 0234 0828     		cmp	r0, #8
 438 0236 25D0     		beq	.L65
 439              		.loc 1 150 0
 440 0238 0428     		cmp	r0, #4
 441 023a 0CD1     		bne	.L43
 442              		.loc 1 151 0
 443 023c 002D     		cmp	r5, #0
 444 023e 21D1     		bne	.L65
 445              		.loc 1 152 0
 446 0240 1748     		ldr	r0, .L66+12
 447              	.LVL16:
 448 0242 FFF7FEFF 		bl	pf_mount
 449 0246 174B     		ldr	r3, .L66+16
 450 0248 174A     		ldr	r2, .L66+20
 451 024a 1860     		str	r0, [r3]
 452              		.loc 1 153 0
 453 024c 0028     		cmp	r0, #0
 454 024e 0ED0     		beq	.L64
ARM GAS  /cygdrive/c/DOCUME~1/mkwapisz/LOCALS~1/Temp/cc1VEogw.s 			page 15


 455              		.loc 1 157 0
 456 0250 0123     		mov	r3, #1
 457 0252 1360     		str	r3, [r2]
 458 0254 10E0     		b	.L63
 459              	.LVL17:
 460              	.L43:
 461              		.loc 1 162 0
 462 0256 0128     		cmp	r0, #1
 463 0258 14D1     		bne	.L65
 464              		.loc 1 163 0
 465 025a 002D     		cmp	r5, #0
 466 025c 12D1     		bne	.L65
 467              		.loc 1 164 0
 468 025e 1048     		ldr	r0, .L66+12
 469              	.LVL18:
 470 0260 FFF7FEFF 		bl	pf_mount
 471 0264 0F4B     		ldr	r3, .L66+16
 472 0266 104A     		ldr	r2, .L66+20
 473 0268 1860     		str	r0, [r3]
 474              		.loc 1 165 0
 475 026a 0028     		cmp	r0, #0
 476 026c 03D1     		bne	.L51
 477              	.L64:
 478              		.loc 1 166 0
 479 026e 0223     		mov	r3, #2
 480              		.loc 1 167 0
 481 0270 0320     		mov	r0, #3
 482              		.loc 1 166 0
 483 0272 1360     		str	r3, [r2]
 484 0274 01E0     		b	.L61
 485              	.L51:
 486              		.loc 1 169 0
 487 0276 1460     		str	r4, [r2]
 488              	.L63:
 489              		.loc 1 170 0
 490 0278 0420     		mov	r0, #4
 491              	.L61:
 492 027a FFF761FF 		bl	drawMenu
 493              		.loc 1 172 0
 494 027e 054A     		ldr	r2, .L66
 495 0280 0123     		mov	r3, #1
 496 0282 1370     		strb	r3, [r2]
 497              	.LVL19:
 498              	.L65:
 499              	.LBE3:
 500              		.loc 1 139 0
 501 0284 034B     		ldr	r3, .L66
 502 0286 1B78     		ldrb	r3, [r3]
 503 0288 002B     		cmp	r3, #0
 504 028a C2D0     		beq	.L37
 505              	.LVL20:
 506              	.L54:
 507              	.LBE2:
 508              		.loc 1 179 0
 509              		@ sp needed for prologue
 510              	.LVL21:
 511              	.LVL22:
ARM GAS  /cygdrive/c/DOCUME~1/mkwapisz/LOCALS~1/Temp/cc1VEogw.s 			page 16


 512 028c 30BC     		pop	{r4, r5}
 513 028e 01BC     		pop	{r0}
 514 0290 0047     		bx	r0
 515              	.L67:
 516 0292 0000     		.align	2
 517              	.L66:
 518 0294 00000000 		.word	odczytujSD
 519 0298 088002E0 		.word	-536707064
 520 029c 048002E0 		.word	-536707068
 521 02a0 00000000 		.word	fatfs
 522 02a4 00000000 		.word	odpowiedz
 523 02a8 08000000 		.word	kolorDiody
 524              	.LFE5:
 525              		.size	proc2, .-proc2
 526              		.align	2
 527              		.code 16
 528              		.thumb_func
 529              		.type	proc1, %function
 530              	proc1:
 531              	.LFB4:
 532              		.loc 1 121 0
 533 02ac 00B5     		push	{lr}
 534              	.LCFI8:
 535              	.LVL23:
 536              		.loc 1 122 0
 537 02ae FFF7FEFF 		bl	WyswietlTekstNaLcd
 538              	.LVL24:
 539              		.loc 1 123 0
 540              		@ sp needed for prologue
 541 02b2 01BC     		pop	{r0}
 542 02b4 0047     		bx	r0
 543              	.LFE4:
 544              		.size	proc1, .-proc1
 545              		.global	odczytujSD
 546              		.bss
 547              		.type	odczytujSD, %object
 548              		.size	odczytujSD, 1
 549              	odczytujSD:
 550 0000 00       		.space	1
 551              		.global	msClock
 552 0001 000000   		.align	2
 553              		.type	msClock, %object
 554              		.size	msClock, 4
 555              	msClock:
 556 0004 00000000 		.space	4
 557              		.align	2
 558              	kolorDiody:
 559 0008 00000000 		.space	4
 560              	ProceduraGlownaPamiec:
 561 000c 00000000 		.space	400
 561      00000000 
 561      00000000 
 561      00000000 
 561      00000000 
 562              	proc1Stack:
 563 019c 00000000 		.space	2048
 563      00000000 
ARM GAS  /cygdrive/c/DOCUME~1/mkwapisz/LOCALS~1/Temp/cc1VEogw.s 			page 17


 563      00000000 
 563      00000000 
 563      00000000 
 564              	pid1:
 565 099c 00       		.space	1
 566              	proc2Stack:
 567 099d 00000000 		.space	750
 567      00000000 
 567      00000000 
 567      00000000 
 567      00000000 
 568              	pid2:
 569 0c8b 00       		.space	1
 570              	zapalajDiode:
 571 0c8c 00000000 		.space	256
 571      00000000 
 571      00000000 
 571      00000000 
 571      00000000 
 572              	pidZapalajDiode:
 573 0d8c 00       		.space	1
 574              		.comm	fatfs,48,4
 575              		.comm	dir,20,4
 576              		.comm	fno,24,4
 577              		.comm	odpowiedz,4,4
 578 0d8d 000000   		.section	.debug_frame,"",%progbits
 579              	.Lframe0:
 580 0000 0C000000 		.4byte	.LECIE0-.LSCIE0
 581              	.LSCIE0:
 582 0004 FFFFFFFF 		.4byte	0xffffffff
 583 0008 01       		.byte	0x1
 584 0009 00       		.ascii	"\000"
 585 000a 01       		.uleb128 0x1
 586 000b 7C       		.sleb128 -4
 587 000c 0E       		.byte	0xe
 588 000d 0C       		.byte	0xc
 589 000e 0D       		.uleb128 0xd
 590 000f 00       		.uleb128 0x0
 591              		.align	2
 592              	.LECIE0:
 593              	.LSFDE0:
 594 0010 0C000000 		.4byte	.LEFDE0-.LASFDE0
 595              	.LASFDE0:
 596 0014 00000000 		.4byte	.Lframe0
 597 0018 00000000 		.4byte	.LFB12
 598 001c 10000000 		.4byte	.LFE12-.LFB12
 599              		.align	2
 600              	.LEFDE0:
 601              	.LSFDE2:
 602 0020 18000000 		.4byte	.LEFDE2-.LASFDE2
 603              	.LASFDE2:
 604 0024 00000000 		.4byte	.Lframe0
 605 0028 10000000 		.4byte	.LFB2
 606 002c 5C000000 		.4byte	.LFE2-.LFB2
 607 0030 42       		.byte	0x4
 608              		.4byte	.LCFI0-.LFB2
 609 0031 0E       		.byte	0xe
ARM GAS  /cygdrive/c/DOCUME~1/mkwapisz/LOCALS~1/Temp/cc1VEogw.s 			page 18


 610 0032 0C       		.uleb128 0xc
 611 0033 84       		.byte	0x84
 612 0034 03       		.uleb128 0x3
 613 0035 85       		.byte	0x85
 614 0036 02       		.uleb128 0x2
 615 0037 8E       		.byte	0x8e
 616 0038 01       		.uleb128 0x1
 617 0039 4E       		.byte	0x4
 618              		.4byte	.LCFI1-.LCFI0
 619 003a 0E       		.byte	0xe
 620 003b 1C       		.uleb128 0x1c
 621              		.align	2
 622              	.LEFDE2:
 623              	.LSFDE4:
 624 003c 1C000000 		.4byte	.LEFDE4-.LASFDE4
 625              	.LASFDE4:
 626 0040 00000000 		.4byte	.Lframe0
 627 0044 6C000000 		.4byte	.LFB3
 628 0048 C0000000 		.4byte	.LFE3-.LFB3
 629 004c 42       		.byte	0x4
 630              		.4byte	.LCFI2-.LFB3
 631 004d 0E       		.byte	0xe
 632 004e 14       		.uleb128 0x14
 633 004f 84       		.byte	0x84
 634 0050 05       		.uleb128 0x5
 635 0051 85       		.byte	0x85
 636 0052 04       		.uleb128 0x4
 637 0053 86       		.byte	0x86
 638 0054 03       		.uleb128 0x3
 639 0055 87       		.byte	0x87
 640 0056 02       		.uleb128 0x2
 641 0057 8E       		.byte	0x8e
 642 0058 01       		.uleb128 0x1
 643 0059 42       		.byte	0x4
 644              		.4byte	.LCFI3-.LCFI2
 645 005a 0E       		.byte	0xe
 646 005b 24       		.uleb128 0x24
 647              		.align	2
 648              	.LEFDE4:
 649              	.LSFDE6:
 650 005c 14000000 		.4byte	.LEFDE6-.LASFDE6
 651              	.LASFDE6:
 652 0060 00000000 		.4byte	.Lframe0
 653 0064 2C010000 		.4byte	.LFB11
 654 0068 14000000 		.4byte	.LFE11-.LFB11
 655 006c 42       		.byte	0x4
 656              		.4byte	.LCFI4-.LFB11
 657 006d 0E       		.byte	0xe
 658 006e 04       		.uleb128 0x4
 659 006f 8E       		.byte	0x8e
 660 0070 01       		.uleb128 0x1
 661 0071 000000   		.align	2
 662              	.LEFDE6:
 663              	.LSFDE8:
 664 0074 18000000 		.4byte	.LEFDE8-.LASFDE8
 665              	.LASFDE8:
 666 0078 00000000 		.4byte	.Lframe0
ARM GAS  /cygdrive/c/DOCUME~1/mkwapisz/LOCALS~1/Temp/cc1VEogw.s 			page 19


 667 007c 40010000 		.4byte	.LFB6
 668 0080 A0000000 		.4byte	.LFE6-.LFB6
 669 0084 42       		.byte	0x4
 670              		.4byte	.LCFI5-.LFB6
 671 0085 0E       		.byte	0xe
 672 0086 08       		.uleb128 0x8
 673 0087 84       		.byte	0x84
 674 0088 02       		.uleb128 0x2
 675 0089 8E       		.byte	0x8e
 676 008a 01       		.uleb128 0x1
 677 008b 42       		.byte	0x4
 678              		.4byte	.LCFI6-.LCFI5
 679 008c 0E       		.byte	0xe
 680 008d 0C       		.uleb128 0xc
 681 008e 0000     		.align	2
 682              	.LEFDE8:
 683              	.LSFDE10:
 684 0090 18000000 		.4byte	.LEFDE10-.LASFDE10
 685              	.LASFDE10:
 686 0094 00000000 		.4byte	.Lframe0
 687 0098 E0010000 		.4byte	.LFB5
 688 009c CC000000 		.4byte	.LFE5-.LFB5
 689 00a0 42       		.byte	0x4
 690              		.4byte	.LCFI7-.LFB5
 691 00a1 0E       		.byte	0xe
 692 00a2 0C       		.uleb128 0xc
 693 00a3 84       		.byte	0x84
 694 00a4 03       		.uleb128 0x3
 695 00a5 85       		.byte	0x85
 696 00a6 02       		.uleb128 0x2
 697 00a7 8E       		.byte	0x8e
 698 00a8 01       		.uleb128 0x1
 699 00a9 000000   		.align	2
 700              	.LEFDE10:
 701              	.LSFDE12:
 702 00ac 14000000 		.4byte	.LEFDE12-.LASFDE12
 703              	.LASFDE12:
 704 00b0 00000000 		.4byte	.Lframe0
 705 00b4 AC020000 		.4byte	.LFB4
 706 00b8 0A000000 		.4byte	.LFE4-.LFB4
 707 00bc 42       		.byte	0x4
 708              		.4byte	.LCFI8-.LFB4
 709 00bd 0E       		.byte	0xe
 710 00be 04       		.uleb128 0x4
 711 00bf 8E       		.byte	0x8e
 712 00c0 01       		.uleb128 0x1
 713 00c1 000000   		.align	2
 714              	.LEFDE12:
 715              		.file 2 "../pre_emptive_os/api/../api/general.h"
 716              		.file 3 "pff2/src/pff.h"
 717              		.file 4 "pff2/src/integer.h"
 718              		.text
 719              	.Letext0:
 720 02b6 C046     		.section	.debug_loc,"",%progbits
 721              	.Ldebug_loc0:
 722              	.LLST1:
 723 0000 10000000 		.4byte	.LFB2-.Ltext0
ARM GAS  /cygdrive/c/DOCUME~1/mkwapisz/LOCALS~1/Temp/cc1VEogw.s 			page 20


 724 0004 12000000 		.4byte	.LCFI0-.Ltext0
 725 0008 0100     		.2byte	0x1
 726 000a 5D       		.byte	0x5d
 727 000b 12000000 		.4byte	.LCFI0-.Ltext0
 728 000f 20000000 		.4byte	.LCFI1-.Ltext0
 729 0013 0200     		.2byte	0x2
 730 0015 7D       		.byte	0x7d
 731 0016 0C       		.sleb128 12
 732 0017 20000000 		.4byte	.LCFI1-.Ltext0
 733 001b 6C000000 		.4byte	.LFE2-.Ltext0
 734 001f 0200     		.2byte	0x2
 735 0021 7D       		.byte	0x7d
 736 0022 1C       		.sleb128 28
 737 0023 00000000 		.4byte	0x0
 738 0027 00000000 		.4byte	0x0
 739              	.LLST2:
 740 002b 6C000000 		.4byte	.LFB3-.Ltext0
 741 002f 6E000000 		.4byte	.LCFI2-.Ltext0
 742 0033 0100     		.2byte	0x1
 743 0035 5D       		.byte	0x5d
 744 0036 6E000000 		.4byte	.LCFI2-.Ltext0
 745 003a 70000000 		.4byte	.LCFI3-.Ltext0
 746 003e 0200     		.2byte	0x2
 747 0040 7D       		.byte	0x7d
 748 0041 14       		.sleb128 20
 749 0042 70000000 		.4byte	.LCFI3-.Ltext0
 750 0046 2C010000 		.4byte	.LFE3-.Ltext0
 751 004a 0200     		.2byte	0x2
 752 004c 7D       		.byte	0x7d
 753 004d 24       		.sleb128 36
 754 004e 00000000 		.4byte	0x0
 755 0052 00000000 		.4byte	0x0
 756              	.LLST3:
 757 0056 6E000000 		.4byte	.LVL2-.Ltext0
 758 005a 74000000 		.4byte	.LVL3-.Ltext0
 759 005e 0100     		.2byte	0x1
 760 0060 50       		.byte	0x50
 761 0061 00000000 		.4byte	0x0
 762 0065 00000000 		.4byte	0x0
 763              	.LLST4:
 764 0069 2C010000 		.4byte	.LFB11-.Ltext0
 765 006d 2E010000 		.4byte	.LCFI4-.Ltext0
 766 0071 0100     		.2byte	0x1
 767 0073 5D       		.byte	0x5d
 768 0074 2E010000 		.4byte	.LCFI4-.Ltext0
 769 0078 40010000 		.4byte	.LFE11-.Ltext0
 770 007c 0200     		.2byte	0x2
 771 007e 7D       		.byte	0x7d
 772 007f 04       		.sleb128 4
 773 0080 00000000 		.4byte	0x0
 774 0084 00000000 		.4byte	0x0
 775              	.LLST5:
 776 0088 2E010000 		.4byte	.LVL4-.Ltext0
 777 008c 32010000 		.4byte	.LVL5-.Ltext0
 778 0090 0100     		.2byte	0x1
 779 0092 50       		.byte	0x50
 780 0093 00000000 		.4byte	0x0
ARM GAS  /cygdrive/c/DOCUME~1/mkwapisz/LOCALS~1/Temp/cc1VEogw.s 			page 21


 781 0097 00000000 		.4byte	0x0
 782              	.LLST6:
 783 009b 40010000 		.4byte	.LFB6-.Ltext0
 784 009f 42010000 		.4byte	.LCFI5-.Ltext0
 785 00a3 0100     		.2byte	0x1
 786 00a5 5D       		.byte	0x5d
 787 00a6 42010000 		.4byte	.LCFI5-.Ltext0
 788 00aa 44010000 		.4byte	.LCFI6-.Ltext0
 789 00ae 0200     		.2byte	0x2
 790 00b0 7D       		.byte	0x7d
 791 00b1 08       		.sleb128 8
 792 00b2 44010000 		.4byte	.LCFI6-.Ltext0
 793 00b6 E0010000 		.4byte	.LFE6-.Ltext0
 794 00ba 0200     		.2byte	0x2
 795 00bc 7D       		.byte	0x7d
 796 00bd 0C       		.sleb128 12
 797 00be 00000000 		.4byte	0x0
 798 00c2 00000000 		.4byte	0x0
 799              	.LLST7:
 800 00c6 42010000 		.4byte	.LVL6-.Ltext0
 801 00ca 4A010000 		.4byte	.LVL7-.Ltext0
 802 00ce 0100     		.2byte	0x1
 803 00d0 50       		.byte	0x50
 804 00d1 4A010000 		.4byte	.LVL7-.Ltext0
 805 00d5 BC010000 		.4byte	.LVL8-.Ltext0
 806 00d9 0100     		.2byte	0x1
 807 00db 54       		.byte	0x54
 808 00dc 00000000 		.4byte	0x0
 809 00e0 00000000 		.4byte	0x0
 810              	.LLST8:
 811 00e4 E0010000 		.4byte	.LFB5-.Ltext0
 812 00e8 E2010000 		.4byte	.LCFI7-.Ltext0
 813 00ec 0100     		.2byte	0x1
 814 00ee 5D       		.byte	0x5d
 815 00ef E2010000 		.4byte	.LCFI7-.Ltext0
 816 00f3 AC020000 		.4byte	.LFE5-.Ltext0
 817 00f7 0200     		.2byte	0x2
 818 00f9 7D       		.byte	0x7d
 819 00fa 0C       		.sleb128 12
 820 00fb 00000000 		.4byte	0x0
 821 00ff 00000000 		.4byte	0x0
 822              	.LLST9:
 823 0103 E2010000 		.4byte	.LVL9-.Ltext0
 824 0107 FE010000 		.4byte	.LVL10-.Ltext0
 825 010b 0100     		.2byte	0x1
 826 010d 50       		.byte	0x50
 827 010e 8C020000 		.4byte	.LVL20-.Ltext0
 828 0112 AC020000 		.4byte	.LFE5-.Ltext0
 829 0116 0100     		.2byte	0x1
 830 0118 50       		.byte	0x50
 831 0119 00000000 		.4byte	0x0
 832 011d 00000000 		.4byte	0x0
 833              	.LLST10:
 834 0121 10020000 		.4byte	.LVL11-.Ltext0
 835 0125 8C020000 		.4byte	.LVL22-.Ltext0
 836 0129 0100     		.2byte	0x1
 837 012b 55       		.byte	0x55
ARM GAS  /cygdrive/c/DOCUME~1/mkwapisz/LOCALS~1/Temp/cc1VEogw.s 			page 22


 838 012c 00000000 		.4byte	0x0
 839 0130 00000000 		.4byte	0x0
 840              	.LLST11:
 841 0134 12020000 		.4byte	.LVL12-.Ltext0
 842 0138 1C020000 		.4byte	.LVL13-.Ltext0
 843 013c 0100     		.2byte	0x1
 844 013e 54       		.byte	0x54
 845 013f 1C020000 		.4byte	.LVL13-.Ltext0
 846 0143 2A020000 		.4byte	.LVL14-.Ltext0
 847 0147 0100     		.2byte	0x1
 848 0149 50       		.byte	0x50
 849 014a 2A020000 		.4byte	.LVL14-.Ltext0
 850 014e 34020000 		.4byte	.LVL15-.Ltext0
 851 0152 0100     		.2byte	0x1
 852 0154 54       		.byte	0x54
 853 0155 34020000 		.4byte	.LVL15-.Ltext0
 854 0159 42020000 		.4byte	.LVL16-.Ltext0
 855 015d 0100     		.2byte	0x1
 856 015f 50       		.byte	0x50
 857 0160 42020000 		.4byte	.LVL16-.Ltext0
 858 0164 56020000 		.4byte	.LVL17-.Ltext0
 859 0168 0100     		.2byte	0x1
 860 016a 54       		.byte	0x54
 861 016b 56020000 		.4byte	.LVL17-.Ltext0
 862 016f 60020000 		.4byte	.LVL18-.Ltext0
 863 0173 0100     		.2byte	0x1
 864 0175 50       		.byte	0x50
 865 0176 60020000 		.4byte	.LVL18-.Ltext0
 866 017a 8C020000 		.4byte	.LVL21-.Ltext0
 867 017e 0100     		.2byte	0x1
 868 0180 54       		.byte	0x54
 869 0181 8C020000 		.4byte	.LVL21-.Ltext0
 870 0185 AC020000 		.4byte	.LFE5-.Ltext0
 871 0189 0100     		.2byte	0x1
 872 018b 50       		.byte	0x50
 873 018c 00000000 		.4byte	0x0
 874 0190 00000000 		.4byte	0x0
 875              	.LLST12:
 876 0194 AC020000 		.4byte	.LFB4-.Ltext0
 877 0198 AE020000 		.4byte	.LCFI8-.Ltext0
 878 019c 0100     		.2byte	0x1
 879 019e 5D       		.byte	0x5d
 880 019f AE020000 		.4byte	.LCFI8-.Ltext0
 881 01a3 B6020000 		.4byte	.LFE4-.Ltext0
 882 01a7 0200     		.2byte	0x2
 883 01a9 7D       		.byte	0x7d
 884 01aa 04       		.sleb128 4
 885 01ab 00000000 		.4byte	0x0
 886 01af 00000000 		.4byte	0x0
 887              	.LLST13:
 888 01b3 AE020000 		.4byte	.LVL23-.Ltext0
 889 01b7 B2020000 		.4byte	.LVL24-.Ltext0
 890 01bb 0100     		.2byte	0x1
 891 01bd 50       		.byte	0x50
 892 01be 00000000 		.4byte	0x0
 893 01c2 00000000 		.4byte	0x0
 894              		.section	.debug_info
ARM GAS  /cygdrive/c/DOCUME~1/mkwapisz/LOCALS~1/Temp/cc1VEogw.s 			page 23


 895 0000 79050000 		.4byte	0x579
 896 0004 0200     		.2byte	0x2
 897 0006 00000000 		.4byte	.Ldebug_abbrev0
 898 000a 04       		.byte	0x4
 899 000b 01       		.uleb128 0x1
 900 000c 00000000 		.4byte	.Ldebug_line0
 901 0010 B6020000 		.4byte	.Letext0
 902 0014 00000000 		.4byte	.Ltext0
 903 0018 01020000 		.4byte	.LASF75
 904 001c 01       		.byte	0x1
 905 001d 4B010000 		.4byte	.LASF76
 906 0021 6F020000 		.4byte	.LASF77
 907 0025 02       		.uleb128 0x2
 908 0026 74553800 		.ascii	"tU8\000"
 909 002a 02       		.byte	0x2
 910 002b 47       		.byte	0x47
 911 002c 30000000 		.4byte	0x30
 912 0030 03       		.uleb128 0x3
 913 0031 F3010000 		.4byte	.LASF0
 914 0035 01       		.byte	0x1
 915 0036 08       		.byte	0x8
 916 0037 03       		.uleb128 0x3
 917 0038 29010000 		.4byte	.LASF1
 918 003c 02       		.byte	0x2
 919 003d 07       		.byte	0x7
 920 003e 04       		.uleb128 0x4
 921 003f 66010000 		.4byte	.LASF2
 922 0043 02       		.byte	0x2
 923 0044 49       		.byte	0x49
 924 0045 49000000 		.4byte	0x49
 925 0049 03       		.uleb128 0x3
 926 004a FF000000 		.4byte	.LASF3
 927 004e 04       		.byte	0x4
 928 004f 07       		.byte	0x7
 929 0050 03       		.uleb128 0x3
 930 0051 2F000000 		.4byte	.LASF4
 931 0055 01       		.byte	0x1
 932 0056 06       		.byte	0x6
 933 0057 03       		.uleb128 0x3
 934 0058 0D020000 		.4byte	.LASF5
 935 005c 02       		.byte	0x2
 936 005d 05       		.byte	0x5
 937 005e 05       		.uleb128 0x5
 938 005f 696E7400 		.ascii	"int\000"
 939 0063 04       		.byte	0x4
 940 0064 05       		.byte	0x5
 941 0065 03       		.uleb128 0x3
 942 0066 71000000 		.4byte	.LASF6
 943 006a 04       		.byte	0x4
 944 006b 07       		.byte	0x7
 945 006c 06       		.uleb128 0x6
 946 006d 04       		.byte	0x4
 947 006e 04       		.uleb128 0x4
 948 006f F2000000 		.4byte	.LASF7
 949 0073 04       		.byte	0x4
 950 0074 15       		.byte	0x15
 951 0075 30000000 		.4byte	0x30
ARM GAS  /cygdrive/c/DOCUME~1/mkwapisz/LOCALS~1/Temp/cc1VEogw.s 			page 24


 952 0079 04       		.uleb128 0x4
 953 007a AA010000 		.4byte	.LASF8
 954 007e 04       		.byte	0x4
 955 007f 1A       		.byte	0x1a
 956 0080 37000000 		.4byte	0x37
 957 0084 03       		.uleb128 0x3
 958 0085 99000000 		.4byte	.LASF9
 959 0089 04       		.byte	0x4
 960 008a 05       		.byte	0x5
 961 008b 03       		.uleb128 0x3
 962 008c 71000000 		.4byte	.LASF6
 963 0090 04       		.byte	0x4
 964 0091 07       		.byte	0x7
 965 0092 04       		.uleb128 0x4
 966 0093 DB000000 		.4byte	.LASF10
 967 0097 04       		.byte	0x4
 968 0098 20       		.byte	0x20
 969 0099 8B000000 		.4byte	0x8b
 970 009d 07       		.uleb128 0x7
 971 009e 7C010000 		.4byte	0x17c
 972 00a2 4B020000 		.4byte	.LASF26
 973 00a6 30       		.byte	0x30
 974 00a7 03       		.byte	0x3
 975 00a8 4B       		.byte	0x4b
 976 00a9 08       		.uleb128 0x8
 977 00aa 14000000 		.4byte	.LASF11
 978 00ae 03       		.byte	0x3
 979 00af 4C       		.byte	0x4c
 980 00b0 6E000000 		.4byte	0x6e
 981 00b4 02       		.byte	0x2
 982 00b5 23       		.byte	0x23
 983 00b6 00       		.uleb128 0x0
 984 00b7 08       		.uleb128 0x8
 985 00b8 EC000000 		.4byte	.LASF12
 986 00bc 03       		.byte	0x3
 987 00bd 4D       		.byte	0x4d
 988 00be 6E000000 		.4byte	0x6e
 989 00c2 02       		.byte	0x2
 990 00c3 23       		.byte	0x23
 991 00c4 01       		.uleb128 0x1
 992 00c5 08       		.uleb128 0x8
 993 00c6 2A020000 		.4byte	.LASF13
 994 00ca 03       		.byte	0x3
 995 00cb 4E       		.byte	0x4e
 996 00cc 6E000000 		.4byte	0x6e
 997 00d0 02       		.byte	0x2
 998 00d1 23       		.byte	0x23
 999 00d2 02       		.uleb128 0x2
 1000 00d3 08       		.uleb128 0x8
 1001 00d4 1C000000 		.4byte	.LASF14
 1002 00d8 03       		.byte	0x3
 1003 00d9 4F       		.byte	0x4f
 1004 00da 6E000000 		.4byte	0x6e
 1005 00de 02       		.byte	0x2
 1006 00df 23       		.byte	0x23
 1007 00e0 03       		.uleb128 0x3
 1008 00e1 08       		.uleb128 0x8
ARM GAS  /cygdrive/c/DOCUME~1/mkwapisz/LOCALS~1/Temp/cc1VEogw.s 			page 25


 1009 00e2 3B000000 		.4byte	.LASF15
 1010 00e6 03       		.byte	0x3
 1011 00e7 50       		.byte	0x50
 1012 00e8 79000000 		.4byte	0x79
 1013 00ec 02       		.byte	0x2
 1014 00ed 23       		.byte	0x23
 1015 00ee 04       		.uleb128 0x4
 1016 00ef 09       		.uleb128 0x9
 1017 00f0 62756600 		.ascii	"buf\000"
 1018 00f4 03       		.byte	0x3
 1019 00f5 51       		.byte	0x51
 1020 00f6 7C010000 		.4byte	0x17c
 1021 00fa 02       		.byte	0x2
 1022 00fb 23       		.byte	0x23
 1023 00fc 08       		.uleb128 0x8
 1024 00fd 08       		.uleb128 0x8
 1025 00fe A0010000 		.4byte	.LASF16
 1026 0102 03       		.byte	0x3
 1027 0103 52       		.byte	0x52
 1028 0104 92000000 		.4byte	0x92
 1029 0108 02       		.byte	0x2
 1030 0109 23       		.byte	0x23
 1031 010a 0C       		.uleb128 0xc
 1032 010b 08       		.uleb128 0x8
 1033 010c D3000000 		.4byte	.LASF17
 1034 0110 03       		.byte	0x3
 1035 0111 53       		.byte	0x53
 1036 0112 92000000 		.4byte	0x92
 1037 0116 02       		.byte	0x2
 1038 0117 23       		.byte	0x23
 1039 0118 10       		.uleb128 0x10
 1040 0119 08       		.uleb128 0x8
 1041 011a 4F000000 		.4byte	.LASF18
 1042 011e 03       		.byte	0x3
 1043 011f 54       		.byte	0x54
 1044 0120 92000000 		.4byte	0x92
 1045 0124 02       		.byte	0x2
 1046 0125 23       		.byte	0x23
 1047 0126 14       		.uleb128 0x14
 1048 0127 08       		.uleb128 0x8
 1049 0128 90000000 		.4byte	.LASF19
 1050 012c 03       		.byte	0x3
 1051 012d 55       		.byte	0x55
 1052 012e 92000000 		.4byte	0x92
 1053 0132 02       		.byte	0x2
 1054 0133 23       		.byte	0x23
 1055 0134 18       		.uleb128 0x18
 1056 0135 08       		.uleb128 0x8
 1057 0136 9B010000 		.4byte	.LASF20
 1058 013a 03       		.byte	0x3
 1059 013b 56       		.byte	0x56
 1060 013c 92000000 		.4byte	0x92
 1061 0140 02       		.byte	0x2
 1062 0141 23       		.byte	0x23
 1063 0142 1C       		.uleb128 0x1c
 1064 0143 08       		.uleb128 0x8
 1065 0144 83000000 		.4byte	.LASF21
ARM GAS  /cygdrive/c/DOCUME~1/mkwapisz/LOCALS~1/Temp/cc1VEogw.s 			page 26


 1066 0148 03       		.byte	0x3
 1067 0149 57       		.byte	0x57
 1068 014a 92000000 		.4byte	0x92
 1069 014e 02       		.byte	0x2
 1070 014f 23       		.byte	0x23
 1071 0150 20       		.uleb128 0x20
 1072 0151 08       		.uleb128 0x8
 1073 0152 C9000000 		.4byte	.LASF22
 1074 0156 03       		.byte	0x3
 1075 0157 58       		.byte	0x58
 1076 0158 92000000 		.4byte	0x92
 1077 015c 02       		.byte	0x2
 1078 015d 23       		.byte	0x23
 1079 015e 24       		.uleb128 0x24
 1080 015f 08       		.uleb128 0x8
 1081 0160 0C010000 		.4byte	.LASF23
 1082 0164 03       		.byte	0x3
 1083 0165 59       		.byte	0x59
 1084 0166 92000000 		.4byte	0x92
 1085 016a 02       		.byte	0x2
 1086 016b 23       		.byte	0x23
 1087 016c 28       		.uleb128 0x28
 1088 016d 08       		.uleb128 0x8
 1089 016e ED010000 		.4byte	.LASF24
 1090 0172 03       		.byte	0x3
 1091 0173 5A       		.byte	0x5a
 1092 0174 92000000 		.4byte	0x92
 1093 0178 02       		.byte	0x2
 1094 0179 23       		.byte	0x23
 1095 017a 2C       		.uleb128 0x2c
 1096 017b 00       		.byte	0x0
 1097 017c 0A       		.uleb128 0xa
 1098 017d 04       		.byte	0x4
 1099 017e 6E000000 		.4byte	0x6e
 1100 0182 04       		.uleb128 0x4
 1101 0183 76010000 		.4byte	.LASF25
 1102 0187 03       		.byte	0x3
 1103 0188 5B       		.byte	0x5b
 1104 0189 9D000000 		.4byte	0x9d
 1105 018d 07       		.uleb128 0x7
 1106 018e DF010000 		.4byte	0x1df
 1107 0192 2F020000 		.4byte	.LASF27
 1108 0196 14       		.byte	0x14
 1109 0197 03       		.byte	0x3
 1110 0198 61       		.byte	0x61
 1111 0199 08       		.uleb128 0x8
 1112 019a 69020000 		.4byte	.LASF28
 1113 019e 03       		.byte	0x3
 1114 019f 62       		.byte	0x62
 1115 01a0 79000000 		.4byte	0x79
 1116 01a4 02       		.byte	0x2
 1117 01a5 23       		.byte	0x23
 1118 01a6 00       		.uleb128 0x0
 1119 01a7 09       		.uleb128 0x9
 1120 01a8 666E00   		.ascii	"fn\000"
 1121 01ab 03       		.byte	0x3
 1122 01ac 63       		.byte	0x63
ARM GAS  /cygdrive/c/DOCUME~1/mkwapisz/LOCALS~1/Temp/cc1VEogw.s 			page 27


 1123 01ad 7C010000 		.4byte	0x17c
 1124 01b1 02       		.byte	0x2
 1125 01b2 23       		.byte	0x23
 1126 01b3 04       		.uleb128 0x4
 1127 01b4 08       		.uleb128 0x8
 1128 01b5 AF010000 		.4byte	.LASF29
 1129 01b9 03       		.byte	0x3
 1130 01ba 64       		.byte	0x64
 1131 01bb 92000000 		.4byte	0x92
 1132 01bf 02       		.byte	0x2
 1133 01c0 23       		.byte	0x23
 1134 01c1 08       		.uleb128 0x8
 1135 01c2 08       		.uleb128 0x8
 1136 01c3 FA020000 		.4byte	.LASF30
 1137 01c7 03       		.byte	0x3
 1138 01c8 65       		.byte	0x65
 1139 01c9 92000000 		.4byte	0x92
 1140 01cd 02       		.byte	0x2
 1141 01ce 23       		.byte	0x23
 1142 01cf 0C       		.uleb128 0xc
 1143 01d0 08       		.uleb128 0x8
 1144 01d1 71010000 		.4byte	.LASF31
 1145 01d5 03       		.byte	0x3
 1146 01d6 66       		.byte	0x66
 1147 01d7 92000000 		.4byte	0x92
 1148 01db 02       		.byte	0x2
 1149 01dc 23       		.byte	0x23
 1150 01dd 10       		.uleb128 0x10
 1151 01de 00       		.byte	0x0
 1152 01df 02       		.uleb128 0x2
 1153 01e0 44495200 		.ascii	"DIR\000"
 1154 01e4 03       		.byte	0x3
 1155 01e5 67       		.byte	0x67
 1156 01e6 8D010000 		.4byte	0x18d
 1157 01ea 07       		.uleb128 0x7
 1158 01eb 3D020000 		.4byte	0x23d
 1159 01ef 57000000 		.4byte	.LASF32
 1160 01f3 18       		.byte	0x18
 1161 01f4 03       		.byte	0x3
 1162 01f5 6D       		.byte	0x6d
 1163 01f6 08       		.uleb128 0x8
 1164 01f7 83000000 		.4byte	.LASF21
 1165 01fb 03       		.byte	0x3
 1166 01fc 6E       		.byte	0x6e
 1167 01fd 92000000 		.4byte	0x92
 1168 0201 02       		.byte	0x2
 1169 0202 23       		.byte	0x23
 1170 0203 00       		.uleb128 0x0
 1171 0204 08       		.uleb128 0x8
 1172 0205 7C010000 		.4byte	.LASF33
 1173 0209 03       		.byte	0x3
 1174 020a 6F       		.byte	0x6f
 1175 020b 79000000 		.4byte	0x79
 1176 020f 02       		.byte	0x2
 1177 0210 23       		.byte	0x23
 1178 0211 04       		.uleb128 0x4
 1179 0212 08       		.uleb128 0x8
ARM GAS  /cygdrive/c/DOCUME~1/mkwapisz/LOCALS~1/Temp/cc1VEogw.s 			page 28


 1180 0213 17010000 		.4byte	.LASF34
 1181 0217 03       		.byte	0x3
 1182 0218 70       		.byte	0x70
 1183 0219 79000000 		.4byte	0x79
 1184 021d 02       		.byte	0x2
 1185 021e 23       		.byte	0x23
 1186 021f 06       		.uleb128 0x6
 1187 0220 08       		.uleb128 0x8
 1188 0221 AF020000 		.4byte	.LASF35
 1189 0225 03       		.byte	0x3
 1190 0226 71       		.byte	0x71
 1191 0227 6E000000 		.4byte	0x6e
 1192 022b 02       		.byte	0x2
 1193 022c 23       		.byte	0x23
 1194 022d 08       		.uleb128 0x8
 1195 022e 08       		.uleb128 0x8
 1196 022f 6B010000 		.4byte	.LASF36
 1197 0233 03       		.byte	0x3
 1198 0234 72       		.byte	0x72
 1199 0235 3D020000 		.4byte	0x23d
 1200 0239 02       		.byte	0x2
 1201 023a 23       		.byte	0x23
 1202 023b 09       		.uleb128 0x9
 1203 023c 00       		.byte	0x0
 1204 023d 0B       		.uleb128 0xb
 1205 023e 4D020000 		.4byte	0x24d
 1206 0242 4D020000 		.4byte	0x24d
 1207 0246 0C       		.uleb128 0xc
 1208 0247 65000000 		.4byte	0x65
 1209 024b 0C       		.byte	0xc
 1210 024c 00       		.byte	0x0
 1211 024d 03       		.uleb128 0x3
 1212 024e 46020000 		.4byte	.LASF37
 1213 0252 01       		.byte	0x1
 1214 0253 08       		.byte	0x8
 1215 0254 04       		.uleb128 0x4
 1216 0255 C6020000 		.4byte	.LASF38
 1217 0259 03       		.byte	0x3
 1218 025a 73       		.byte	0x73
 1219 025b EA010000 		.4byte	0x1ea
 1220 025f 0D       		.uleb128 0xd
 1221 0260 98020000 		.4byte	0x298
 1222 0264 04       		.byte	0x4
 1223 0265 03       		.byte	0x3
 1224 0266 79       		.byte	0x79
 1225 0267 0E       		.uleb128 0xe
 1226 0268 63020000 		.4byte	.LASF39
 1227 026c 00       		.sleb128 0
 1228 026d 0E       		.uleb128 0xe
 1229 026e 52010000 		.4byte	.LASF40
 1230 0272 01       		.sleb128 1
 1231 0273 0E       		.uleb128 0xe
 1232 0274 00000000 		.4byte	.LASF41
 1233 0278 02       		.sleb128 2
 1234 0279 0E       		.uleb128 0xe
 1235 027a B6010000 		.4byte	.LASF42
 1236 027e 03       		.sleb128 3
ARM GAS  /cygdrive/c/DOCUME~1/mkwapisz/LOCALS~1/Temp/cc1VEogw.s 			page 29


 1237 027f 0E       		.uleb128 0xe
 1238 0280 EA020000 		.4byte	.LASF43
 1239 0284 04       		.sleb128 4
 1240 0285 0E       		.uleb128 0xe
 1241 0286 8D010000 		.4byte	.LASF44
 1242 028a 05       		.sleb128 5
 1243 028b 0E       		.uleb128 0xe
 1244 028c C7010000 		.4byte	.LASF45
 1245 0290 06       		.sleb128 6
 1246 0291 0E       		.uleb128 0xe
 1247 0292 B8000000 		.4byte	.LASF46
 1248 0296 07       		.sleb128 7
 1249 0297 00       		.byte	0x0
 1250 0298 04       		.uleb128 0x4
 1251 0299 D7020000 		.4byte	.LASF47
 1252 029d 03       		.byte	0x3
 1253 029e 82       		.byte	0x82
 1254 029f 5F020000 		.4byte	0x25f
 1255 02a3 0F       		.uleb128 0xf
 1256 02a4 CA020000 		.4byte	0x2ca
 1257 02a8 01       		.byte	0x1
 1258 02a9 5E010000 		.4byte	.LASF48
 1259 02ad 01       		.byte	0x1
 1260 02ae 4901     		.2byte	0x149
 1261 02b0 01       		.byte	0x1
 1262 02b1 00000000 		.4byte	.LFB12
 1263 02b5 10000000 		.4byte	.LFE12
 1264 02b9 01       		.byte	0x1
 1265 02ba 5D       		.byte	0x5d
 1266 02bb 10       		.uleb128 0x10
 1267 02bc D6010000 		.4byte	.LASF51
 1268 02c0 01       		.byte	0x1
 1269 02c1 4901     		.2byte	0x149
 1270 02c3 3E000000 		.4byte	0x3e
 1271 02c7 01       		.byte	0x1
 1272 02c8 50       		.byte	0x50
 1273 02c9 00       		.byte	0x0
 1274 02ca 11       		.uleb128 0x11
 1275 02cb 04030000 		.4byte	0x304
 1276 02cf 01       		.byte	0x1
 1277 02d0 F5020000 		.4byte	.LASF49
 1278 02d4 01       		.byte	0x1
 1279 02d5 44       		.byte	0x44
 1280 02d6 01       		.byte	0x1
 1281 02d7 5E000000 		.4byte	0x5e
 1282 02db 10000000 		.4byte	.LFB2
 1283 02df 6C000000 		.4byte	.LFE2
 1284 02e3 00000000 		.4byte	.LLST1
 1285 02e7 12       		.uleb128 0x12
 1286 02e8 35020000 		.4byte	.LASF50
 1287 02ec 01       		.byte	0x1
 1288 02ed 45       		.byte	0x45
 1289 02ee 25000000 		.4byte	0x25
 1290 02f2 02       		.byte	0x2
 1291 02f3 91       		.byte	0x91
 1292 02f4 73       		.sleb128 -13
 1293 02f5 13       		.uleb128 0x13
ARM GAS  /cygdrive/c/DOCUME~1/mkwapisz/LOCALS~1/Temp/cc1VEogw.s 			page 30


 1294 02f6 70696400 		.ascii	"pid\000"
 1295 02fa 01       		.byte	0x1
 1296 02fb 46       		.byte	0x46
 1297 02fc 25000000 		.4byte	0x25
 1298 0300 02       		.byte	0x2
 1299 0301 75       		.byte	0x75
 1300 0302 00       		.sleb128 0
 1301 0303 00       		.byte	0x0
 1302 0304 14       		.uleb128 0x14
 1303 0305 3A030000 		.4byte	0x33a
 1304 0309 61000000 		.4byte	.LASF52
 1305 030d 01       		.byte	0x1
 1306 030e 59       		.byte	0x59
 1307 030f 01       		.byte	0x1
 1308 0310 6C000000 		.4byte	.LFB3
 1309 0314 2C010000 		.4byte	.LFE3
 1310 0318 2B000000 		.4byte	.LLST2
 1311 031c 15       		.uleb128 0x15
 1312 031d 61726700 		.ascii	"arg\000"
 1313 0321 01       		.byte	0x1
 1314 0322 59       		.byte	0x59
 1315 0323 6C000000 		.4byte	0x6c
 1316 0327 56000000 		.4byte	.LLST3
 1317 032b 12       		.uleb128 0x12
 1318 032c 35020000 		.4byte	.LASF50
 1319 0330 01       		.byte	0x1
 1320 0331 5A       		.byte	0x5a
 1321 0332 25000000 		.4byte	0x25
 1322 0336 02       		.byte	0x2
 1323 0337 91       		.byte	0x91
 1324 0338 6B       		.sleb128 -21
 1325 0339 00       		.byte	0x0
 1326 033a 16       		.uleb128 0x16
 1327 033b 64030000 		.4byte	0x364
 1328 033f 17020000 		.4byte	.LASF53
 1329 0343 01       		.byte	0x1
 1330 0344 3901     		.2byte	0x139
 1331 0346 01       		.byte	0x1
 1332 0347 2C010000 		.4byte	.LFB11
 1333 034b 40010000 		.4byte	.LFE11
 1334 034f 69000000 		.4byte	.LLST4
 1335 0353 17       		.uleb128 0x17
 1336 0354 61726700 		.ascii	"arg\000"
 1337 0358 01       		.byte	0x1
 1338 0359 3901     		.2byte	0x139
 1339 035b 6C000000 		.4byte	0x6c
 1340 035f 88000000 		.4byte	.LLST5
 1341 0363 00       		.byte	0x0
 1342 0364 14       		.uleb128 0x14
 1343 0365 8C030000 		.4byte	0x38c
 1344 0369 CE020000 		.4byte	.LASF54
 1345 036d 01       		.byte	0x1
 1346 036e BA       		.byte	0xba
 1347 036f 01       		.byte	0x1
 1348 0370 40010000 		.4byte	.LFB6
 1349 0374 E0010000 		.4byte	.LFE6
 1350 0378 9B000000 		.4byte	.LLST6
ARM GAS  /cygdrive/c/DOCUME~1/mkwapisz/LOCALS~1/Temp/cc1VEogw.s 			page 31


 1351 037c 18       		.uleb128 0x18
 1352 037d 89000000 		.4byte	.LASF55
 1353 0381 01       		.byte	0x1
 1354 0382 BA       		.byte	0xba
 1355 0383 5E000000 		.4byte	0x5e
 1356 0387 C6000000 		.4byte	.LLST7
 1357 038b 00       		.byte	0x0
 1358 038c 14       		.uleb128 0x14
 1359 038d F1030000 		.4byte	0x3f1
 1360 0391 23010000 		.4byte	.LASF56
 1361 0395 01       		.byte	0x1
 1362 0396 7D       		.byte	0x7d
 1363 0397 01       		.byte	0x1
 1364 0398 E0010000 		.4byte	.LFB5
 1365 039c AC020000 		.4byte	.LFE5
 1366 03a0 E4000000 		.4byte	.LLST8
 1367 03a4 15       		.uleb128 0x15
 1368 03a5 61726700 		.ascii	"arg\000"
 1369 03a9 01       		.byte	0x1
 1370 03aa 7D       		.byte	0x7d
 1371 03ab 6C000000 		.4byte	0x6c
 1372 03af 03010000 		.4byte	.LLST9
 1373 03b3 19       		.uleb128 0x19
 1374 03b4 35020000 		.4byte	.LASF50
 1375 03b8 01       		.byte	0x1
 1376 03b9 7E       		.byte	0x7e
 1377 03ba 25000000 		.4byte	0x25
 1378 03be 1A       		.uleb128 0x1a
 1379 03bf EA010000 		.4byte	.LBB2
 1380 03c3 8C020000 		.4byte	.LBE2
 1381 03c7 1B       		.uleb128 0x1b
 1382 03c8 C0020000 		.4byte	.LASF57
 1383 03cc 01       		.byte	0x1
 1384 03cd 87       		.byte	0x87
 1385 03ce 5E000000 		.4byte	0x5e
 1386 03d2 21010000 		.4byte	.LLST10
 1387 03d6 1A       		.uleb128 0x1a
 1388 03d7 12020000 		.4byte	.LBB3
 1389 03db 84020000 		.4byte	.LBE3
 1390 03df 1B       		.uleb128 0x1b
 1391 03e0 0D000000 		.4byte	.LASF58
 1392 03e4 01       		.byte	0x1
 1393 03e5 8C       		.byte	0x8c
 1394 03e6 25000000 		.4byte	0x25
 1395 03ea 34010000 		.4byte	.LLST11
 1396 03ee 00       		.byte	0x0
 1397 03ef 00       		.byte	0x0
 1398 03f0 00       		.byte	0x0
 1399 03f1 14       		.uleb128 0x14
 1400 03f2 19040000 		.4byte	0x419
 1401 03f6 1D010000 		.4byte	.LASF59
 1402 03fa 01       		.byte	0x1
 1403 03fb 79       		.byte	0x79
 1404 03fc 01       		.byte	0x1
 1405 03fd AC020000 		.4byte	.LFB4
 1406 0401 B6020000 		.4byte	.LFE4
 1407 0405 94010000 		.4byte	.LLST12
ARM GAS  /cygdrive/c/DOCUME~1/mkwapisz/LOCALS~1/Temp/cc1VEogw.s 			page 32


 1408 0409 15       		.uleb128 0x15
 1409 040a 61726700 		.ascii	"arg\000"
 1410 040e 01       		.byte	0x1
 1411 040f 79       		.byte	0x79
 1412 0410 6C000000 		.4byte	0x6c
 1413 0414 B3010000 		.4byte	.LLST13
 1414 0418 00       		.byte	0x0
 1415 0419 0B       		.uleb128 0xb
 1416 041a 2A040000 		.4byte	0x42a
 1417 041e 25000000 		.4byte	0x25
 1418 0422 1C       		.uleb128 0x1c
 1419 0423 65000000 		.4byte	0x65
 1420 0427 8F01     		.2byte	0x18f
 1421 0429 00       		.byte	0x0
 1422 042a 12       		.uleb128 0x12
 1423 042b A2000000 		.4byte	.LASF60
 1424 042f 01       		.byte	0x1
 1425 0430 13       		.byte	0x13
 1426 0431 19040000 		.4byte	0x419
 1427 0435 05       		.byte	0x5
 1428 0436 03       		.byte	0x3
 1429 0437 0C000000 		.4byte	ProceduraGlownaPamiec
 1430 043b 0B       		.uleb128 0xb
 1431 043c 4C040000 		.4byte	0x44c
 1432 0440 25000000 		.4byte	0x25
 1433 0444 1C       		.uleb128 0x1c
 1434 0445 65000000 		.4byte	0x65
 1435 0449 FF07     		.2byte	0x7ff
 1436 044b 00       		.byte	0x0
 1437 044c 12       		.uleb128 0x12
 1438 044d DF020000 		.4byte	.LASF61
 1439 0451 01       		.byte	0x1
 1440 0452 17       		.byte	0x17
 1441 0453 3B040000 		.4byte	0x43b
 1442 0457 05       		.byte	0x5
 1443 0458 03       		.byte	0x3
 1444 0459 9C010000 		.4byte	proc1Stack
 1445 045d 12       		.uleb128 0x12
 1446 045e 3C010000 		.4byte	.LASF62
 1447 0462 01       		.byte	0x1
 1448 0463 18       		.byte	0x18
 1449 0464 25000000 		.4byte	0x25
 1450 0468 05       		.byte	0x5
 1451 0469 03       		.byte	0x3
 1452 046a 9C090000 		.4byte	pid1
 1453 046e 0B       		.uleb128 0xb
 1454 046f 7F040000 		.4byte	0x47f
 1455 0473 25000000 		.4byte	0x25
 1456 0477 1C       		.uleb128 0x1c
 1457 0478 65000000 		.4byte	0x65
 1458 047c ED02     		.2byte	0x2ed
 1459 047e 00       		.byte	0x0
 1460 047f 12       		.uleb128 0x12
 1461 0480 3B020000 		.4byte	.LASF63
 1462 0484 01       		.byte	0x1
 1463 0485 1C       		.byte	0x1c
 1464 0486 6E040000 		.4byte	0x46e
ARM GAS  /cygdrive/c/DOCUME~1/mkwapisz/LOCALS~1/Temp/cc1VEogw.s 			page 33


 1465 048a 05       		.byte	0x5
 1466 048b 03       		.byte	0x3
 1467 048c 9D090000 		.4byte	proc2Stack
 1468 0490 12       		.uleb128 0x12
 1469 0491 41010000 		.4byte	.LASF64
 1470 0495 01       		.byte	0x1
 1471 0496 1D       		.byte	0x1d
 1472 0497 25000000 		.4byte	0x25
 1473 049b 05       		.byte	0x5
 1474 049c 03       		.byte	0x3
 1475 049d 8B0C0000 		.4byte	pid2
 1476 04a1 19       		.uleb128 0x19
 1477 04a2 82010000 		.4byte	.LASF65
 1478 04a6 01       		.byte	0x1
 1479 04a7 21       		.byte	0x21
 1480 04a8 3B040000 		.4byte	0x43b
 1481 04ac 19       		.uleb128 0x19
 1482 04ad 46010000 		.4byte	.LASF66
 1483 04b1 01       		.byte	0x1
 1484 04b2 22       		.byte	0x22
 1485 04b3 25000000 		.4byte	0x25
 1486 04b7 0B       		.uleb128 0xb
 1487 04b8 C7040000 		.4byte	0x4c7
 1488 04bc 25000000 		.4byte	0x25
 1489 04c0 0C       		.uleb128 0xc
 1490 04c1 65000000 		.4byte	0x65
 1491 04c5 FF       		.byte	0xff
 1492 04c6 00       		.byte	0x0
 1493 04c7 12       		.uleb128 0x12
 1494 04c8 22000000 		.4byte	.LASF67
 1495 04cc 01       		.byte	0x1
 1496 04cd 26       		.byte	0x26
 1497 04ce B7040000 		.4byte	0x4b7
 1498 04d2 05       		.byte	0x5
 1499 04d3 03       		.byte	0x3
 1500 04d4 8C0C0000 		.4byte	zapalajDiode
 1501 04d8 12       		.uleb128 0x12
 1502 04d9 53020000 		.4byte	.LASF68
 1503 04dd 01       		.byte	0x1
 1504 04de 27       		.byte	0x27
 1505 04df 25000000 		.4byte	0x25
 1506 04e3 05       		.byte	0x5
 1507 04e4 03       		.byte	0x3
 1508 04e5 8C0D0000 		.4byte	pidZapalajDiode
 1509 04e9 1D       		.uleb128 0x1d
 1510 04ea B7020000 		.4byte	.LASF69
 1511 04ee 01       		.byte	0x1
 1512 04ef 29       		.byte	0x29
 1513 04f0 F5040000 		.4byte	0x4f5
 1514 04f4 2E       		.byte	0x2e
 1515 04f5 1E       		.uleb128 0x1e
 1516 04f6 25000000 		.4byte	0x25
 1517 04fa 12       		.uleb128 0x12
 1518 04fb E2010000 		.4byte	.LASF70
 1519 04ff 01       		.byte	0x1
 1520 0500 38       		.byte	0x38
 1521 0501 5E000000 		.4byte	0x5e
ARM GAS  /cygdrive/c/DOCUME~1/mkwapisz/LOCALS~1/Temp/cc1VEogw.s 			page 34


 1522 0505 05       		.byte	0x5
 1523 0506 03       		.byte	0x3
 1524 0507 08000000 		.4byte	kolorDiody
 1525 050b 1F       		.uleb128 0x1f
 1526 050c E1000000 		.4byte	.LASF71
 1527 0510 01       		.byte	0x1
 1528 0511 2A       		.byte	0x2a
 1529 0512 25000000 		.4byte	0x25
 1530 0516 01       		.byte	0x1
 1531 0517 05       		.byte	0x5
 1532 0518 03       		.byte	0x3
 1533 0519 00000000 		.4byte	odczytujSD
 1534 051d 1F       		.uleb128 0x1f
 1535 051e F7000000 		.4byte	.LASF72
 1536 0522 01       		.byte	0x1
 1537 0523 31       		.byte	0x31
 1538 0524 2F050000 		.4byte	0x52f
 1539 0528 01       		.byte	0x1
 1540 0529 05       		.byte	0x5
 1541 052a 03       		.byte	0x3
 1542 052b 00000000 		.4byte	msClock
 1543 052f 20       		.uleb128 0x20
 1544 0530 3E000000 		.4byte	0x3e
 1545 0534 1F       		.uleb128 0x1f
 1546 0535 C1010000 		.4byte	.LASF73
 1547 0539 01       		.byte	0x1
 1548 053a 3B       		.byte	0x3b
 1549 053b 82010000 		.4byte	0x182
 1550 053f 01       		.byte	0x1
 1551 0540 05       		.byte	0x5
 1552 0541 03       		.byte	0x3
 1553 0542 00000000 		.4byte	fatfs
 1554 0546 21       		.uleb128 0x21
 1555 0547 64697200 		.ascii	"dir\000"
 1556 054b 01       		.byte	0x1
 1557 054c 3C       		.byte	0x3c
 1558 054d DF010000 		.4byte	0x1df
 1559 0551 01       		.byte	0x1
 1560 0552 05       		.byte	0x5
 1561 0553 03       		.byte	0x3
 1562 0554 00000000 		.4byte	dir
 1563 0558 21       		.uleb128 0x21
 1564 0559 666E6F00 		.ascii	"fno\000"
 1565 055d 01       		.byte	0x1
 1566 055e 3D       		.byte	0x3d
 1567 055f 54020000 		.4byte	0x254
 1568 0563 01       		.byte	0x1
 1569 0564 05       		.byte	0x5
 1570 0565 03       		.byte	0x3
 1571 0566 00000000 		.4byte	fno
 1572 056a 1F       		.uleb128 0x1f
 1573 056b 45000000 		.4byte	.LASF74
 1574 056f 01       		.byte	0x1
 1575 0570 3E       		.byte	0x3e
 1576 0571 98020000 		.4byte	0x298
 1577 0575 01       		.byte	0x1
 1578 0576 05       		.byte	0x5
ARM GAS  /cygdrive/c/DOCUME~1/mkwapisz/LOCALS~1/Temp/cc1VEogw.s 			page 35


 1579 0577 03       		.byte	0x3
 1580 0578 00000000 		.4byte	odpowiedz
 1581 057c 00       		.byte	0x0
 1582              		.section	.debug_abbrev
 1583 0000 01       		.uleb128 0x1
 1584 0001 11       		.uleb128 0x11
 1585 0002 01       		.byte	0x1
 1586 0003 10       		.uleb128 0x10
 1587 0004 06       		.uleb128 0x6
 1588 0005 12       		.uleb128 0x12
 1589 0006 01       		.uleb128 0x1
 1590 0007 11       		.uleb128 0x11
 1591 0008 01       		.uleb128 0x1
 1592 0009 25       		.uleb128 0x25
 1593 000a 0E       		.uleb128 0xe
 1594 000b 13       		.uleb128 0x13
 1595 000c 0B       		.uleb128 0xb
 1596 000d 03       		.uleb128 0x3
 1597 000e 0E       		.uleb128 0xe
 1598 000f 1B       		.uleb128 0x1b
 1599 0010 0E       		.uleb128 0xe
 1600 0011 00       		.byte	0x0
 1601 0012 00       		.byte	0x0
 1602 0013 02       		.uleb128 0x2
 1603 0014 16       		.uleb128 0x16
 1604 0015 00       		.byte	0x0
 1605 0016 03       		.uleb128 0x3
 1606 0017 08       		.uleb128 0x8
 1607 0018 3A       		.uleb128 0x3a
 1608 0019 0B       		.uleb128 0xb
 1609 001a 3B       		.uleb128 0x3b
 1610 001b 0B       		.uleb128 0xb
 1611 001c 49       		.uleb128 0x49
 1612 001d 13       		.uleb128 0x13
 1613 001e 00       		.byte	0x0
 1614 001f 00       		.byte	0x0
 1615 0020 03       		.uleb128 0x3
 1616 0021 24       		.uleb128 0x24
 1617 0022 00       		.byte	0x0
 1618 0023 03       		.uleb128 0x3
 1619 0024 0E       		.uleb128 0xe
 1620 0025 0B       		.uleb128 0xb
 1621 0026 0B       		.uleb128 0xb
 1622 0027 3E       		.uleb128 0x3e
 1623 0028 0B       		.uleb128 0xb
 1624 0029 00       		.byte	0x0
 1625 002a 00       		.byte	0x0
 1626 002b 04       		.uleb128 0x4
 1627 002c 16       		.uleb128 0x16
 1628 002d 00       		.byte	0x0
 1629 002e 03       		.uleb128 0x3
 1630 002f 0E       		.uleb128 0xe
 1631 0030 3A       		.uleb128 0x3a
 1632 0031 0B       		.uleb128 0xb
 1633 0032 3B       		.uleb128 0x3b
 1634 0033 0B       		.uleb128 0xb
 1635 0034 49       		.uleb128 0x49
ARM GAS  /cygdrive/c/DOCUME~1/mkwapisz/LOCALS~1/Temp/cc1VEogw.s 			page 36


 1636 0035 13       		.uleb128 0x13
 1637 0036 00       		.byte	0x0
 1638 0037 00       		.byte	0x0
 1639 0038 05       		.uleb128 0x5
 1640 0039 24       		.uleb128 0x24
 1641 003a 00       		.byte	0x0
 1642 003b 03       		.uleb128 0x3
 1643 003c 08       		.uleb128 0x8
 1644 003d 0B       		.uleb128 0xb
 1645 003e 0B       		.uleb128 0xb
 1646 003f 3E       		.uleb128 0x3e
 1647 0040 0B       		.uleb128 0xb
 1648 0041 00       		.byte	0x0
 1649 0042 00       		.byte	0x0
 1650 0043 06       		.uleb128 0x6
 1651 0044 0F       		.uleb128 0xf
 1652 0045 00       		.byte	0x0
 1653 0046 0B       		.uleb128 0xb
 1654 0047 0B       		.uleb128 0xb
 1655 0048 00       		.byte	0x0
 1656 0049 00       		.byte	0x0
 1657 004a 07       		.uleb128 0x7
 1658 004b 13       		.uleb128 0x13
 1659 004c 01       		.byte	0x1
 1660 004d 01       		.uleb128 0x1
 1661 004e 13       		.uleb128 0x13
 1662 004f 03       		.uleb128 0x3
 1663 0050 0E       		.uleb128 0xe
 1664 0051 0B       		.uleb128 0xb
 1665 0052 0B       		.uleb128 0xb
 1666 0053 3A       		.uleb128 0x3a
 1667 0054 0B       		.uleb128 0xb
 1668 0055 3B       		.uleb128 0x3b
 1669 0056 0B       		.uleb128 0xb
 1670 0057 00       		.byte	0x0
 1671 0058 00       		.byte	0x0
 1672 0059 08       		.uleb128 0x8
 1673 005a 0D       		.uleb128 0xd
 1674 005b 00       		.byte	0x0
 1675 005c 03       		.uleb128 0x3
 1676 005d 0E       		.uleb128 0xe
 1677 005e 3A       		.uleb128 0x3a
 1678 005f 0B       		.uleb128 0xb
 1679 0060 3B       		.uleb128 0x3b
 1680 0061 0B       		.uleb128 0xb
 1681 0062 49       		.uleb128 0x49
 1682 0063 13       		.uleb128 0x13
 1683 0064 38       		.uleb128 0x38
 1684 0065 0A       		.uleb128 0xa
 1685 0066 00       		.byte	0x0
 1686 0067 00       		.byte	0x0
 1687 0068 09       		.uleb128 0x9
 1688 0069 0D       		.uleb128 0xd
 1689 006a 00       		.byte	0x0
 1690 006b 03       		.uleb128 0x3
 1691 006c 08       		.uleb128 0x8
 1692 006d 3A       		.uleb128 0x3a
ARM GAS  /cygdrive/c/DOCUME~1/mkwapisz/LOCALS~1/Temp/cc1VEogw.s 			page 37


 1693 006e 0B       		.uleb128 0xb
 1694 006f 3B       		.uleb128 0x3b
 1695 0070 0B       		.uleb128 0xb
 1696 0071 49       		.uleb128 0x49
 1697 0072 13       		.uleb128 0x13
 1698 0073 38       		.uleb128 0x38
 1699 0074 0A       		.uleb128 0xa
 1700 0075 00       		.byte	0x0
 1701 0076 00       		.byte	0x0
 1702 0077 0A       		.uleb128 0xa
 1703 0078 0F       		.uleb128 0xf
 1704 0079 00       		.byte	0x0
 1705 007a 0B       		.uleb128 0xb
 1706 007b 0B       		.uleb128 0xb
 1707 007c 49       		.uleb128 0x49
 1708 007d 13       		.uleb128 0x13
 1709 007e 00       		.byte	0x0
 1710 007f 00       		.byte	0x0
 1711 0080 0B       		.uleb128 0xb
 1712 0081 01       		.uleb128 0x1
 1713 0082 01       		.byte	0x1
 1714 0083 01       		.uleb128 0x1
 1715 0084 13       		.uleb128 0x13
 1716 0085 49       		.uleb128 0x49
 1717 0086 13       		.uleb128 0x13
 1718 0087 00       		.byte	0x0
 1719 0088 00       		.byte	0x0
 1720 0089 0C       		.uleb128 0xc
 1721 008a 21       		.uleb128 0x21
 1722 008b 00       		.byte	0x0
 1723 008c 49       		.uleb128 0x49
 1724 008d 13       		.uleb128 0x13
 1725 008e 2F       		.uleb128 0x2f
 1726 008f 0B       		.uleb128 0xb
 1727 0090 00       		.byte	0x0
 1728 0091 00       		.byte	0x0
 1729 0092 0D       		.uleb128 0xd
 1730 0093 04       		.uleb128 0x4
 1731 0094 01       		.byte	0x1
 1732 0095 01       		.uleb128 0x1
 1733 0096 13       		.uleb128 0x13
 1734 0097 0B       		.uleb128 0xb
 1735 0098 0B       		.uleb128 0xb
 1736 0099 3A       		.uleb128 0x3a
 1737 009a 0B       		.uleb128 0xb
 1738 009b 3B       		.uleb128 0x3b
 1739 009c 0B       		.uleb128 0xb
 1740 009d 00       		.byte	0x0
 1741 009e 00       		.byte	0x0
 1742 009f 0E       		.uleb128 0xe
 1743 00a0 28       		.uleb128 0x28
 1744 00a1 00       		.byte	0x0
 1745 00a2 03       		.uleb128 0x3
 1746 00a3 0E       		.uleb128 0xe
 1747 00a4 1C       		.uleb128 0x1c
 1748 00a5 0D       		.uleb128 0xd
 1749 00a6 00       		.byte	0x0
ARM GAS  /cygdrive/c/DOCUME~1/mkwapisz/LOCALS~1/Temp/cc1VEogw.s 			page 38


 1750 00a7 00       		.byte	0x0
 1751 00a8 0F       		.uleb128 0xf
 1752 00a9 2E       		.uleb128 0x2e
 1753 00aa 01       		.byte	0x1
 1754 00ab 01       		.uleb128 0x1
 1755 00ac 13       		.uleb128 0x13
 1756 00ad 3F       		.uleb128 0x3f
 1757 00ae 0C       		.uleb128 0xc
 1758 00af 03       		.uleb128 0x3
 1759 00b0 0E       		.uleb128 0xe
 1760 00b1 3A       		.uleb128 0x3a
 1761 00b2 0B       		.uleb128 0xb
 1762 00b3 3B       		.uleb128 0x3b
 1763 00b4 05       		.uleb128 0x5
 1764 00b5 27       		.uleb128 0x27
 1765 00b6 0C       		.uleb128 0xc
 1766 00b7 11       		.uleb128 0x11
 1767 00b8 01       		.uleb128 0x1
 1768 00b9 12       		.uleb128 0x12
 1769 00ba 01       		.uleb128 0x1
 1770 00bb 40       		.uleb128 0x40
 1771 00bc 0A       		.uleb128 0xa
 1772 00bd 00       		.byte	0x0
 1773 00be 00       		.byte	0x0
 1774 00bf 10       		.uleb128 0x10
 1775 00c0 05       		.uleb128 0x5
 1776 00c1 00       		.byte	0x0
 1777 00c2 03       		.uleb128 0x3
 1778 00c3 0E       		.uleb128 0xe
 1779 00c4 3A       		.uleb128 0x3a
 1780 00c5 0B       		.uleb128 0xb
 1781 00c6 3B       		.uleb128 0x3b
 1782 00c7 05       		.uleb128 0x5
 1783 00c8 49       		.uleb128 0x49
 1784 00c9 13       		.uleb128 0x13
 1785 00ca 02       		.uleb128 0x2
 1786 00cb 0A       		.uleb128 0xa
 1787 00cc 00       		.byte	0x0
 1788 00cd 00       		.byte	0x0
 1789 00ce 11       		.uleb128 0x11
 1790 00cf 2E       		.uleb128 0x2e
 1791 00d0 01       		.byte	0x1
 1792 00d1 01       		.uleb128 0x1
 1793 00d2 13       		.uleb128 0x13
 1794 00d3 3F       		.uleb128 0x3f
 1795 00d4 0C       		.uleb128 0xc
 1796 00d5 03       		.uleb128 0x3
 1797 00d6 0E       		.uleb128 0xe
 1798 00d7 3A       		.uleb128 0x3a
 1799 00d8 0B       		.uleb128 0xb
 1800 00d9 3B       		.uleb128 0x3b
 1801 00da 0B       		.uleb128 0xb
 1802 00db 27       		.uleb128 0x27
 1803 00dc 0C       		.uleb128 0xc
 1804 00dd 49       		.uleb128 0x49
 1805 00de 13       		.uleb128 0x13
 1806 00df 11       		.uleb128 0x11
ARM GAS  /cygdrive/c/DOCUME~1/mkwapisz/LOCALS~1/Temp/cc1VEogw.s 			page 39


 1807 00e0 01       		.uleb128 0x1
 1808 00e1 12       		.uleb128 0x12
 1809 00e2 01       		.uleb128 0x1
 1810 00e3 40       		.uleb128 0x40
 1811 00e4 06       		.uleb128 0x6
 1812 00e5 00       		.byte	0x0
 1813 00e6 00       		.byte	0x0
 1814 00e7 12       		.uleb128 0x12
 1815 00e8 34       		.uleb128 0x34
 1816 00e9 00       		.byte	0x0
 1817 00ea 03       		.uleb128 0x3
 1818 00eb 0E       		.uleb128 0xe
 1819 00ec 3A       		.uleb128 0x3a
 1820 00ed 0B       		.uleb128 0xb
 1821 00ee 3B       		.uleb128 0x3b
 1822 00ef 0B       		.uleb128 0xb
 1823 00f0 49       		.uleb128 0x49
 1824 00f1 13       		.uleb128 0x13
 1825 00f2 02       		.uleb128 0x2
 1826 00f3 0A       		.uleb128 0xa
 1827 00f4 00       		.byte	0x0
 1828 00f5 00       		.byte	0x0
 1829 00f6 13       		.uleb128 0x13
 1830 00f7 34       		.uleb128 0x34
 1831 00f8 00       		.byte	0x0
 1832 00f9 03       		.uleb128 0x3
 1833 00fa 08       		.uleb128 0x8
 1834 00fb 3A       		.uleb128 0x3a
 1835 00fc 0B       		.uleb128 0xb
 1836 00fd 3B       		.uleb128 0x3b
 1837 00fe 0B       		.uleb128 0xb
 1838 00ff 49       		.uleb128 0x49
 1839 0100 13       		.uleb128 0x13
 1840 0101 02       		.uleb128 0x2
 1841 0102 0A       		.uleb128 0xa
 1842 0103 00       		.byte	0x0
 1843 0104 00       		.byte	0x0
 1844 0105 14       		.uleb128 0x14
 1845 0106 2E       		.uleb128 0x2e
 1846 0107 01       		.byte	0x1
 1847 0108 01       		.uleb128 0x1
 1848 0109 13       		.uleb128 0x13
 1849 010a 03       		.uleb128 0x3
 1850 010b 0E       		.uleb128 0xe
 1851 010c 3A       		.uleb128 0x3a
 1852 010d 0B       		.uleb128 0xb
 1853 010e 3B       		.uleb128 0x3b
 1854 010f 0B       		.uleb128 0xb
 1855 0110 27       		.uleb128 0x27
 1856 0111 0C       		.uleb128 0xc
 1857 0112 11       		.uleb128 0x11
 1858 0113 01       		.uleb128 0x1
 1859 0114 12       		.uleb128 0x12
 1860 0115 01       		.uleb128 0x1
 1861 0116 40       		.uleb128 0x40
 1862 0117 06       		.uleb128 0x6
 1863 0118 00       		.byte	0x0
ARM GAS  /cygdrive/c/DOCUME~1/mkwapisz/LOCALS~1/Temp/cc1VEogw.s 			page 40


 1864 0119 00       		.byte	0x0
 1865 011a 15       		.uleb128 0x15
 1866 011b 05       		.uleb128 0x5
 1867 011c 00       		.byte	0x0
 1868 011d 03       		.uleb128 0x3
 1869 011e 08       		.uleb128 0x8
 1870 011f 3A       		.uleb128 0x3a
 1871 0120 0B       		.uleb128 0xb
 1872 0121 3B       		.uleb128 0x3b
 1873 0122 0B       		.uleb128 0xb
 1874 0123 49       		.uleb128 0x49
 1875 0124 13       		.uleb128 0x13
 1876 0125 02       		.uleb128 0x2
 1877 0126 06       		.uleb128 0x6
 1878 0127 00       		.byte	0x0
 1879 0128 00       		.byte	0x0
 1880 0129 16       		.uleb128 0x16
 1881 012a 2E       		.uleb128 0x2e
 1882 012b 01       		.byte	0x1
 1883 012c 01       		.uleb128 0x1
 1884 012d 13       		.uleb128 0x13
 1885 012e 03       		.uleb128 0x3
 1886 012f 0E       		.uleb128 0xe
 1887 0130 3A       		.uleb128 0x3a
 1888 0131 0B       		.uleb128 0xb
 1889 0132 3B       		.uleb128 0x3b
 1890 0133 05       		.uleb128 0x5
 1891 0134 27       		.uleb128 0x27
 1892 0135 0C       		.uleb128 0xc
 1893 0136 11       		.uleb128 0x11
 1894 0137 01       		.uleb128 0x1
 1895 0138 12       		.uleb128 0x12
 1896 0139 01       		.uleb128 0x1
 1897 013a 40       		.uleb128 0x40
 1898 013b 06       		.uleb128 0x6
 1899 013c 00       		.byte	0x0
 1900 013d 00       		.byte	0x0
 1901 013e 17       		.uleb128 0x17
 1902 013f 05       		.uleb128 0x5
 1903 0140 00       		.byte	0x0
 1904 0141 03       		.uleb128 0x3
 1905 0142 08       		.uleb128 0x8
 1906 0143 3A       		.uleb128 0x3a
 1907 0144 0B       		.uleb128 0xb
 1908 0145 3B       		.uleb128 0x3b
 1909 0146 05       		.uleb128 0x5
 1910 0147 49       		.uleb128 0x49
 1911 0148 13       		.uleb128 0x13
 1912 0149 02       		.uleb128 0x2
 1913 014a 06       		.uleb128 0x6
 1914 014b 00       		.byte	0x0
 1915 014c 00       		.byte	0x0
 1916 014d 18       		.uleb128 0x18
 1917 014e 05       		.uleb128 0x5
 1918 014f 00       		.byte	0x0
 1919 0150 03       		.uleb128 0x3
 1920 0151 0E       		.uleb128 0xe
ARM GAS  /cygdrive/c/DOCUME~1/mkwapisz/LOCALS~1/Temp/cc1VEogw.s 			page 41


 1921 0152 3A       		.uleb128 0x3a
 1922 0153 0B       		.uleb128 0xb
 1923 0154 3B       		.uleb128 0x3b
 1924 0155 0B       		.uleb128 0xb
 1925 0156 49       		.uleb128 0x49
 1926 0157 13       		.uleb128 0x13
 1927 0158 02       		.uleb128 0x2
 1928 0159 06       		.uleb128 0x6
 1929 015a 00       		.byte	0x0
 1930 015b 00       		.byte	0x0
 1931 015c 19       		.uleb128 0x19
 1932 015d 34       		.uleb128 0x34
 1933 015e 00       		.byte	0x0
 1934 015f 03       		.uleb128 0x3
 1935 0160 0E       		.uleb128 0xe
 1936 0161 3A       		.uleb128 0x3a
 1937 0162 0B       		.uleb128 0xb
 1938 0163 3B       		.uleb128 0x3b
 1939 0164 0B       		.uleb128 0xb
 1940 0165 49       		.uleb128 0x49
 1941 0166 13       		.uleb128 0x13
 1942 0167 00       		.byte	0x0
 1943 0168 00       		.byte	0x0
 1944 0169 1A       		.uleb128 0x1a
 1945 016a 0B       		.uleb128 0xb
 1946 016b 01       		.byte	0x1
 1947 016c 11       		.uleb128 0x11
 1948 016d 01       		.uleb128 0x1
 1949 016e 12       		.uleb128 0x12
 1950 016f 01       		.uleb128 0x1
 1951 0170 00       		.byte	0x0
 1952 0171 00       		.byte	0x0
 1953 0172 1B       		.uleb128 0x1b
 1954 0173 34       		.uleb128 0x34
 1955 0174 00       		.byte	0x0
 1956 0175 03       		.uleb128 0x3
 1957 0176 0E       		.uleb128 0xe
 1958 0177 3A       		.uleb128 0x3a
 1959 0178 0B       		.uleb128 0xb
 1960 0179 3B       		.uleb128 0x3b
 1961 017a 0B       		.uleb128 0xb
 1962 017b 49       		.uleb128 0x49
 1963 017c 13       		.uleb128 0x13
 1964 017d 02       		.uleb128 0x2
 1965 017e 06       		.uleb128 0x6
 1966 017f 00       		.byte	0x0
 1967 0180 00       		.byte	0x0
 1968 0181 1C       		.uleb128 0x1c
 1969 0182 21       		.uleb128 0x21
 1970 0183 00       		.byte	0x0
 1971 0184 49       		.uleb128 0x49
 1972 0185 13       		.uleb128 0x13
 1973 0186 2F       		.uleb128 0x2f
 1974 0187 05       		.uleb128 0x5
 1975 0188 00       		.byte	0x0
 1976 0189 00       		.byte	0x0
 1977 018a 1D       		.uleb128 0x1d
ARM GAS  /cygdrive/c/DOCUME~1/mkwapisz/LOCALS~1/Temp/cc1VEogw.s 			page 42


 1978 018b 34       		.uleb128 0x34
 1979 018c 00       		.byte	0x0
 1980 018d 03       		.uleb128 0x3
 1981 018e 0E       		.uleb128 0xe
 1982 018f 3A       		.uleb128 0x3a
 1983 0190 0B       		.uleb128 0xb
 1984 0191 3B       		.uleb128 0x3b
 1985 0192 0B       		.uleb128 0xb
 1986 0193 49       		.uleb128 0x49
 1987 0194 13       		.uleb128 0x13
 1988 0195 1C       		.uleb128 0x1c
 1989 0196 0B       		.uleb128 0xb
 1990 0197 00       		.byte	0x0
 1991 0198 00       		.byte	0x0
 1992 0199 1E       		.uleb128 0x1e
 1993 019a 26       		.uleb128 0x26
 1994 019b 00       		.byte	0x0
 1995 019c 49       		.uleb128 0x49
 1996 019d 13       		.uleb128 0x13
 1997 019e 00       		.byte	0x0
 1998 019f 00       		.byte	0x0
 1999 01a0 1F       		.uleb128 0x1f
 2000 01a1 34       		.uleb128 0x34
 2001 01a2 00       		.byte	0x0
 2002 01a3 03       		.uleb128 0x3
 2003 01a4 0E       		.uleb128 0xe
 2004 01a5 3A       		.uleb128 0x3a
 2005 01a6 0B       		.uleb128 0xb
 2006 01a7 3B       		.uleb128 0x3b
 2007 01a8 0B       		.uleb128 0xb
 2008 01a9 49       		.uleb128 0x49
 2009 01aa 13       		.uleb128 0x13
 2010 01ab 3F       		.uleb128 0x3f
 2011 01ac 0C       		.uleb128 0xc
 2012 01ad 02       		.uleb128 0x2
 2013 01ae 0A       		.uleb128 0xa
 2014 01af 00       		.byte	0x0
 2015 01b0 00       		.byte	0x0
 2016 01b1 20       		.uleb128 0x20
 2017 01b2 35       		.uleb128 0x35
 2018 01b3 00       		.byte	0x0
 2019 01b4 49       		.uleb128 0x49
 2020 01b5 13       		.uleb128 0x13
 2021 01b6 00       		.byte	0x0
 2022 01b7 00       		.byte	0x0
 2023 01b8 21       		.uleb128 0x21
 2024 01b9 34       		.uleb128 0x34
 2025 01ba 00       		.byte	0x0
 2026 01bb 03       		.uleb128 0x3
 2027 01bc 08       		.uleb128 0x8
 2028 01bd 3A       		.uleb128 0x3a
 2029 01be 0B       		.uleb128 0xb
 2030 01bf 3B       		.uleb128 0x3b
 2031 01c0 0B       		.uleb128 0xb
 2032 01c1 49       		.uleb128 0x49
 2033 01c2 13       		.uleb128 0x13
 2034 01c3 3F       		.uleb128 0x3f
ARM GAS  /cygdrive/c/DOCUME~1/mkwapisz/LOCALS~1/Temp/cc1VEogw.s 			page 43


 2035 01c4 0C       		.uleb128 0xc
 2036 01c5 02       		.uleb128 0x2
 2037 01c6 0A       		.uleb128 0xa
 2038 01c7 00       		.byte	0x0
 2039 01c8 00       		.byte	0x0
 2040 01c9 00       		.byte	0x0
 2041              		.section	.debug_pubnames,"",%progbits
 2042 0000 66000000 		.4byte	0x66
 2043 0004 0200     		.2byte	0x2
 2044 0006 00000000 		.4byte	.Ldebug_info0
 2045 000a 7D050000 		.4byte	0x57d
 2046 000e A3020000 		.4byte	0x2a3
 2047 0012 61707054 		.ascii	"appTick\000"
 2047      69636B00 
 2048 001a CA020000 		.4byte	0x2ca
 2049 001e 6D61696E 		.ascii	"main\000"
 2049      00
 2050 0023 0B050000 		.4byte	0x50b
 2051 0027 6F64637A 		.ascii	"odczytujSD\000"
 2051      7974756A 
 2051      534400
 2052 0032 1D050000 		.4byte	0x51d
 2053 0036 6D73436C 		.ascii	"msClock\000"
 2053      6F636B00 
 2054 003e 34050000 		.4byte	0x534
 2055 0042 66617466 		.ascii	"fatfs\000"
 2055      7300
 2056 0048 46050000 		.4byte	0x546
 2057 004c 64697200 		.ascii	"dir\000"
 2058 0050 58050000 		.4byte	0x558
 2059 0054 666E6F00 		.ascii	"fno\000"
 2060 0058 6A050000 		.4byte	0x56a
 2061 005c 6F64706F 		.ascii	"odpowiedz\000"
 2061      77696564 
 2061      7A00
 2062 0066 00000000 		.4byte	0x0
 2063              		.section	.debug_aranges,"",%progbits
 2064 0000 1C000000 		.4byte	0x1c
 2065 0004 0200     		.2byte	0x2
 2066 0006 00000000 		.4byte	.Ldebug_info0
 2067 000a 04       		.byte	0x4
 2068 000b 00       		.byte	0x0
 2069 000c 0000     		.2byte	0x0
 2070 000e 0000     		.2byte	0x0
 2071 0010 00000000 		.4byte	.Ltext0
 2072 0014 B6020000 		.4byte	.Letext0-.Ltext0
 2073 0018 00000000 		.4byte	0x0
 2074 001c 00000000 		.4byte	0x0
 2075              		.section	.debug_str,"MS",%progbits,1
 2076              	.LASF41:
 2077 0000 46525F4E 		.ascii	"FR_NOT_READY\000"
 2077      4F545F52 
 2077      45414459 
 2077      00
 2078              	.LASF58:
 2079 000d 616E794B 		.ascii	"anyKey\000"
 2079      657900
ARM GAS  /cygdrive/c/DOCUME~1/mkwapisz/LOCALS~1/Temp/cc1VEogw.s 			page 44


 2080              	.LASF11:
 2081 0014 66735F74 		.ascii	"fs_type\000"
 2081      79706500 
 2082              	.LASF14:
 2083 001c 63736563 		.ascii	"csect\000"
 2083      7400
 2084              	.LASF67:
 2085 0022 7A617061 		.ascii	"zapalajDiode\000"
 2085      6C616A44 
 2085      696F6465 
 2085      00
 2086              	.LASF4:
 2087 002f 7369676E 		.ascii	"signed char\000"
 2087      65642063 
 2087      68617200 
 2088              	.LASF15:
 2089 003b 6E5F726F 		.ascii	"n_rootdir\000"
 2089      6F746469 
 2089      7200
 2090              	.LASF74:
 2091 0045 6F64706F 		.ascii	"odpowiedz\000"
 2091      77696564 
 2091      7A00
 2092              	.LASF18:
 2093 004f 64697262 		.ascii	"dirbase\000"
 2093      61736500 
 2094              	.LASF32:
 2095 0057 5F46494C 		.ascii	"_FILINFO_\000"
 2095      494E464F 
 2095      5F00
 2096              	.LASF52:
 2097 0061 50726F63 		.ascii	"ProceduraGlowna\000"
 2097      65647572 
 2097      61476C6F 
 2097      776E6100 
 2098              	.LASF6:
 2099 0071 6C6F6E67 		.ascii	"long unsigned int\000"
 2099      20756E73 
 2099      69676E65 
 2099      6420696E 
 2099      7400
 2100              	.LASF21:
 2101 0083 6673697A 		.ascii	"fsize\000"
 2101      6500
 2102              	.LASF55:
 2103 0089 5F616B63 		.ascii	"_akcja\000"
 2103      6A6100
 2104              	.LASF19:
 2105 0090 64617461 		.ascii	"database\000"
 2105      62617365 
 2105      00
 2106              	.LASF9:
 2107 0099 6C6F6E67 		.ascii	"long int\000"
 2107      20696E74 
 2107      00
 2108              	.LASF60:
 2109 00a2 50726F63 		.ascii	"ProceduraGlownaPamiec\000"
ARM GAS  /cygdrive/c/DOCUME~1/mkwapisz/LOCALS~1/Temp/cc1VEogw.s 			page 45


 2109      65647572 
 2109      61476C6F 
 2109      776E6150 
 2109      616D6965 
 2110              	.LASF46:
 2111 00b8 46525F4E 		.ascii	"FR_NO_FILESYSTEM\000"
 2111      4F5F4649 
 2111      4C455359 
 2111      5354454D 
 2111      00
 2112              	.LASF22:
 2113 00c9 6F72675F 		.ascii	"org_clust\000"
 2113      636C7573 
 2113      7400
 2114              	.LASF17:
 2115 00d3 66617462 		.ascii	"fatbase\000"
 2115      61736500 
 2116              	.LASF10:
 2117 00db 44574F52 		.ascii	"DWORD\000"
 2117      4400
 2118              	.LASF71:
 2119 00e1 6F64637A 		.ascii	"odczytujSD\000"
 2119      7974756A 
 2119      534400
 2120              	.LASF12:
 2121 00ec 6373697A 		.ascii	"csize\000"
 2121      6500
 2122              	.LASF7:
 2123 00f2 42595445 		.ascii	"BYTE\000"
 2123      00
 2124              	.LASF72:
 2125 00f7 6D73436C 		.ascii	"msClock\000"
 2125      6F636B00 
 2126              	.LASF3:
 2127 00ff 756E7369 		.ascii	"unsigned int\000"
 2127      676E6564 
 2127      20696E74 
 2127      00
 2128              	.LASF23:
 2129 010c 63757272 		.ascii	"curr_clust\000"
 2129      5F636C75 
 2129      737400
 2130              	.LASF34:
 2131 0117 6674696D 		.ascii	"ftime\000"
 2131      6500
 2132              	.LASF59:
 2133 011d 70726F63 		.ascii	"proc1\000"
 2133      3100
 2134              	.LASF56:
 2135 0123 70726F63 		.ascii	"proc2\000"
 2135      3200
 2136              	.LASF1:
 2137 0129 73686F72 		.ascii	"short unsigned int\000"
 2137      7420756E 
 2137      7369676E 
 2137      65642069 
 2137      6E7400
ARM GAS  /cygdrive/c/DOCUME~1/mkwapisz/LOCALS~1/Temp/cc1VEogw.s 			page 46


 2138              	.LASF62:
 2139 013c 70696431 		.ascii	"pid1\000"
 2139      00
 2140              	.LASF64:
 2141 0141 70696432 		.ascii	"pid2\000"
 2141      00
 2142              	.LASF66:
 2143 0146 70696433 		.ascii	"pid3\000"
 2143      00
 2144              	.LASF76:
 2145 014b 6D61696E 		.ascii	"main.c\000"
 2145      2E6300
 2146              	.LASF40:
 2147 0152 46525F44 		.ascii	"FR_DISK_ERR\000"
 2147      49534B5F 
 2147      45525200 
 2148              	.LASF48:
 2149 015e 61707054 		.ascii	"appTick\000"
 2149      69636B00 
 2150              	.LASF2:
 2151 0166 74553332 		.ascii	"tU32\000"
 2151      00
 2152              	.LASF36:
 2153 016b 666E616D 		.ascii	"fname\000"
 2153      6500
 2154              	.LASF31:
 2155 0171 73656374 		.ascii	"sect\000"
 2155      00
 2156              	.LASF25:
 2157 0176 46415446 		.ascii	"FATFS\000"
 2157      5300
 2158              	.LASF33:
 2159 017c 66646174 		.ascii	"fdate\000"
 2159      6500
 2160              	.LASF65:
 2161 0182 70726F63 		.ascii	"proc3Stack\000"
 2161      33537461 
 2161      636B00
 2162              	.LASF44:
 2163 018d 46525F4E 		.ascii	"FR_NOT_OPENED\000"
 2163      4F545F4F 
 2163      50454E45 
 2163      4400
 2164              	.LASF20:
 2165 019b 66707472 		.ascii	"fptr\000"
 2165      00
 2166              	.LASF16:
 2167 01a0 6D61785F 		.ascii	"max_clust\000"
 2167      636C7573 
 2167      7400
 2168              	.LASF8:
 2169 01aa 574F5244 		.ascii	"WORD\000"
 2169      00
 2170              	.LASF29:
 2171 01af 73636C75 		.ascii	"sclust\000"
 2171      737400
 2172              	.LASF42:
ARM GAS  /cygdrive/c/DOCUME~1/mkwapisz/LOCALS~1/Temp/cc1VEogw.s 			page 47


 2173 01b6 46525F4E 		.ascii	"FR_NO_FILE\000"
 2173      4F5F4649 
 2173      4C4500
 2174              	.LASF73:
 2175 01c1 66617466 		.ascii	"fatfs\000"
 2175      7300
 2176              	.LASF45:
 2177 01c7 46525F4E 		.ascii	"FR_NOT_ENABLED\000"
 2177      4F545F45 
 2177      4E41424C 
 2177      454400
 2178              	.LASF51:
 2179 01d6 656C6170 		.ascii	"elapsedTime\000"
 2179      73656454 
 2179      696D6500 
 2180              	.LASF70:
 2181 01e2 6B6F6C6F 		.ascii	"kolorDiody\000"
 2181      7244696F 
 2181      647900
 2182              	.LASF24:
 2183 01ed 64736563 		.ascii	"dsect\000"
 2183      7400
 2184              	.LASF0:
 2185 01f3 756E7369 		.ascii	"unsigned char\000"
 2185      676E6564 
 2185      20636861 
 2185      7200
 2186              	.LASF75:
 2187 0201 474E5520 		.ascii	"GNU C 4.1.1\000"
 2187      4320342E 
 2187      312E3100 
 2188              	.LASF5:
 2189 020d 73686F72 		.ascii	"short int\000"
 2189      7420696E 
 2189      7400
 2190              	.LASF53:
 2191 0217 5A617061 		.ascii	"ZapalajDiodeProces\000"
 2191      6C616A44 
 2191      696F6465 
 2191      50726F63 
 2191      657300
 2192              	.LASF13:
 2193 022a 666C6167 		.ascii	"flag\000"
 2193      00
 2194              	.LASF27:
 2195 022f 5F444952 		.ascii	"_DIR_\000"
 2195      5F00
 2196              	.LASF50:
 2197 0235 6572726F 		.ascii	"error\000"
 2197      7200
 2198              	.LASF63:
 2199 023b 70726F63 		.ascii	"proc2Stack\000"
 2199      32537461 
 2199      636B00
 2200              	.LASF37:
 2201 0246 63686172 		.ascii	"char\000"
 2201      00
ARM GAS  /cygdrive/c/DOCUME~1/mkwapisz/LOCALS~1/Temp/cc1VEogw.s 			page 48


 2202              	.LASF26:
 2203 024b 5F464154 		.ascii	"_FATFS_\000"
 2203      46535F00 
 2204              	.LASF68:
 2205 0253 7069645A 		.ascii	"pidZapalajDiode\000"
 2205      6170616C 
 2205      616A4469 
 2205      6F646500 
 2206              	.LASF39:
 2207 0263 46525F4F 		.ascii	"FR_OK\000"
 2207      4B00
 2208              	.LASF28:
 2209 0269 696E6465 		.ascii	"index\000"
 2209      7800
 2210              	.LASF77:
 2211 026f 2F637967 		.ascii	"/cygdrive/g/servers/github/SysWbud/2148/testProgram"
 2211      64726976 
 2211      652F672F 
 2211      73657276 
 2211      6572732F 
 2212 02a2 5F6C7063 		.ascii	"_lpc2148_edu\000"
 2212      32313438 
 2212      5F656475 
 2212      00
 2213              	.LASF35:
 2214 02af 66617474 		.ascii	"fattrib\000"
 2214      72696200 
 2215              	.LASF69:
 2216 02b7 636F6E74 		.ascii	"contrast\000"
 2216      72617374 
 2216      00
 2217              	.LASF57:
 2218 02c0 616B636A 		.ascii	"akcja\000"
 2218      6100
 2219              	.LASF38:
 2220 02c6 46494C49 		.ascii	"FILINFO\000"
 2220      4E464F00 
 2221              	.LASF54:
 2222 02ce 64726177 		.ascii	"drawMenu\000"
 2222      4D656E75 
 2222      00
 2223              	.LASF47:
 2224 02d7 46524553 		.ascii	"FRESULT\000"
 2224      554C5400 
 2225              	.LASF61:
 2226 02df 70726F63 		.ascii	"proc1Stack\000"
 2226      31537461 
 2226      636B00
 2227              	.LASF43:
 2228 02ea 46525F4E 		.ascii	"FR_NO_PATH\000"
 2228      4F5F5041 
 2228      544800
 2229              	.LASF49:
 2230 02f5 6D61696E 		.ascii	"main\000"
 2230      00
 2231              	.LASF30:
 2232 02fa 636C7573 		.ascii	"clust\000"
ARM GAS  /cygdrive/c/DOCUME~1/mkwapisz/LOCALS~1/Temp/cc1VEogw.s 			page 49


 2232      7400
 2233              		.ident	"GCC: (GNU) 4.1.1"
ARM GAS  /cygdrive/c/DOCUME~1/mkwapisz/LOCALS~1/Temp/cc1VEogw.s 			page 50


DEFINED SYMBOLS
                            *ABS*:00000000 main.c
/cygdrive/c/DOCUME~1/mkwapisz/LOCALS~1/Temp/cc1VEogw.s:1      .text:00000000 $t
/cygdrive/c/DOCUME~1/mkwapisz/LOCALS~1/Temp/cc1VEogw.s:16     .text:00000000 appTick
/cygdrive/c/DOCUME~1/mkwapisz/LOCALS~1/Temp/cc1VEogw.s:35     .text:0000000c $d
/cygdrive/c/DOCUME~1/mkwapisz/LOCALS~1/Temp/cc1VEogw.s:555    .bss:00000004 msClock
/cygdrive/c/DOCUME~1/mkwapisz/LOCALS~1/Temp/cc1VEogw.s:43     .text:00000010 main
/cygdrive/c/DOCUME~1/mkwapisz/LOCALS~1/Temp/cc1VEogw.s:40     .text:00000010 $t
/cygdrive/c/DOCUME~1/mkwapisz/LOCALS~1/Temp/cc1VEogw.s:96     .text:0000005c $d
/cygdrive/c/DOCUME~1/mkwapisz/LOCALS~1/Temp/cc1VEogw.s:106    .text:0000006c ProceduraGlowna
/cygdrive/c/DOCUME~1/mkwapisz/LOCALS~1/Temp/cc1VEogw.s:560    .bss:0000000c ProceduraGlownaPamiec
/cygdrive/c/DOCUME~1/mkwapisz/LOCALS~1/Temp/cc1VEogw.s:103    .text:0000006c $t
/cygdrive/c/DOCUME~1/mkwapisz/LOCALS~1/Temp/cc1VEogw.s:195    .text:000000fc $d
/cygdrive/c/DOCUME~1/mkwapisz/LOCALS~1/Temp/cc1VEogw.s:564    .bss:0000099c pid1
/cygdrive/c/DOCUME~1/mkwapisz/LOCALS~1/Temp/cc1VEogw.s:530    .text:000002ac proc1
/cygdrive/c/DOCUME~1/mkwapisz/LOCALS~1/Temp/cc1VEogw.s:562    .bss:0000019c proc1Stack
                            *COM*:00000004 odpowiedz
/cygdrive/c/DOCUME~1/mkwapisz/LOCALS~1/Temp/cc1VEogw.s:568    .bss:00000c8b pid2
/cygdrive/c/DOCUME~1/mkwapisz/LOCALS~1/Temp/cc1VEogw.s:374    .text:000001e0 proc2
/cygdrive/c/DOCUME~1/mkwapisz/LOCALS~1/Temp/cc1VEogw.s:566    .bss:0000099d proc2Stack
/cygdrive/c/DOCUME~1/mkwapisz/LOCALS~1/Temp/cc1VEogw.s:558    .bss:00000008 kolorDiody
/cygdrive/c/DOCUME~1/mkwapisz/LOCALS~1/Temp/cc1VEogw.s:572    .bss:00000d8c pidZapalajDiode
/cygdrive/c/DOCUME~1/mkwapisz/LOCALS~1/Temp/cc1VEogw.s:213    .text:0000012c ZapalajDiodeProces
/cygdrive/c/DOCUME~1/mkwapisz/LOCALS~1/Temp/cc1VEogw.s:570    .bss:00000c8c zapalajDiode
/cygdrive/c/DOCUME~1/mkwapisz/LOCALS~1/Temp/cc1VEogw.s:210    .text:0000012c $t
/cygdrive/c/DOCUME~1/mkwapisz/LOCALS~1/Temp/cc1VEogw.s:231    .text:0000013c $d
/cygdrive/c/DOCUME~1/mkwapisz/LOCALS~1/Temp/cc1VEogw.s:255    .text:00000140 $t
/cygdrive/c/DOCUME~1/mkwapisz/LOCALS~1/Temp/cc1VEogw.s:258    .text:00000140 drawMenu
/cygdrive/c/DOCUME~1/mkwapisz/LOCALS~1/Temp/cc1VEogw.s:322    .rodata:00000000 $d
/cygdrive/c/DOCUME~1/mkwapisz/LOCALS~1/Temp/cc1VEogw.s:360    .text:000001c4 $d
/cygdrive/c/DOCUME~1/mkwapisz/LOCALS~1/Temp/cc1VEogw.s:371    .text:000001e0 $t
/cygdrive/c/DOCUME~1/mkwapisz/LOCALS~1/Temp/cc1VEogw.s:518    .text:00000294 $d
/cygdrive/c/DOCUME~1/mkwapisz/LOCALS~1/Temp/cc1VEogw.s:549    .bss:00000000 odczytujSD
                            *COM*:00000030 fatfs
/cygdrive/c/DOCUME~1/mkwapisz/LOCALS~1/Temp/cc1VEogw.s:527    .text:000002ac $t
                             .bss:00000000 $d
                            *COM*:00000014 dir
                            *COM*:00000018 fno

UNDEFINED SYMBOLS
osInit
osCreateProcess
osStartProcess
osStart
InicjalizacjaKonsoli
osDeleteProcess
ZaplajDiode
lcdColor
lcdClrscr
lcdRect
lcdGotoxy
lcdPuts
__modsi3
lcdInit
initKeyProc
lcdContrast
checkKey
ARM GAS  /cygdrive/c/DOCUME~1/mkwapisz/LOCALS~1/Temp/cc1VEogw.s 			page 51


pf_mount
WyswietlTekstNaLcd
