ARM GAS  /cygdrive/c/DOCUME~1/mkwapisz/LOCALS~1/Temp/cc49RH3V.s 			page 1


   1              		.code	16
   2              		.file	"main.c"
   3              		.section	.debug_abbrev,"",%progbits
   4              	.Ldebug_abbrev0:
   5              		.section	.debug_info,"",%progbits
   6              	.Ldebug_info0:
   7              		.section	.debug_line,"",%progbits
   8              	.Ldebug_line0:
   9 0000 A4000000 		.text
   9      02004700 
   9      00000201 
   9      FB0E0D00 
   9      01010101 
  10              	.Ltext0:
  11              		.align	2
  12              		.global	appTick
  13              		.code 16
  14              		.thumb_func
  15              		.type	appTick, %function
  16              	appTick:
  17              	.LFB7:
  18              		.file 1 "main.c"
   1:main.c        **** #include "../pre_emptive_os/api/osapi.h"
   2:main.c        **** #include "../pre_emptive_os/api/general.h"
   3:main.c        **** #include <printf_P.h>
   4:main.c        **** #include <ea_init.h>
   5:main.c        **** #include <lpc2xxx.h>
   6:main.c        **** #include <consol.h>
   7:main.c        **** #include "i2c.h"
   8:main.c        **** #include "key.h"
   9:main.c        **** 
  10:main.c        **** #include "usb/lpc_usb.h"
  11:main.c        **** #include "usb/lpc_hid.h"
  12:main.c        **** 
  13:main.c        **** static void ProceduraGlowna(void* arg);
  14:main.c        **** #define PAMIEC_PROCEDURA_GLOWNA  400
  15:main.c        **** static tU8 ProceduraGlownaPamiec[PAMIEC_PROCEDURA_GLOWNA];
  16:main.c        **** static tU8 ProceduraGlownaId;
  17:main.c        **** 
  18:main.c        **** static void proc1(void* arg);
  19:main.c        **** #define PROC1_STACK_SIZE 2048
  20:main.c        **** static tU8 proc1Stack[PROC1_STACK_SIZE];
  21:main.c        **** static tU8 pid1;
  22:main.c        **** 
  23:main.c        **** static void proc2(void* arg);
  24:main.c        **** #define PROC2_STACK_SIZE 750
  25:main.c        **** static tU8 proc2Stack[PROC2_STACK_SIZE];
  26:main.c        **** static tU8 pid2;
  27:main.c        **** 
  28:main.c        **** static tU8 contrast = 46;
  29:main.c        **** 
  30:main.c        **** void WyswietlTekstNaLcd(void);
  31:main.c        **** 
  32:main.c        **** volatile tU32 msClock = 0;
  33:main.c        **** 
  34:main.c        **** /*
  35:main.c        ****  * Funkcja wejœciowa programu.
ARM GAS  /cygdrive/c/DOCUME~1/mkwapisz/LOCALS~1/Temp/cc49RH3V.s 			page 2


  36:main.c        ****  */
  37:main.c        **** int main(void) {
  38:main.c        **** 	tU8 error;
  39:main.c        **** 	tU8 pid;
  40:main.c        **** 
  41:main.c        **** 	//immediately turn off buzzer (if connected)
  42:main.c        **** 	IODIR0 |= 0x00000080;
  43:main.c        **** 	IOSET0 = 0x00000080;
  44:main.c        **** 
  45:main.c        **** 	osInit();
  46:main.c        **** 
  47:main.c        **** 	osCreateProcess(ProceduraGlowna, ProceduraGlownaPamiec,
  48:main.c        **** 			PAMIEC_PROCEDURA_GLOWNA, &pid, 1, NULL, &error);
  49:main.c        **** 	osStartProcess(pid, &error);
  50:main.c        **** 
  51:main.c        **** 	osStart();
  52:main.c        **** 	return 0;
  53:main.c        **** }
  54:main.c        **** 
  55:main.c        **** /*
  56:main.c        ****  * Procedura g³ówna programu odpalaj¹ca pozosta³e procedury.
  57:main.c        ****  */
  58:main.c        **** static void ProceduraGlowna(void* arg) {
  59:main.c        **** 	tU8 error;
  60:main.c        **** 
  61:main.c        **** 		osCreateProcess(proc1, proc1Stack, PROC1_STACK_SIZE, &pid1, 3, NULL, &error);
  62:main.c        **** 		osStartProcess(pid1, &error);
  63:main.c        **** 
  64:main.c        **** 	//eaInit(); //initialize printf
  65:main.c        **** 	//i2cInit(); //initialize I2C
  66:main.c        **** 
  67:main.c        **** 	osCreateProcess(proc2, proc2Stack, PROC2_STACK_SIZE, &pid2, 3, NULL, &error);
  68:main.c        **** 	osStartProcess(pid2, &error);
  69:main.c        **** 
  70:main.c        **** 	osDeleteProcess();
  71:main.c        **** }
  72:main.c        **** 
  73:main.c        **** static void proc1(void* arg) {
  74:main.c        **** 	WyswietlTekstNaLcd();
  75:main.c        **** }
  76:main.c        **** 
  77:main.c        **** static void drawMenu(void) {
  78:main.c        **** 	lcdColor(0, 0);
  79:main.c        **** 	lcdClrscr();
  80:main.c        **** 
  81:main.c        **** 	lcdRect(14, 0, 102, 128, 0x6d);
  82:main.c        **** 	lcdRect(15, 17, 100, 110, 0);
  83:main.c        **** 
  84:main.c        **** 	lcdGotoxy(24, 1); // po³o¿enie tekstu x=24, y=1
  85:main.c        **** 	lcdColor(0x6d, 0);
  86:main.c        **** 	lcdPuts("Sterowanie");
  87:main.c        **** 
  88:main.c        **** 	lcdGotoxy(22, 20 + (14 * 1));
  89:main.c        **** 	lcdColor(0x00, 0xe0);
  90:main.c        **** 	//  lcdColor(0x00,0xfd);
  91:main.c        **** 	lcdPuts("Graj");
  92:main.c        **** }
ARM GAS  /cygdrive/c/DOCUME~1/mkwapisz/LOCALS~1/Temp/cc49RH3V.s 			page 3


  93:main.c        **** 
  94:main.c        **** static void proc2(void* arg) {
  95:main.c        **** 	static tU8 i = 0;
  96:main.c        **** 
  97:main.c        **** 	printf("\n\n\n\n\n*******************************************************\n");
  98:main.c        **** 	printf("*                                                     *\n");
  99:main.c        **** 	printf("* Demo program for 'Experiment Expansion Board'       *\n");
 100:main.c        **** 	printf("* running on LPC2103 Education Board.                 *\n");
 101:main.c        **** 	printf("* - Snake game                                        *\n");
 102:main.c        **** 	printf("*                                                     *\n");
 103:main.c        **** 	printf("* (C) Embedded Artists 2008                           *\n");
 104:main.c        **** 	printf("*                                                     *\n");
 105:main.c        **** 	printf("*******************************************************\n");
 106:main.c        **** 
 107:main.c        **** 	IODIR |= 0x00006000; //P0.13/14
 108:main.c        **** 	IOSET = 0x00006000;
 109:main.c        **** 
 110:main.c        **** 	lcdInit();
 111:main.c        **** 	initKeyProc();
 112:main.c        **** 	drawMenu();
 113:main.c        **** 	lcdContrast(contrast);
 114:main.c        **** 	while (1) {
 115:main.c        **** 		tU8 anyKey;
 116:main.c        **** 
 117:main.c        **** 		anyKey = checkKey();
 118:main.c        **** 		if (anyKey != KEY_NOTHING) {
 119:main.c        **** 			//select specific function
 120:main.c        **** 			if (anyKey == KEY_CENTER) {
 121:main.c        **** 				//				playSnake();
 122:main.c        **** 				drawMenu();
 123:main.c        **** 			}
 124:main.c        **** 
 125:main.c        **** 			//adjust contrast
 126:main.c        **** 			else if (anyKey == KEY_RIGHT) {
 127:main.c        **** 				contrast++;
 128:main.c        **** 				if (contrast > 127)
 129:main.c        **** 					contrast = 127;
 130:main.c        **** 				lcdContrast(contrast);
 131:main.c        **** 			} else if (anyKey == KEY_LEFT) {
 132:main.c        **** 				if (contrast > 0)
 133:main.c        **** 					contrast--;
 134:main.c        **** 				lcdContrast(contrast);
 135:main.c        **** 			}
 136:main.c        **** 		}
 137:main.c        **** 	}
 138:main.c        **** 
 139:main.c        **** 	//		switch (i) {
 140:main.c        **** 	//		case 0:
 141:main.c        **** 	//			lcdIcon(15, 88, 100, 40, _fire_0_100x40c[2], _fire_0_100x40c[3],
 142:main.c        **** 	//					&_fire_0_100x40c[4]);
 143:main.c        **** 	//			i++;
 144:main.c        **** 	//			break;
 145:main.c        **** 	//		case 1:
 146:main.c        **** 	//			lcdIcon(15, 88, 100, 40, _fire_1_100x40c[2], _fire_1_100x40c[3],
 147:main.c        **** 	//					&_fire_1_100x40c[4]);
 148:main.c        **** 	//			i++;
 149:main.c        **** 	//			break;
ARM GAS  /cygdrive/c/DOCUME~1/mkwapisz/LOCALS~1/Temp/cc49RH3V.s 			page 4


 150:main.c        **** 	//		case 2:
 151:main.c        **** 	//			lcdIcon(15, 88, 100, 40, _fire_2_100x40c[2], _fire_2_100x40c[3],
 152:main.c        **** 	//					&_fire_2_100x40c[4]);
 153:main.c        **** 	//			i++;
 154:main.c        **** 	//			break;
 155:main.c        **** 	//		case 3:
 156:main.c        **** 	//			lcdIcon(15, 88, 100, 40, _fire_3_100x40c[2], _fire_3_100x40c[3],
 157:main.c        **** 	//					&_fire_3_100x40c[4]);
 158:main.c        **** 	//			i++;
 159:main.c        **** 	//			break;
 160:main.c        **** 	//		case 4:
 161:main.c        **** 	//			lcdIcon(15, 88, 100, 40, _fire_4_100x40c[2], _fire_4_100x40c[3],
 162:main.c        **** 	//					&_fire_4_100x40c[4]);
 163:main.c        **** 	//			i = 0;
 164:main.c        **** 	//			break;
 165:main.c        **** 	//		default:
 166:main.c        **** 	//			i = 0;
 167:main.c        **** 	//			break;
 168:main.c        **** 	//		}
 169:main.c        **** 	//		osSleep(20);
 170:main.c        **** 	//	}
 171:main.c        **** }
 172:main.c        **** 
 173:main.c        **** /*****************************************************************************
 174:main.c        ****  *
 175:main.c        ****  * Description:
 176:main.c        ****  *    The timer tick entry function that is called once every timer tick
 177:main.c        ****  *    interrupt in the RTOS. Observe that any processing in this
 178:main.c        ****  *    function must be kept as short as possible since this function
 179:main.c        ****  *    execute in interrupt context.
 180:main.c        ****  *
 181:main.c        ****  * Params:
 182:main.c        ****  *    [in] elapsedTime - The number of elapsed milliseconds since last call.
 183:main.c        ****  *
 184:main.c        ****  ****************************************************************************/
 185:main.c        **** void appTick(tU32 elapsedTime) {
  19              		.loc 1 185 0
  20              	.LVL0:
 186:main.c        **** 	msClock += elapsedTime;
  21              		.loc 1 186 0
  22 0000 024A     		ldr	r2, .L3
  23 0002 1368     		ldr	r3, [r2]
  24 0004 1B18     		add	r3, r3, r0
  25              		.loc 1 185 0
  26              		@ lr needed for prologue
  27              		.loc 1 186 0
  28 0006 1360     		str	r3, [r2]
 187:main.c        **** }
  29              		.loc 1 187 0
  30              		@ sp needed for prologue
  31 0008 7047     		bx	lr
  32              	.L4:
  33 000a 0000     		.align	2
  34              	.L3:
  35 000c 00000000 		.word	msClock
  36              	.LFE7:
  37              		.size	appTick, .-appTick
ARM GAS  /cygdrive/c/DOCUME~1/mkwapisz/LOCALS~1/Temp/cc49RH3V.s 			page 5


  38              		.align	2
  39              		.global	main
  40              		.code 16
  41              		.thumb_func
  42              		.type	main, %function
  43              	main:
  44              	.LFB2:
  45              		.loc 1 37 0
  46 0010 30B5     		push	{r4, r5, lr}
  47              	.LCFI0:
  48              		.loc 1 42 0
  49 0012 124A     		ldr	r2, .L7
  50 0014 1368     		ldr	r3, [r2]
  51 0016 8021     		mov	r1, #128
  52 0018 0B43     		orr	r3, r3, r1
  53 001a 1360     		str	r3, [r2]
  54              		.loc 1 43 0
  55 001c 104B     		ldr	r3, .L7+4
  56              		.loc 1 37 0
  57 001e 84B0     		sub	sp, sp, #16
  58              	.LCFI1:
  59              		.loc 1 43 0
  60 0020 1960     		str	r1, [r3]
  61              		.loc 1 45 0
  62 0022 FFF7FEFF 		bl	osInit
  63              		.loc 1 47 0
  64 0026 6D46     		mov	r5, sp
  65 0028 0123     		mov	r3, #1
  66 002a 0E35     		add	r5, r5, #14
  67 002c 0093     		str	r3, [sp]
  68 002e 6C46     		mov	r4, sp
  69 0030 0023     		mov	r3, #0
  70 0032 C822     		mov	r2, #200
  71 0034 5200     		lsl	r2, r2, #1
  72 0036 0193     		str	r3, [sp, #4]
  73 0038 0F34     		add	r4, r4, #15
  74 003a 2B1C     		mov	r3, r5
  75 003c 0948     		ldr	r0, .L7+8
  76 003e 0A49     		ldr	r1, .L7+12
  77 0040 0294     		str	r4, [sp, #8]
  78 0042 FFF7FEFF 		bl	osCreateProcess
  79              	.LVL1:
  80              		.loc 1 49 0
  81 0046 2878     		ldrb	r0, [r5]
  82 0048 211C     		mov	r1, r4
  83 004a FFF7FEFF 		bl	osStartProcess
  84              		.loc 1 51 0
  85 004e FFF7FEFF 		bl	osStart
  86              		.loc 1 53 0
  87 0052 0020     		mov	r0, #0
  88 0054 04B0     		add	sp, sp, #16
  89              		@ sp needed for prologue
  90 0056 30BC     		pop	{r4, r5}
  91 0058 02BC     		pop	{r1}
  92 005a 0847     		bx	r1
  93              	.L8:
  94              		.align	2
ARM GAS  /cygdrive/c/DOCUME~1/mkwapisz/LOCALS~1/Temp/cc49RH3V.s 			page 6


  95              	.L7:
  96 005c 088002E0 		.word	-536707064
  97 0060 048002E0 		.word	-536707068
  98 0064 00000000 		.word	ProceduraGlowna
  99 0068 04000000 		.word	ProceduraGlownaPamiec
 100              	.LFE2:
 101              		.size	main, .-main
 102              		.align	2
 103              		.code 16
 104              		.thumb_func
 105              		.type	ProceduraGlowna, %function
 106              	ProceduraGlowna:
 107              	.LFB3:
 108              		.loc 1 58 0
 109 006c F0B5     		push	{r4, r5, r6, r7, lr}
 110              	.LCFI2:
 111              	.LVL2:
 112 006e 84B0     		sub	sp, sp, #16
 113              	.LCFI3:
 114              		.loc 1 61 0
 115 0070 134D     		ldr	r5, .L11
 116 0072 6C46     		mov	r4, sp
 117 0074 8022     		mov	r2, #128
 118 0076 0F34     		add	r4, r4, #15
 119 0078 0327     		mov	r7, #3
 120 007a 0026     		mov	r6, #0
 121 007c 2B1C     		mov	r3, r5
 122 007e 1201     		lsl	r2, r2, #4
 123 0080 1048     		ldr	r0, .L11+4
 124              	.LVL3:
 125 0082 1149     		ldr	r1, .L11+8
 126 0084 0097     		str	r7, [sp]
 127 0086 0196     		str	r6, [sp, #4]
 128 0088 0294     		str	r4, [sp, #8]
 129 008a FFF7FEFF 		bl	osCreateProcess
 130              		.loc 1 62 0
 131 008e 2878     		ldrb	r0, [r5]
 132 0090 211C     		mov	r1, r4
 133 0092 FFF7FEFF 		bl	osStartProcess
 134              		.loc 1 67 0
 135 0096 0D4D     		ldr	r5, .L11+12
 136 0098 0D4A     		ldr	r2, .L11+16
 137 009a 2B1C     		mov	r3, r5
 138 009c 0D48     		ldr	r0, .L11+20
 139 009e 0E49     		ldr	r1, .L11+24
 140 00a0 0097     		str	r7, [sp]
 141 00a2 0196     		str	r6, [sp, #4]
 142 00a4 0294     		str	r4, [sp, #8]
 143 00a6 FFF7FEFF 		bl	osCreateProcess
 144              		.loc 1 68 0
 145 00aa 2878     		ldrb	r0, [r5]
 146 00ac 211C     		mov	r1, r4
 147 00ae FFF7FEFF 		bl	osStartProcess
 148              		.loc 1 70 0
 149 00b2 FFF7FEFF 		bl	osDeleteProcess
 150              		.loc 1 71 0
 151 00b6 04B0     		add	sp, sp, #16
ARM GAS  /cygdrive/c/DOCUME~1/mkwapisz/LOCALS~1/Temp/cc49RH3V.s 			page 7


 152              		@ sp needed for prologue
 153 00b8 F0BC     		pop	{r4, r5, r6, r7}
 154 00ba 01BC     		pop	{r0}
 155 00bc 0047     		bx	r0
 156              	.L12:
 157 00be 0000     		.align	2
 158              	.L11:
 159 00c0 94090000 		.word	pid1
 160 00c4 00000000 		.word	proc1
 161 00c8 94010000 		.word	proc1Stack
 162 00cc 830C0000 		.word	pid2
 163 00d0 EE020000 		.word	750
 164 00d4 00000000 		.word	proc2
 165 00d8 95090000 		.word	proc2Stack
 166              	.LFE3:
 167              		.size	ProceduraGlowna, .-ProceduraGlowna
 168              		.section	.rodata.str1.4,"aMS",%progbits,1
 169              		.align	2
 170              	.LC9:
 171 0000 53746572 		.ascii	"Sterowanie\000"
 171      6F77616E 
 171      696500
 172 000b 00       		.align	2
 173              	.LC11:
 174 000c 4772616A 		.ascii	"Graj\000"
 174      00
 175              		.text
 176              		.align	2
 177              		.code 16
 178              		.thumb_func
 179              		.type	drawMenu, %function
 180              	drawMenu:
 181              	.LFB5:
 182              		.loc 1 77 0
 183 00dc 00B5     		push	{lr}
 184              	.LCFI4:
 185 00de 81B0     		sub	sp, sp, #4
 186              	.LCFI5:
 187              		.loc 1 78 0
 188 00e0 0021     		mov	r1, #0
 189 00e2 0020     		mov	r0, #0
 190 00e4 FFF7FEFF 		bl	lcdColor
 191              		.loc 1 79 0
 192 00e8 FFF7FEFF 		bl	lcdClrscr
 193              		.loc 1 81 0
 194 00ec 6D23     		mov	r3, #109
 195 00ee 0093     		str	r3, [sp]
 196 00f0 0021     		mov	r1, #0
 197 00f2 6622     		mov	r2, #102
 198 00f4 8023     		mov	r3, #128
 199 00f6 0E20     		mov	r0, #14
 200 00f8 FFF7FEFF 		bl	lcdRect
 201              		.loc 1 82 0
 202 00fc 0023     		mov	r3, #0
 203 00fe 6422     		mov	r2, #100
 204 0100 0093     		str	r3, [sp]
 205 0102 1121     		mov	r1, #17
ARM GAS  /cygdrive/c/DOCUME~1/mkwapisz/LOCALS~1/Temp/cc49RH3V.s 			page 8


 206 0104 6E23     		mov	r3, #110
 207 0106 0F20     		mov	r0, #15
 208 0108 FFF7FEFF 		bl	lcdRect
 209              		.loc 1 84 0
 210 010c 0121     		mov	r1, #1
 211 010e 1820     		mov	r0, #24
 212 0110 FFF7FEFF 		bl	lcdGotoxy
 213              		.loc 1 85 0
 214 0114 0021     		mov	r1, #0
 215 0116 6D20     		mov	r0, #109
 216 0118 FFF7FEFF 		bl	lcdColor
 217              		.loc 1 86 0
 218 011c 0848     		ldr	r0, .L15
 219 011e FFF7FEFF 		bl	lcdPuts
 220              		.loc 1 88 0
 221 0122 2221     		mov	r1, #34
 222 0124 1620     		mov	r0, #22
 223 0126 FFF7FEFF 		bl	lcdGotoxy
 224              		.loc 1 89 0
 225 012a E021     		mov	r1, #224
 226 012c 0020     		mov	r0, #0
 227 012e FFF7FEFF 		bl	lcdColor
 228              		.loc 1 91 0
 229 0132 0448     		ldr	r0, .L15+4
 230 0134 FFF7FEFF 		bl	lcdPuts
 231              		.loc 1 92 0
 232 0138 01B0     		add	sp, sp, #4
 233              		@ sp needed for prologue
 234 013a 01BC     		pop	{r0}
 235 013c 0047     		bx	r0
 236              	.L16:
 237 013e 0000     		.align	2
 238              	.L15:
 239 0140 00000000 		.word	.LC9
 240 0144 0C000000 		.word	.LC11
 241              	.LFE5:
 242              		.size	drawMenu, .-drawMenu
 243              		.section	.rodata.str1.4
 244 0011 000000   		.align	2
 245              	.LC13:
 246 0014 0A0A0A0A 		.ascii	"\012\012\012\012\012*******************************"
 246      0A2A2A2A 
 246      2A2A2A2A 
 246      2A2A2A2A 
 246      2A2A2A2A 
 247 0038 2A2A2A2A 		.ascii	"************************\012\000"
 247      2A2A2A2A 
 247      2A2A2A2A 
 247      2A2A2A2A 
 247      2A2A2A2A 
 248 0052 0000     		.align	2
 249              	.LC15:
 250 0054 2A202020 		.ascii	"*                                                  "
 250      20202020 
 250      20202020 
 250      20202020 
 250      20202020 
ARM GAS  /cygdrive/c/DOCUME~1/mkwapisz/LOCALS~1/Temp/cc49RH3V.s 			page 9


 251 0087 2020202A 		.ascii	"   *\012\000"
 251      0A00
 252 008d 000000   		.align	2
 253              	.LC17:
 254 0090 2A204465 		.ascii	"* Demo program for 'Experiment Expansion Board'    "
 254      6D6F2070 
 254      726F6772 
 254      616D2066 
 254      6F722027 
 255 00c3 2020202A 		.ascii	"   *\012\000"
 255      0A00
 256 00c9 000000   		.align	2
 257              	.LC19:
 258 00cc 2A207275 		.ascii	"* running on LPC2103 Education Board.              "
 258      6E6E696E 
 258      67206F6E 
 258      204C5043 
 258      32313033 
 259 00ff 2020202A 		.ascii	"   *\012\000"
 259      0A00
 260 0105 000000   		.align	2
 261              	.LC21:
 262 0108 2A202D20 		.ascii	"* - Snake game                                     "
 262      536E616B 
 262      65206761 
 262      6D652020 
 262      20202020 
 263 013b 2020202A 		.ascii	"   *\012\000"
 263      0A00
 264 0141 000000   		.align	2
 265              	.LC23:
 266 0144 2A202843 		.ascii	"* (C) Embedded Artists 2008                        "
 266      2920456D 
 266      62656464 
 266      65642041 
 266      72746973 
 267 0177 2020202A 		.ascii	"   *\012\000"
 267      0A00
 268 017d 000000   		.align	2
 269              	.LC25:
 270 0180 2A2A2A2A 		.ascii	"***************************************************"
 270      2A2A2A2A 
 270      2A2A2A2A 
 270      2A2A2A2A 
 270      2A2A2A2A 
 271 01b3 2A2A2A2A 		.ascii	"****\012\000"
 271      0A00
 272 01b9 000000   		.text
 273              		.align	2
 274              		.code 16
 275              		.thumb_func
 276              		.type	proc2, %function
 277              	proc2:
 278              	.LFB6:
 279              		.loc 1 94 0
 280 0148 10B5     		push	{r4, lr}
 281              	.LCFI6:
ARM GAS  /cygdrive/c/DOCUME~1/mkwapisz/LOCALS~1/Temp/cc49RH3V.s 			page 10


 282              	.LVL4:
 283              		.loc 1 97 0
 284 014a 2748     		ldr	r0, .L38
 285              	.LVL5:
 286 014c FFF7FEFF 		bl	simplePrintf
 287              		.loc 1 98 0
 288 0150 264C     		ldr	r4, .L38+4
 289 0152 201C     		mov	r0, r4
 290 0154 FFF7FEFF 		bl	simplePrintf
 291              		.loc 1 99 0
 292 0158 2548     		ldr	r0, .L38+8
 293 015a FFF7FEFF 		bl	simplePrintf
 294              		.loc 1 100 0
 295 015e 2548     		ldr	r0, .L38+12
 296 0160 FFF7FEFF 		bl	simplePrintf
 297              		.loc 1 101 0
 298 0164 2448     		ldr	r0, .L38+16
 299 0166 FFF7FEFF 		bl	simplePrintf
 300              		.loc 1 102 0
 301 016a 201C     		mov	r0, r4
 302 016c FFF7FEFF 		bl	simplePrintf
 303              		.loc 1 103 0
 304 0170 2248     		ldr	r0, .L38+20
 305 0172 FFF7FEFF 		bl	simplePrintf
 306              		.loc 1 104 0
 307 0176 201C     		mov	r0, r4
 308 0178 FFF7FEFF 		bl	simplePrintf
 309              		.loc 1 105 0
 310 017c 2048     		ldr	r0, .L38+24
 311 017e FFF7FEFF 		bl	simplePrintf
 312              		.loc 1 107 0
 313 0182 2049     		ldr	r1, .L38+28
 314 0184 C022     		mov	r2, #192
 315 0186 0B68     		ldr	r3, [r1]
 316 0188 D201     		lsl	r2, r2, #7
 317 018a 1343     		orr	r3, r3, r2
 318 018c 0B60     		str	r3, [r1]
 319              		.loc 1 108 0
 320 018e 1E4B     		ldr	r3, .L38+32
 321 0190 1A60     		str	r2, [r3]
 322              		.loc 1 110 0
 323 0192 FFF7FEFF 		bl	lcdInit
 324              		.loc 1 111 0
 325 0196 FFF7FEFF 		bl	initKeyProc
 326              		.loc 1 112 0
 327 019a FFF79FFF 		bl	drawMenu
 328              		.loc 1 113 0
 329 019e 1B4B     		ldr	r3, .L38+36
 330 01a0 1878     		ldrb	r0, [r3]
 331              	.L35:
 332 01a2 FFF7FEFF 		bl	lcdContrast
 333              	.LVL6:
 334              	.L37:
 335              	.LBB2:
 336              		.loc 1 117 0
 337 01a6 FFF7FEFF 		bl	checkKey
 338              	.LVL7:
ARM GAS  /cygdrive/c/DOCUME~1/mkwapisz/LOCALS~1/Temp/cc49RH3V.s 			page 11


 339              	.LVL8:
 340              		.loc 1 118 0
 341 01aa 0028     		cmp	r0, #0
 342 01ac FBD0     		beq	.L37
 343              		.loc 1 120 0
 344 01ae 1028     		cmp	r0, #16
 345 01b0 02D1     		bne	.L20
 346              		.loc 1 122 0
 347 01b2 FFF793FF 		bl	drawMenu
 348              	.LVL9:
 349 01b6 F6E7     		b	.L37
 350              	.LVL10:
 351              	.L20:
 352              		.loc 1 126 0
 353 01b8 0228     		cmp	r0, #2
 354 01ba 0AD1     		bne	.L22
 355              		.loc 1 127 0
 356 01bc 134A     		ldr	r2, .L38+36
 357 01be 1378     		ldrb	r3, [r2]
 358 01c0 0133     		add	r3, r3, #1
 359 01c2 1B06     		lsl	r3, r3, #24
 360 01c4 1B0E     		lsr	r3, r3, #24
 361 01c6 1370     		strb	r3, [r2]
 362              		.loc 1 128 0
 363 01c8 1B06     		lsl	r3, r3, #24
 364 01ca 002B     		cmp	r3, #0
 365 01cc 09DA     		bge	.L27
 366              		.loc 1 129 0
 367 01ce 7F23     		mov	r3, #127
 368 01d0 06E0     		b	.L36
 369              	.L22:
 370              		.loc 1 131 0
 371 01d2 0828     		cmp	r0, #8
 372 01d4 E7D1     		bne	.L37
 373              		.loc 1 132 0
 374 01d6 0D4A     		ldr	r2, .L38+36
 375 01d8 1378     		ldrb	r3, [r2]
 376 01da 002B     		cmp	r3, #0
 377 01dc 01D0     		beq	.L27
 378              		.loc 1 133 0
 379 01de 013B     		sub	r3, r3, #1
 380              	.L36:
 381 01e0 1370     		strb	r3, [r2]
 382              	.L27:
 383              		.loc 1 134 0
 384 01e2 1078     		ldrb	r0, [r2]
 385              	.LVL11:
 386 01e4 DDE7     		b	.L35
 387              	.L39:
 388 01e6 0000     		.align	2
 389              	.L38:
 390 01e8 14000000 		.word	.LC13
 391 01ec 54000000 		.word	.LC15
 392 01f0 90000000 		.word	.LC17
 393 01f4 CC000000 		.word	.LC19
 394 01f8 08010000 		.word	.LC21
 395 01fc 44010000 		.word	.LC23
ARM GAS  /cygdrive/c/DOCUME~1/mkwapisz/LOCALS~1/Temp/cc49RH3V.s 			page 12


 396 0200 80010000 		.word	.LC25
 397 0204 088002E0 		.word	-536707064
 398 0208 048002E0 		.word	-536707068
 399 020c 00000000 		.word	contrast
 400              	.LBE2:
 401              	.LFE6:
 402              		.size	proc2, .-proc2
 403              		.align	2
 404              		.code 16
 405              		.thumb_func
 406              		.type	proc1, %function
 407              	proc1:
 408              	.LFB4:
 409              		.loc 1 73 0
 410 0210 00B5     		push	{lr}
 411              	.LCFI7:
 412              	.LVL12:
 413              		.loc 1 74 0
 414 0212 FFF7FEFF 		bl	WyswietlTekstNaLcd
 415              	.LVL13:
 416              		.loc 1 75 0
 417              		@ sp needed for prologue
 418 0216 01BC     		pop	{r0}
 419 0218 0047     		bx	r0
 420              	.LFE4:
 421              		.size	proc1, .-proc1
 422              		.global	msClock
 423              		.bss
 424              		.align	2
 425              		.type	msClock, %object
 426              		.size	msClock, 4
 427              	msClock:
 428 0000 00000000 		.space	4
 429              		.data
 430              		.type	contrast, %object
 431              		.size	contrast, 1
 432              	contrast:
 433 0000 2E       		.byte	46
 434              		.bss
 435              	ProceduraGlownaPamiec:
 436 0004 00000000 		.space	400
 436      00000000 
 436      00000000 
 436      00000000 
 436      00000000 
 437              	proc1Stack:
 438 0194 00000000 		.space	2048
 438      00000000 
 438      00000000 
 438      00000000 
 438      00000000 
 439              	pid1:
 440 0994 00       		.space	1
 441              	proc2Stack:
 442 0995 00000000 		.space	750
 442      00000000 
 442      00000000 
ARM GAS  /cygdrive/c/DOCUME~1/mkwapisz/LOCALS~1/Temp/cc49RH3V.s 			page 13


 442      00000000 
 442      00000000 
 443              	pid2:
 444 0c83 00       		.space	1
 445              		.section	.debug_frame,"",%progbits
 446              	.Lframe0:
 447 0000 0C000000 		.4byte	.LECIE0-.LSCIE0
 448              	.LSCIE0:
 449 0004 FFFFFFFF 		.4byte	0xffffffff
 450 0008 01       		.byte	0x1
 451 0009 00       		.ascii	"\000"
 452 000a 01       		.uleb128 0x1
 453 000b 7C       		.sleb128 -4
 454 000c 0E       		.byte	0xe
 455 000d 0C       		.byte	0xc
 456 000e 0D       		.uleb128 0xd
 457 000f 00       		.uleb128 0x0
 458              		.align	2
 459              	.LECIE0:
 460              	.LSFDE0:
 461 0010 0C000000 		.4byte	.LEFDE0-.LASFDE0
 462              	.LASFDE0:
 463 0014 00000000 		.4byte	.Lframe0
 464 0018 00000000 		.4byte	.LFB7
 465 001c 10000000 		.4byte	.LFE7-.LFB7
 466              		.align	2
 467              	.LEFDE0:
 468              	.LSFDE2:
 469 0020 18000000 		.4byte	.LEFDE2-.LASFDE2
 470              	.LASFDE2:
 471 0024 00000000 		.4byte	.Lframe0
 472 0028 10000000 		.4byte	.LFB2
 473 002c 5C000000 		.4byte	.LFE2-.LFB2
 474 0030 42       		.byte	0x4
 475              		.4byte	.LCFI0-.LFB2
 476 0031 0E       		.byte	0xe
 477 0032 0C       		.uleb128 0xc
 478 0033 84       		.byte	0x84
 479 0034 03       		.uleb128 0x3
 480 0035 85       		.byte	0x85
 481 0036 02       		.uleb128 0x2
 482 0037 8E       		.byte	0x8e
 483 0038 01       		.uleb128 0x1
 484 0039 4E       		.byte	0x4
 485              		.4byte	.LCFI1-.LCFI0
 486 003a 0E       		.byte	0xe
 487 003b 1C       		.uleb128 0x1c
 488              		.align	2
 489              	.LEFDE2:
 490              	.LSFDE4:
 491 003c 1C000000 		.4byte	.LEFDE4-.LASFDE4
 492              	.LASFDE4:
 493 0040 00000000 		.4byte	.Lframe0
 494 0044 6C000000 		.4byte	.LFB3
 495 0048 70000000 		.4byte	.LFE3-.LFB3
 496 004c 42       		.byte	0x4
 497              		.4byte	.LCFI2-.LFB3
ARM GAS  /cygdrive/c/DOCUME~1/mkwapisz/LOCALS~1/Temp/cc49RH3V.s 			page 14


 498 004d 0E       		.byte	0xe
 499 004e 14       		.uleb128 0x14
 500 004f 84       		.byte	0x84
 501 0050 05       		.uleb128 0x5
 502 0051 85       		.byte	0x85
 503 0052 04       		.uleb128 0x4
 504 0053 86       		.byte	0x86
 505 0054 03       		.uleb128 0x3
 506 0055 87       		.byte	0x87
 507 0056 02       		.uleb128 0x2
 508 0057 8E       		.byte	0x8e
 509 0058 01       		.uleb128 0x1
 510 0059 42       		.byte	0x4
 511              		.4byte	.LCFI3-.LCFI2
 512 005a 0E       		.byte	0xe
 513 005b 24       		.uleb128 0x24
 514              		.align	2
 515              	.LEFDE4:
 516              	.LSFDE6:
 517 005c 14000000 		.4byte	.LEFDE6-.LASFDE6
 518              	.LASFDE6:
 519 0060 00000000 		.4byte	.Lframe0
 520 0064 DC000000 		.4byte	.LFB5
 521 0068 6C000000 		.4byte	.LFE5-.LFB5
 522 006c 42       		.byte	0x4
 523              		.4byte	.LCFI4-.LFB5
 524 006d 0E       		.byte	0xe
 525 006e 04       		.uleb128 0x4
 526 006f 8E       		.byte	0x8e
 527 0070 01       		.uleb128 0x1
 528 0071 42       		.byte	0x4
 529              		.4byte	.LCFI5-.LCFI4
 530 0072 0E       		.byte	0xe
 531 0073 08       		.uleb128 0x8
 532              		.align	2
 533              	.LEFDE6:
 534              	.LSFDE8:
 535 0074 14000000 		.4byte	.LEFDE8-.LASFDE8
 536              	.LASFDE8:
 537 0078 00000000 		.4byte	.Lframe0
 538 007c 48010000 		.4byte	.LFB6
 539 0080 C8000000 		.4byte	.LFE6-.LFB6
 540 0084 42       		.byte	0x4
 541              		.4byte	.LCFI6-.LFB6
 542 0085 0E       		.byte	0xe
 543 0086 08       		.uleb128 0x8
 544 0087 84       		.byte	0x84
 545 0088 02       		.uleb128 0x2
 546 0089 8E       		.byte	0x8e
 547 008a 01       		.uleb128 0x1
 548 008b 00       		.align	2
 549              	.LEFDE8:
 550              	.LSFDE10:
 551 008c 14000000 		.4byte	.LEFDE10-.LASFDE10
 552              	.LASFDE10:
 553 0090 00000000 		.4byte	.Lframe0
 554 0094 10020000 		.4byte	.LFB4
ARM GAS  /cygdrive/c/DOCUME~1/mkwapisz/LOCALS~1/Temp/cc49RH3V.s 			page 15


 555 0098 0A000000 		.4byte	.LFE4-.LFB4
 556 009c 42       		.byte	0x4
 557              		.4byte	.LCFI7-.LFB4
 558 009d 0E       		.byte	0xe
 559 009e 04       		.uleb128 0x4
 560 009f 8E       		.byte	0x8e
 561 00a0 01       		.uleb128 0x1
 562 00a1 000000   		.align	2
 563              	.LEFDE10:
 564              		.file 2 "../pre_emptive_os/api/../api/general.h"
 565              		.text
 566              	.Letext0:
 567 021a C046     		.section	.debug_loc,"",%progbits
 568              	.Ldebug_loc0:
 569              	.LLST1:
 570 0000 10000000 		.4byte	.LFB2-.Ltext0
 571 0004 12000000 		.4byte	.LCFI0-.Ltext0
 572 0008 0100     		.2byte	0x1
 573 000a 5D       		.byte	0x5d
 574 000b 12000000 		.4byte	.LCFI0-.Ltext0
 575 000f 20000000 		.4byte	.LCFI1-.Ltext0
 576 0013 0200     		.2byte	0x2
 577 0015 7D       		.byte	0x7d
 578 0016 0C       		.sleb128 12
 579 0017 20000000 		.4byte	.LCFI1-.Ltext0
 580 001b 6C000000 		.4byte	.LFE2-.Ltext0
 581 001f 0200     		.2byte	0x2
 582 0021 7D       		.byte	0x7d
 583 0022 1C       		.sleb128 28
 584 0023 00000000 		.4byte	0x0
 585 0027 00000000 		.4byte	0x0
 586              	.LLST2:
 587 002b 6C000000 		.4byte	.LFB3-.Ltext0
 588 002f 6E000000 		.4byte	.LCFI2-.Ltext0
 589 0033 0100     		.2byte	0x1
 590 0035 5D       		.byte	0x5d
 591 0036 6E000000 		.4byte	.LCFI2-.Ltext0
 592 003a 70000000 		.4byte	.LCFI3-.Ltext0
 593 003e 0200     		.2byte	0x2
 594 0040 7D       		.byte	0x7d
 595 0041 14       		.sleb128 20
 596 0042 70000000 		.4byte	.LCFI3-.Ltext0
 597 0046 DC000000 		.4byte	.LFE3-.Ltext0
 598 004a 0200     		.2byte	0x2
 599 004c 7D       		.byte	0x7d
 600 004d 24       		.sleb128 36
 601 004e 00000000 		.4byte	0x0
 602 0052 00000000 		.4byte	0x0
 603              	.LLST3:
 604 0056 6E000000 		.4byte	.LVL2-.Ltext0
 605 005a 82000000 		.4byte	.LVL3-.Ltext0
 606 005e 0100     		.2byte	0x1
 607 0060 50       		.byte	0x50
 608 0061 00000000 		.4byte	0x0
 609 0065 00000000 		.4byte	0x0
 610              	.LLST4:
 611 0069 DC000000 		.4byte	.LFB5-.Ltext0
ARM GAS  /cygdrive/c/DOCUME~1/mkwapisz/LOCALS~1/Temp/cc49RH3V.s 			page 16


 612 006d DE000000 		.4byte	.LCFI4-.Ltext0
 613 0071 0100     		.2byte	0x1
 614 0073 5D       		.byte	0x5d
 615 0074 DE000000 		.4byte	.LCFI4-.Ltext0
 616 0078 E0000000 		.4byte	.LCFI5-.Ltext0
 617 007c 0200     		.2byte	0x2
 618 007e 7D       		.byte	0x7d
 619 007f 04       		.sleb128 4
 620 0080 E0000000 		.4byte	.LCFI5-.Ltext0
 621 0084 48010000 		.4byte	.LFE5-.Ltext0
 622 0088 0200     		.2byte	0x2
 623 008a 7D       		.byte	0x7d
 624 008b 08       		.sleb128 8
 625 008c 00000000 		.4byte	0x0
 626 0090 00000000 		.4byte	0x0
 627              	.LLST5:
 628 0094 48010000 		.4byte	.LFB6-.Ltext0
 629 0098 4A010000 		.4byte	.LCFI6-.Ltext0
 630 009c 0100     		.2byte	0x1
 631 009e 5D       		.byte	0x5d
 632 009f 4A010000 		.4byte	.LCFI6-.Ltext0
 633 00a3 10020000 		.4byte	.LFE6-.Ltext0
 634 00a7 0200     		.2byte	0x2
 635 00a9 7D       		.byte	0x7d
 636 00aa 08       		.sleb128 8
 637 00ab 00000000 		.4byte	0x0
 638 00af 00000000 		.4byte	0x0
 639              	.LLST6:
 640 00b3 4A010000 		.4byte	.LVL4-.Ltext0
 641 00b7 4C010000 		.4byte	.LVL5-.Ltext0
 642 00bb 0100     		.2byte	0x1
 643 00bd 50       		.byte	0x50
 644 00be 00000000 		.4byte	0x0
 645 00c2 00000000 		.4byte	0x0
 646              	.LLST7:
 647 00c6 A6010000 		.4byte	.LVL6-.Ltext0
 648 00ca AA010000 		.4byte	.LVL7-.Ltext0
 649 00ce 0100     		.2byte	0x1
 650 00d0 50       		.byte	0x50
 651 00d1 AA010000 		.4byte	.LVL8-.Ltext0
 652 00d5 B6010000 		.4byte	.LVL9-.Ltext0
 653 00d9 0100     		.2byte	0x1
 654 00db 50       		.byte	0x50
 655 00dc B8010000 		.4byte	.LVL10-.Ltext0
 656 00e0 E4010000 		.4byte	.LVL11-.Ltext0
 657 00e4 0100     		.2byte	0x1
 658 00e6 50       		.byte	0x50
 659 00e7 00000000 		.4byte	0x0
 660 00eb 00000000 		.4byte	0x0
 661              	.LLST8:
 662 00ef 10020000 		.4byte	.LFB4-.Ltext0
 663 00f3 12020000 		.4byte	.LCFI7-.Ltext0
 664 00f7 0100     		.2byte	0x1
 665 00f9 5D       		.byte	0x5d
 666 00fa 12020000 		.4byte	.LCFI7-.Ltext0
 667 00fe 1A020000 		.4byte	.LFE4-.Ltext0
 668 0102 0200     		.2byte	0x2
ARM GAS  /cygdrive/c/DOCUME~1/mkwapisz/LOCALS~1/Temp/cc49RH3V.s 			page 17


 669 0104 7D       		.byte	0x7d
 670 0105 04       		.sleb128 4
 671 0106 00000000 		.4byte	0x0
 672 010a 00000000 		.4byte	0x0
 673              	.LLST9:
 674 010e 12020000 		.4byte	.LVL12-.Ltext0
 675 0112 16020000 		.4byte	.LVL13-.Ltext0
 676 0116 0100     		.2byte	0x1
 677 0118 50       		.byte	0x50
 678 0119 00000000 		.4byte	0x0
 679 011d 00000000 		.4byte	0x0
 680              		.section	.debug_info
 681 0000 38020000 		.4byte	0x238
 682 0004 0200     		.2byte	0x2
 683 0006 00000000 		.4byte	.Ldebug_abbrev0
 684 000a 04       		.byte	0x4
 685 000b 01       		.uleb128 0x1
 686 000c 00000000 		.4byte	.Ldebug_line0
 687 0010 1A020000 		.4byte	.Letext0
 688 0014 00000000 		.4byte	.Ltext0
 689 0018 40000000 		.4byte	.LASF23
 690 001c 01       		.byte	0x1
 691 001d FA000000 		.4byte	.LASF24
 692 0021 80000000 		.4byte	.LASF25
 693 0025 02       		.uleb128 0x2
 694 0026 74553800 		.ascii	"tU8\000"
 695 002a 02       		.byte	0x2
 696 002b 47       		.byte	0x47
 697 002c 30000000 		.4byte	0x30
 698 0030 03       		.uleb128 0x3
 699 0031 60000000 		.4byte	.LASF0
 700 0035 01       		.byte	0x1
 701 0036 08       		.byte	0x8
 702 0037 03       		.uleb128 0x3
 703 0038 CD000000 		.4byte	.LASF1
 704 003c 02       		.byte	0x2
 705 003d 07       		.byte	0x7
 706 003e 04       		.uleb128 0x4
 707 003f 22000000 		.4byte	.LASF2
 708 0043 02       		.byte	0x2
 709 0044 49       		.byte	0x49
 710 0045 49000000 		.4byte	0x49
 711 0049 03       		.uleb128 0x3
 712 004a C0000000 		.4byte	.LASF3
 713 004e 04       		.byte	0x4
 714 004f 07       		.byte	0x7
 715 0050 03       		.uleb128 0x3
 716 0051 6E000000 		.4byte	.LASF4
 717 0055 01       		.byte	0x1
 718 0056 06       		.byte	0x6
 719 0057 03       		.uleb128 0x3
 720 0058 10000000 		.4byte	.LASF5
 721 005c 02       		.byte	0x2
 722 005d 05       		.byte	0x5
 723 005e 05       		.uleb128 0x5
 724 005f 696E7400 		.ascii	"int\000"
 725 0063 04       		.byte	0x4
ARM GAS  /cygdrive/c/DOCUME~1/mkwapisz/LOCALS~1/Temp/cc49RH3V.s 			page 18


 726 0064 05       		.byte	0x5
 727 0065 03       		.uleb128 0x3
 728 0066 01010000 		.4byte	.LASF6
 729 006a 04       		.byte	0x4
 730 006b 07       		.byte	0x7
 731 006c 06       		.uleb128 0x6
 732 006d 04       		.byte	0x4
 733 006e 07       		.uleb128 0x7
 734 006f 93000000 		.4byte	0x93
 735 0073 01       		.byte	0x1
 736 0074 1A000000 		.4byte	.LASF7
 737 0078 01       		.byte	0x1
 738 0079 B9       		.byte	0xb9
 739 007a 01       		.byte	0x1
 740 007b 00000000 		.4byte	.LFB7
 741 007f 10000000 		.4byte	.LFE7
 742 0083 01       		.byte	0x1
 743 0084 5D       		.byte	0x5d
 744 0085 08       		.uleb128 0x8
 745 0086 2A010000 		.4byte	.LASF10
 746 008a 01       		.byte	0x1
 747 008b B9       		.byte	0xb9
 748 008c 3E000000 		.4byte	0x3e
 749 0090 01       		.byte	0x1
 750 0091 50       		.byte	0x50
 751 0092 00       		.byte	0x0
 752 0093 09       		.uleb128 0x9
 753 0094 CD000000 		.4byte	0xcd
 754 0098 01       		.byte	0x1
 755 0099 27000000 		.4byte	.LASF8
 756 009d 01       		.byte	0x1
 757 009e 25       		.byte	0x25
 758 009f 01       		.byte	0x1
 759 00a0 5E000000 		.4byte	0x5e
 760 00a4 10000000 		.4byte	.LFB2
 761 00a8 6C000000 		.4byte	.LFE2
 762 00ac 00000000 		.4byte	.LLST1
 763 00b0 0A       		.uleb128 0xa
 764 00b1 7A000000 		.4byte	.LASF9
 765 00b5 01       		.byte	0x1
 766 00b6 26       		.byte	0x26
 767 00b7 25000000 		.4byte	0x25
 768 00bb 02       		.byte	0x2
 769 00bc 91       		.byte	0x91
 770 00bd 73       		.sleb128 -13
 771 00be 0B       		.uleb128 0xb
 772 00bf 70696400 		.ascii	"pid\000"
 773 00c3 01       		.byte	0x1
 774 00c4 27       		.byte	0x27
 775 00c5 25000000 		.4byte	0x25
 776 00c9 02       		.byte	0x2
 777 00ca 75       		.byte	0x75
 778 00cb 00       		.sleb128 0
 779 00cc 00       		.byte	0x0
 780 00cd 0C       		.uleb128 0xc
 781 00ce 03010000 		.4byte	0x103
 782 00d2 00000000 		.4byte	.LASF11
ARM GAS  /cygdrive/c/DOCUME~1/mkwapisz/LOCALS~1/Temp/cc49RH3V.s 			page 19


 783 00d6 01       		.byte	0x1
 784 00d7 3A       		.byte	0x3a
 785 00d8 01       		.byte	0x1
 786 00d9 6C000000 		.4byte	.LFB3
 787 00dd DC000000 		.4byte	.LFE3
 788 00e1 2B000000 		.4byte	.LLST2
 789 00e5 0D       		.uleb128 0xd
 790 00e6 61726700 		.ascii	"arg\000"
 791 00ea 01       		.byte	0x1
 792 00eb 3A       		.byte	0x3a
 793 00ec 6C000000 		.4byte	0x6c
 794 00f0 56000000 		.4byte	.LLST3
 795 00f4 0A       		.uleb128 0xa
 796 00f5 7A000000 		.4byte	.LASF9
 797 00f9 01       		.byte	0x1
 798 00fa 3B       		.byte	0x3b
 799 00fb 25000000 		.4byte	0x25
 800 00ff 02       		.byte	0x2
 801 0100 91       		.byte	0x91
 802 0101 6B       		.sleb128 -21
 803 0102 00       		.byte	0x0
 804 0103 0E       		.uleb128 0xe
 805 0104 E0000000 		.4byte	.LASF26
 806 0108 01       		.byte	0x1
 807 0109 4D       		.byte	0x4d
 808 010a 01       		.byte	0x1
 809 010b DC000000 		.4byte	.LFB5
 810 010f 48010000 		.4byte	.LFE5
 811 0113 69000000 		.4byte	.LLST4
 812 0117 0C       		.uleb128 0xc
 813 0118 58010000 		.4byte	0x158
 814 011c E9000000 		.4byte	.LASF12
 815 0120 01       		.byte	0x1
 816 0121 5E       		.byte	0x5e
 817 0122 01       		.byte	0x1
 818 0123 48010000 		.4byte	.LFB6
 819 0127 10020000 		.4byte	.LFE6
 820 012b 94000000 		.4byte	.LLST5
 821 012f 0D       		.uleb128 0xd
 822 0130 61726700 		.ascii	"arg\000"
 823 0134 01       		.byte	0x1
 824 0135 5E       		.byte	0x5e
 825 0136 6C000000 		.4byte	0x6c
 826 013a B3000000 		.4byte	.LLST6
 827 013e 0F       		.uleb128 0xf
 828 013f A6010000 		.4byte	.LBB2
 829 0143 10020000 		.4byte	.LBE2
 830 0147 10       		.uleb128 0x10
 831 0148 59000000 		.4byte	.LASF13
 832 014c 01       		.byte	0x1
 833 014d 73       		.byte	0x73
 834 014e 25000000 		.4byte	0x25
 835 0152 C6000000 		.4byte	.LLST7
 836 0156 00       		.byte	0x0
 837 0157 00       		.byte	0x0
 838 0158 0C       		.uleb128 0xc
 839 0159 80010000 		.4byte	0x180
ARM GAS  /cygdrive/c/DOCUME~1/mkwapisz/LOCALS~1/Temp/cc49RH3V.s 			page 20


 840 015d 36010000 		.4byte	.LASF14
 841 0161 01       		.byte	0x1
 842 0162 49       		.byte	0x49
 843 0163 01       		.byte	0x1
 844 0164 10020000 		.4byte	.LFB4
 845 0168 1A020000 		.4byte	.LFE4
 846 016c EF000000 		.4byte	.LLST8
 847 0170 0D       		.uleb128 0xd
 848 0171 61726700 		.ascii	"arg\000"
 849 0175 01       		.byte	0x1
 850 0176 49       		.byte	0x49
 851 0177 6C000000 		.4byte	0x6c
 852 017b 0E010000 		.4byte	.LLST9
 853 017f 00       		.byte	0x0
 854 0180 11       		.uleb128 0x11
 855 0181 91010000 		.4byte	0x191
 856 0185 25000000 		.4byte	0x25
 857 0189 12       		.uleb128 0x12
 858 018a 65000000 		.4byte	0x65
 859 018e 8F01     		.2byte	0x18f
 860 0190 00       		.byte	0x0
 861 0191 0A       		.uleb128 0xa
 862 0192 3C010000 		.4byte	.LASF15
 863 0196 01       		.byte	0x1
 864 0197 0F       		.byte	0xf
 865 0198 80010000 		.4byte	0x180
 866 019c 05       		.byte	0x5
 867 019d 03       		.byte	0x3
 868 019e 04000000 		.4byte	ProceduraGlownaPamiec
 869 01a2 13       		.uleb128 0x13
 870 01a3 18010000 		.4byte	.LASF16
 871 01a7 01       		.byte	0x1
 872 01a8 10       		.byte	0x10
 873 01a9 25000000 		.4byte	0x25
 874 01ad 11       		.uleb128 0x11
 875 01ae BE010000 		.4byte	0x1be
 876 01b2 25000000 		.4byte	0x25
 877 01b6 12       		.uleb128 0x12
 878 01b7 65000000 		.4byte	0x65
 879 01bb FF07     		.2byte	0x7ff
 880 01bd 00       		.byte	0x0
 881 01be 0A       		.uleb128 0xa
 882 01bf 2C000000 		.4byte	.LASF17
 883 01c3 01       		.byte	0x1
 884 01c4 14       		.byte	0x14
 885 01c5 AD010000 		.4byte	0x1ad
 886 01c9 05       		.byte	0x5
 887 01ca 03       		.byte	0x3
 888 01cb 94010000 		.4byte	proc1Stack
 889 01cf 0A       		.uleb128 0xa
 890 01d0 13010000 		.4byte	.LASF18
 891 01d4 01       		.byte	0x1
 892 01d5 15       		.byte	0x15
 893 01d6 25000000 		.4byte	0x25
 894 01da 05       		.byte	0x5
 895 01db 03       		.byte	0x3
 896 01dc 94090000 		.4byte	pid1
ARM GAS  /cygdrive/c/DOCUME~1/mkwapisz/LOCALS~1/Temp/cc49RH3V.s 			page 21


 897 01e0 11       		.uleb128 0x11
 898 01e1 F1010000 		.4byte	0x1f1
 899 01e5 25000000 		.4byte	0x25
 900 01e9 12       		.uleb128 0x12
 901 01ea 65000000 		.4byte	0x65
 902 01ee ED02     		.2byte	0x2ed
 903 01f0 00       		.byte	0x0
 904 01f1 0A       		.uleb128 0xa
 905 01f2 EF000000 		.4byte	.LASF19
 906 01f6 01       		.byte	0x1
 907 01f7 19       		.byte	0x19
 908 01f8 E0010000 		.4byte	0x1e0
 909 01fc 05       		.byte	0x5
 910 01fd 03       		.byte	0x3
 911 01fe 95090000 		.4byte	proc2Stack
 912 0202 0A       		.uleb128 0xa
 913 0203 54000000 		.4byte	.LASF20
 914 0207 01       		.byte	0x1
 915 0208 1A       		.byte	0x1a
 916 0209 25000000 		.4byte	0x25
 917 020d 05       		.byte	0x5
 918 020e 03       		.byte	0x3
 919 020f 830C0000 		.4byte	pid2
 920 0213 0A       		.uleb128 0xa
 921 0214 37000000 		.4byte	.LASF21
 922 0218 01       		.byte	0x1
 923 0219 1C       		.byte	0x1c
 924 021a 25000000 		.4byte	0x25
 925 021e 05       		.byte	0x5
 926 021f 03       		.byte	0x3
 927 0220 00000000 		.4byte	contrast
 928 0224 14       		.uleb128 0x14
 929 0225 4C000000 		.4byte	.LASF22
 930 0229 01       		.byte	0x1
 931 022a 20       		.byte	0x20
 932 022b 36020000 		.4byte	0x236
 933 022f 01       		.byte	0x1
 934 0230 05       		.byte	0x5
 935 0231 03       		.byte	0x3
 936 0232 00000000 		.4byte	msClock
 937 0236 15       		.uleb128 0x15
 938 0237 3E000000 		.4byte	0x3e
 939 023b 00       		.byte	0x0
 940              		.section	.debug_abbrev
 941 0000 01       		.uleb128 0x1
 942 0001 11       		.uleb128 0x11
 943 0002 01       		.byte	0x1
 944 0003 10       		.uleb128 0x10
 945 0004 06       		.uleb128 0x6
 946 0005 12       		.uleb128 0x12
 947 0006 01       		.uleb128 0x1
 948 0007 11       		.uleb128 0x11
 949 0008 01       		.uleb128 0x1
 950 0009 25       		.uleb128 0x25
 951 000a 0E       		.uleb128 0xe
 952 000b 13       		.uleb128 0x13
 953 000c 0B       		.uleb128 0xb
ARM GAS  /cygdrive/c/DOCUME~1/mkwapisz/LOCALS~1/Temp/cc49RH3V.s 			page 22


 954 000d 03       		.uleb128 0x3
 955 000e 0E       		.uleb128 0xe
 956 000f 1B       		.uleb128 0x1b
 957 0010 0E       		.uleb128 0xe
 958 0011 00       		.byte	0x0
 959 0012 00       		.byte	0x0
 960 0013 02       		.uleb128 0x2
 961 0014 16       		.uleb128 0x16
 962 0015 00       		.byte	0x0
 963 0016 03       		.uleb128 0x3
 964 0017 08       		.uleb128 0x8
 965 0018 3A       		.uleb128 0x3a
 966 0019 0B       		.uleb128 0xb
 967 001a 3B       		.uleb128 0x3b
 968 001b 0B       		.uleb128 0xb
 969 001c 49       		.uleb128 0x49
 970 001d 13       		.uleb128 0x13
 971 001e 00       		.byte	0x0
 972 001f 00       		.byte	0x0
 973 0020 03       		.uleb128 0x3
 974 0021 24       		.uleb128 0x24
 975 0022 00       		.byte	0x0
 976 0023 03       		.uleb128 0x3
 977 0024 0E       		.uleb128 0xe
 978 0025 0B       		.uleb128 0xb
 979 0026 0B       		.uleb128 0xb
 980 0027 3E       		.uleb128 0x3e
 981 0028 0B       		.uleb128 0xb
 982 0029 00       		.byte	0x0
 983 002a 00       		.byte	0x0
 984 002b 04       		.uleb128 0x4
 985 002c 16       		.uleb128 0x16
 986 002d 00       		.byte	0x0
 987 002e 03       		.uleb128 0x3
 988 002f 0E       		.uleb128 0xe
 989 0030 3A       		.uleb128 0x3a
 990 0031 0B       		.uleb128 0xb
 991 0032 3B       		.uleb128 0x3b
 992 0033 0B       		.uleb128 0xb
 993 0034 49       		.uleb128 0x49
 994 0035 13       		.uleb128 0x13
 995 0036 00       		.byte	0x0
 996 0037 00       		.byte	0x0
 997 0038 05       		.uleb128 0x5
 998 0039 24       		.uleb128 0x24
 999 003a 00       		.byte	0x0
 1000 003b 03       		.uleb128 0x3
 1001 003c 08       		.uleb128 0x8
 1002 003d 0B       		.uleb128 0xb
 1003 003e 0B       		.uleb128 0xb
 1004 003f 3E       		.uleb128 0x3e
 1005 0040 0B       		.uleb128 0xb
 1006 0041 00       		.byte	0x0
 1007 0042 00       		.byte	0x0
 1008 0043 06       		.uleb128 0x6
 1009 0044 0F       		.uleb128 0xf
 1010 0045 00       		.byte	0x0
ARM GAS  /cygdrive/c/DOCUME~1/mkwapisz/LOCALS~1/Temp/cc49RH3V.s 			page 23


 1011 0046 0B       		.uleb128 0xb
 1012 0047 0B       		.uleb128 0xb
 1013 0048 00       		.byte	0x0
 1014 0049 00       		.byte	0x0
 1015 004a 07       		.uleb128 0x7
 1016 004b 2E       		.uleb128 0x2e
 1017 004c 01       		.byte	0x1
 1018 004d 01       		.uleb128 0x1
 1019 004e 13       		.uleb128 0x13
 1020 004f 3F       		.uleb128 0x3f
 1021 0050 0C       		.uleb128 0xc
 1022 0051 03       		.uleb128 0x3
 1023 0052 0E       		.uleb128 0xe
 1024 0053 3A       		.uleb128 0x3a
 1025 0054 0B       		.uleb128 0xb
 1026 0055 3B       		.uleb128 0x3b
 1027 0056 0B       		.uleb128 0xb
 1028 0057 27       		.uleb128 0x27
 1029 0058 0C       		.uleb128 0xc
 1030 0059 11       		.uleb128 0x11
 1031 005a 01       		.uleb128 0x1
 1032 005b 12       		.uleb128 0x12
 1033 005c 01       		.uleb128 0x1
 1034 005d 40       		.uleb128 0x40
 1035 005e 0A       		.uleb128 0xa
 1036 005f 00       		.byte	0x0
 1037 0060 00       		.byte	0x0
 1038 0061 08       		.uleb128 0x8
 1039 0062 05       		.uleb128 0x5
 1040 0063 00       		.byte	0x0
 1041 0064 03       		.uleb128 0x3
 1042 0065 0E       		.uleb128 0xe
 1043 0066 3A       		.uleb128 0x3a
 1044 0067 0B       		.uleb128 0xb
 1045 0068 3B       		.uleb128 0x3b
 1046 0069 0B       		.uleb128 0xb
 1047 006a 49       		.uleb128 0x49
 1048 006b 13       		.uleb128 0x13
 1049 006c 02       		.uleb128 0x2
 1050 006d 0A       		.uleb128 0xa
 1051 006e 00       		.byte	0x0
 1052 006f 00       		.byte	0x0
 1053 0070 09       		.uleb128 0x9
 1054 0071 2E       		.uleb128 0x2e
 1055 0072 01       		.byte	0x1
 1056 0073 01       		.uleb128 0x1
 1057 0074 13       		.uleb128 0x13
 1058 0075 3F       		.uleb128 0x3f
 1059 0076 0C       		.uleb128 0xc
 1060 0077 03       		.uleb128 0x3
 1061 0078 0E       		.uleb128 0xe
 1062 0079 3A       		.uleb128 0x3a
 1063 007a 0B       		.uleb128 0xb
 1064 007b 3B       		.uleb128 0x3b
 1065 007c 0B       		.uleb128 0xb
 1066 007d 27       		.uleb128 0x27
 1067 007e 0C       		.uleb128 0xc
ARM GAS  /cygdrive/c/DOCUME~1/mkwapisz/LOCALS~1/Temp/cc49RH3V.s 			page 24


 1068 007f 49       		.uleb128 0x49
 1069 0080 13       		.uleb128 0x13
 1070 0081 11       		.uleb128 0x11
 1071 0082 01       		.uleb128 0x1
 1072 0083 12       		.uleb128 0x12
 1073 0084 01       		.uleb128 0x1
 1074 0085 40       		.uleb128 0x40
 1075 0086 06       		.uleb128 0x6
 1076 0087 00       		.byte	0x0
 1077 0088 00       		.byte	0x0
 1078 0089 0A       		.uleb128 0xa
 1079 008a 34       		.uleb128 0x34
 1080 008b 00       		.byte	0x0
 1081 008c 03       		.uleb128 0x3
 1082 008d 0E       		.uleb128 0xe
 1083 008e 3A       		.uleb128 0x3a
 1084 008f 0B       		.uleb128 0xb
 1085 0090 3B       		.uleb128 0x3b
 1086 0091 0B       		.uleb128 0xb
 1087 0092 49       		.uleb128 0x49
 1088 0093 13       		.uleb128 0x13
 1089 0094 02       		.uleb128 0x2
 1090 0095 0A       		.uleb128 0xa
 1091 0096 00       		.byte	0x0
 1092 0097 00       		.byte	0x0
 1093 0098 0B       		.uleb128 0xb
 1094 0099 34       		.uleb128 0x34
 1095 009a 00       		.byte	0x0
 1096 009b 03       		.uleb128 0x3
 1097 009c 08       		.uleb128 0x8
 1098 009d 3A       		.uleb128 0x3a
 1099 009e 0B       		.uleb128 0xb
 1100 009f 3B       		.uleb128 0x3b
 1101 00a0 0B       		.uleb128 0xb
 1102 00a1 49       		.uleb128 0x49
 1103 00a2 13       		.uleb128 0x13
 1104 00a3 02       		.uleb128 0x2
 1105 00a4 0A       		.uleb128 0xa
 1106 00a5 00       		.byte	0x0
 1107 00a6 00       		.byte	0x0
 1108 00a7 0C       		.uleb128 0xc
 1109 00a8 2E       		.uleb128 0x2e
 1110 00a9 01       		.byte	0x1
 1111 00aa 01       		.uleb128 0x1
 1112 00ab 13       		.uleb128 0x13
 1113 00ac 03       		.uleb128 0x3
 1114 00ad 0E       		.uleb128 0xe
 1115 00ae 3A       		.uleb128 0x3a
 1116 00af 0B       		.uleb128 0xb
 1117 00b0 3B       		.uleb128 0x3b
 1118 00b1 0B       		.uleb128 0xb
 1119 00b2 27       		.uleb128 0x27
 1120 00b3 0C       		.uleb128 0xc
 1121 00b4 11       		.uleb128 0x11
 1122 00b5 01       		.uleb128 0x1
 1123 00b6 12       		.uleb128 0x12
 1124 00b7 01       		.uleb128 0x1
ARM GAS  /cygdrive/c/DOCUME~1/mkwapisz/LOCALS~1/Temp/cc49RH3V.s 			page 25


 1125 00b8 40       		.uleb128 0x40
 1126 00b9 06       		.uleb128 0x6
 1127 00ba 00       		.byte	0x0
 1128 00bb 00       		.byte	0x0
 1129 00bc 0D       		.uleb128 0xd
 1130 00bd 05       		.uleb128 0x5
 1131 00be 00       		.byte	0x0
 1132 00bf 03       		.uleb128 0x3
 1133 00c0 08       		.uleb128 0x8
 1134 00c1 3A       		.uleb128 0x3a
 1135 00c2 0B       		.uleb128 0xb
 1136 00c3 3B       		.uleb128 0x3b
 1137 00c4 0B       		.uleb128 0xb
 1138 00c5 49       		.uleb128 0x49
 1139 00c6 13       		.uleb128 0x13
 1140 00c7 02       		.uleb128 0x2
 1141 00c8 06       		.uleb128 0x6
 1142 00c9 00       		.byte	0x0
 1143 00ca 00       		.byte	0x0
 1144 00cb 0E       		.uleb128 0xe
 1145 00cc 2E       		.uleb128 0x2e
 1146 00cd 00       		.byte	0x0
 1147 00ce 03       		.uleb128 0x3
 1148 00cf 0E       		.uleb128 0xe
 1149 00d0 3A       		.uleb128 0x3a
 1150 00d1 0B       		.uleb128 0xb
 1151 00d2 3B       		.uleb128 0x3b
 1152 00d3 0B       		.uleb128 0xb
 1153 00d4 27       		.uleb128 0x27
 1154 00d5 0C       		.uleb128 0xc
 1155 00d6 11       		.uleb128 0x11
 1156 00d7 01       		.uleb128 0x1
 1157 00d8 12       		.uleb128 0x12
 1158 00d9 01       		.uleb128 0x1
 1159 00da 40       		.uleb128 0x40
 1160 00db 06       		.uleb128 0x6
 1161 00dc 00       		.byte	0x0
 1162 00dd 00       		.byte	0x0
 1163 00de 0F       		.uleb128 0xf
 1164 00df 0B       		.uleb128 0xb
 1165 00e0 01       		.byte	0x1
 1166 00e1 11       		.uleb128 0x11
 1167 00e2 01       		.uleb128 0x1
 1168 00e3 12       		.uleb128 0x12
 1169 00e4 01       		.uleb128 0x1
 1170 00e5 00       		.byte	0x0
 1171 00e6 00       		.byte	0x0
 1172 00e7 10       		.uleb128 0x10
 1173 00e8 34       		.uleb128 0x34
 1174 00e9 00       		.byte	0x0
 1175 00ea 03       		.uleb128 0x3
 1176 00eb 0E       		.uleb128 0xe
 1177 00ec 3A       		.uleb128 0x3a
 1178 00ed 0B       		.uleb128 0xb
 1179 00ee 3B       		.uleb128 0x3b
 1180 00ef 0B       		.uleb128 0xb
 1181 00f0 49       		.uleb128 0x49
ARM GAS  /cygdrive/c/DOCUME~1/mkwapisz/LOCALS~1/Temp/cc49RH3V.s 			page 26


 1182 00f1 13       		.uleb128 0x13
 1183 00f2 02       		.uleb128 0x2
 1184 00f3 06       		.uleb128 0x6
 1185 00f4 00       		.byte	0x0
 1186 00f5 00       		.byte	0x0
 1187 00f6 11       		.uleb128 0x11
 1188 00f7 01       		.uleb128 0x1
 1189 00f8 01       		.byte	0x1
 1190 00f9 01       		.uleb128 0x1
 1191 00fa 13       		.uleb128 0x13
 1192 00fb 49       		.uleb128 0x49
 1193 00fc 13       		.uleb128 0x13
 1194 00fd 00       		.byte	0x0
 1195 00fe 00       		.byte	0x0
 1196 00ff 12       		.uleb128 0x12
 1197 0100 21       		.uleb128 0x21
 1198 0101 00       		.byte	0x0
 1199 0102 49       		.uleb128 0x49
 1200 0103 13       		.uleb128 0x13
 1201 0104 2F       		.uleb128 0x2f
 1202 0105 05       		.uleb128 0x5
 1203 0106 00       		.byte	0x0
 1204 0107 00       		.byte	0x0
 1205 0108 13       		.uleb128 0x13
 1206 0109 34       		.uleb128 0x34
 1207 010a 00       		.byte	0x0
 1208 010b 03       		.uleb128 0x3
 1209 010c 0E       		.uleb128 0xe
 1210 010d 3A       		.uleb128 0x3a
 1211 010e 0B       		.uleb128 0xb
 1212 010f 3B       		.uleb128 0x3b
 1213 0110 0B       		.uleb128 0xb
 1214 0111 49       		.uleb128 0x49
 1215 0112 13       		.uleb128 0x13
 1216 0113 00       		.byte	0x0
 1217 0114 00       		.byte	0x0
 1218 0115 14       		.uleb128 0x14
 1219 0116 34       		.uleb128 0x34
 1220 0117 00       		.byte	0x0
 1221 0118 03       		.uleb128 0x3
 1222 0119 0E       		.uleb128 0xe
 1223 011a 3A       		.uleb128 0x3a
 1224 011b 0B       		.uleb128 0xb
 1225 011c 3B       		.uleb128 0x3b
 1226 011d 0B       		.uleb128 0xb
 1227 011e 49       		.uleb128 0x49
 1228 011f 13       		.uleb128 0x13
 1229 0120 3F       		.uleb128 0x3f
 1230 0121 0C       		.uleb128 0xc
 1231 0122 02       		.uleb128 0x2
 1232 0123 0A       		.uleb128 0xa
 1233 0124 00       		.byte	0x0
 1234 0125 00       		.byte	0x0
 1235 0126 15       		.uleb128 0x15
 1236 0127 35       		.uleb128 0x35
 1237 0128 00       		.byte	0x0
 1238 0129 49       		.uleb128 0x49
ARM GAS  /cygdrive/c/DOCUME~1/mkwapisz/LOCALS~1/Temp/cc49RH3V.s 			page 27


 1239 012a 13       		.uleb128 0x13
 1240 012b 00       		.byte	0x0
 1241 012c 00       		.byte	0x0
 1242 012d 00       		.byte	0x0
 1243              		.section	.debug_pubnames,"",%progbits
 1244 0000 2F000000 		.4byte	0x2f
 1245 0004 0200     		.2byte	0x2
 1246 0006 00000000 		.4byte	.Ldebug_info0
 1247 000a 3C020000 		.4byte	0x23c
 1248 000e 6E000000 		.4byte	0x6e
 1249 0012 61707054 		.ascii	"appTick\000"
 1249      69636B00 
 1250 001a 93000000 		.4byte	0x93
 1251 001e 6D61696E 		.ascii	"main\000"
 1251      00
 1252 0023 24020000 		.4byte	0x224
 1253 0027 6D73436C 		.ascii	"msClock\000"
 1253      6F636B00 
 1254 002f 00000000 		.4byte	0x0
 1255              		.section	.debug_aranges,"",%progbits
 1256 0000 1C000000 		.4byte	0x1c
 1257 0004 0200     		.2byte	0x2
 1258 0006 00000000 		.4byte	.Ldebug_info0
 1259 000a 04       		.byte	0x4
 1260 000b 00       		.byte	0x0
 1261 000c 0000     		.2byte	0x0
 1262 000e 0000     		.2byte	0x0
 1263 0010 00000000 		.4byte	.Ltext0
 1264 0014 1A020000 		.4byte	.Letext0-.Ltext0
 1265 0018 00000000 		.4byte	0x0
 1266 001c 00000000 		.4byte	0x0
 1267              		.section	.debug_str,"MS",%progbits,1
 1268              	.LASF11:
 1269 0000 50726F63 		.ascii	"ProceduraGlowna\000"
 1269      65647572 
 1269      61476C6F 
 1269      776E6100 
 1270              	.LASF5:
 1271 0010 73686F72 		.ascii	"short int\000"
 1271      7420696E 
 1271      7400
 1272              	.LASF7:
 1273 001a 61707054 		.ascii	"appTick\000"
 1273      69636B00 
 1274              	.LASF2:
 1275 0022 74553332 		.ascii	"tU32\000"
 1275      00
 1276              	.LASF8:
 1277 0027 6D61696E 		.ascii	"main\000"
 1277      00
 1278              	.LASF17:
 1279 002c 70726F63 		.ascii	"proc1Stack\000"
 1279      31537461 
 1279      636B00
 1280              	.LASF21:
 1281 0037 636F6E74 		.ascii	"contrast\000"
 1281      72617374 
ARM GAS  /cygdrive/c/DOCUME~1/mkwapisz/LOCALS~1/Temp/cc49RH3V.s 			page 28


 1281      00
 1282              	.LASF23:
 1283 0040 474E5520 		.ascii	"GNU C 4.1.1\000"
 1283      4320342E 
 1283      312E3100 
 1284              	.LASF22:
 1285 004c 6D73436C 		.ascii	"msClock\000"
 1285      6F636B00 
 1286              	.LASF20:
 1287 0054 70696432 		.ascii	"pid2\000"
 1287      00
 1288              	.LASF13:
 1289 0059 616E794B 		.ascii	"anyKey\000"
 1289      657900
 1290              	.LASF0:
 1291 0060 756E7369 		.ascii	"unsigned char\000"
 1291      676E6564 
 1291      20636861 
 1291      7200
 1292              	.LASF4:
 1293 006e 7369676E 		.ascii	"signed char\000"
 1293      65642063 
 1293      68617200 
 1294              	.LASF9:
 1295 007a 6572726F 		.ascii	"error\000"
 1295      7200
 1296              	.LASF25:
 1297 0080 2F637967 		.ascii	"/cygdrive/g/servers/github/SysWbud/2148/testProgram"
 1297      64726976 
 1297      652F672F 
 1297      73657276 
 1297      6572732F 
 1298 00b3 5F6C7063 		.ascii	"_lpc2148_edu\000"
 1298      32313438 
 1298      5F656475 
 1298      00
 1299              	.LASF3:
 1300 00c0 756E7369 		.ascii	"unsigned int\000"
 1300      676E6564 
 1300      20696E74 
 1300      00
 1301              	.LASF1:
 1302 00cd 73686F72 		.ascii	"short unsigned int\000"
 1302      7420756E 
 1302      7369676E 
 1302      65642069 
 1302      6E7400
 1303              	.LASF26:
 1304 00e0 64726177 		.ascii	"drawMenu\000"
 1304      4D656E75 
 1304      00
 1305              	.LASF12:
 1306 00e9 70726F63 		.ascii	"proc2\000"
 1306      3200
 1307              	.LASF19:
 1308 00ef 70726F63 		.ascii	"proc2Stack\000"
 1308      32537461 
ARM GAS  /cygdrive/c/DOCUME~1/mkwapisz/LOCALS~1/Temp/cc49RH3V.s 			page 29


 1308      636B00
 1309              	.LASF24:
 1310 00fa 6D61696E 		.ascii	"main.c\000"
 1310      2E6300
 1311              	.LASF6:
 1312 0101 6C6F6E67 		.ascii	"long unsigned int\000"
 1312      20756E73 
 1312      69676E65 
 1312      6420696E 
 1312      7400
 1313              	.LASF18:
 1314 0113 70696431 		.ascii	"pid1\000"
 1314      00
 1315              	.LASF16:
 1316 0118 50726F63 		.ascii	"ProceduraGlownaId\000"
 1316      65647572 
 1316      61476C6F 
 1316      776E6149 
 1316      6400
 1317              	.LASF10:
 1318 012a 656C6170 		.ascii	"elapsedTime\000"
 1318      73656454 
 1318      696D6500 
 1319              	.LASF14:
 1320 0136 70726F63 		.ascii	"proc1\000"
 1320      3100
 1321              	.LASF15:
 1322 013c 50726F63 		.ascii	"ProceduraGlownaPamiec\000"
 1322      65647572 
 1322      61476C6F 
 1322      776E6150 
 1322      616D6965 
 1323              		.ident	"GCC: (GNU) 4.1.1"
ARM GAS  /cygdrive/c/DOCUME~1/mkwapisz/LOCALS~1/Temp/cc49RH3V.s 			page 30


DEFINED SYMBOLS
                            *ABS*:00000000 main.c
/cygdrive/c/DOCUME~1/mkwapisz/LOCALS~1/Temp/cc49RH3V.s:1      .text:00000000 $t
/cygdrive/c/DOCUME~1/mkwapisz/LOCALS~1/Temp/cc49RH3V.s:16     .text:00000000 appTick
/cygdrive/c/DOCUME~1/mkwapisz/LOCALS~1/Temp/cc49RH3V.s:35     .text:0000000c $d
/cygdrive/c/DOCUME~1/mkwapisz/LOCALS~1/Temp/cc49RH3V.s:427    .bss:00000000 msClock
/cygdrive/c/DOCUME~1/mkwapisz/LOCALS~1/Temp/cc49RH3V.s:43     .text:00000010 main
/cygdrive/c/DOCUME~1/mkwapisz/LOCALS~1/Temp/cc49RH3V.s:40     .text:00000010 $t
/cygdrive/c/DOCUME~1/mkwapisz/LOCALS~1/Temp/cc49RH3V.s:96     .text:0000005c $d
/cygdrive/c/DOCUME~1/mkwapisz/LOCALS~1/Temp/cc49RH3V.s:106    .text:0000006c ProceduraGlowna
/cygdrive/c/DOCUME~1/mkwapisz/LOCALS~1/Temp/cc49RH3V.s:435    .bss:00000004 ProceduraGlownaPamiec
/cygdrive/c/DOCUME~1/mkwapisz/LOCALS~1/Temp/cc49RH3V.s:103    .text:0000006c $t
/cygdrive/c/DOCUME~1/mkwapisz/LOCALS~1/Temp/cc49RH3V.s:159    .text:000000c0 $d
/cygdrive/c/DOCUME~1/mkwapisz/LOCALS~1/Temp/cc49RH3V.s:439    .bss:00000994 pid1
/cygdrive/c/DOCUME~1/mkwapisz/LOCALS~1/Temp/cc49RH3V.s:407    .text:00000210 proc1
/cygdrive/c/DOCUME~1/mkwapisz/LOCALS~1/Temp/cc49RH3V.s:437    .bss:00000194 proc1Stack
/cygdrive/c/DOCUME~1/mkwapisz/LOCALS~1/Temp/cc49RH3V.s:443    .bss:00000c83 pid2
/cygdrive/c/DOCUME~1/mkwapisz/LOCALS~1/Temp/cc49RH3V.s:277    .text:00000148 proc2
/cygdrive/c/DOCUME~1/mkwapisz/LOCALS~1/Temp/cc49RH3V.s:441    .bss:00000995 proc2Stack
/cygdrive/c/DOCUME~1/mkwapisz/LOCALS~1/Temp/cc49RH3V.s:177    .text:000000dc $t
/cygdrive/c/DOCUME~1/mkwapisz/LOCALS~1/Temp/cc49RH3V.s:180    .text:000000dc drawMenu
/cygdrive/c/DOCUME~1/mkwapisz/LOCALS~1/Temp/cc49RH3V.s:239    .text:00000140 $d
/cygdrive/c/DOCUME~1/mkwapisz/LOCALS~1/Temp/cc49RH3V.s:274    .text:00000148 $t
/cygdrive/c/DOCUME~1/mkwapisz/LOCALS~1/Temp/cc49RH3V.s:390    .text:000001e8 $d
/cygdrive/c/DOCUME~1/mkwapisz/LOCALS~1/Temp/cc49RH3V.s:432    .data:00000000 contrast
/cygdrive/c/DOCUME~1/mkwapisz/LOCALS~1/Temp/cc49RH3V.s:404    .text:00000210 $t
                             .bss:00000000 $d
/cygdrive/c/DOCUME~1/mkwapisz/LOCALS~1/Temp/cc49RH3V.s:429    .bss:00000004 $d

UNDEFINED SYMBOLS
osInit
osCreateProcess
osStartProcess
osStart
osDeleteProcess
lcdColor
lcdClrscr
lcdRect
lcdGotoxy
lcdPuts
simplePrintf
lcdInit
initKeyProc
lcdContrast
checkKey
WyswietlTekstNaLcd
