ARM GAS  /cygdrive/c/DOCUME~1/mkwapisz/LOCALS~1/Temp/cc9KLP72.s 			page 1


   1              		.code	16
   2              		.file	"snake.c"
   3              		.section	.debug_abbrev,"",%progbits
   4              	.Ldebug_abbrev0:
   5              		.section	.debug_info,"",%progbits
   6              	.Ldebug_info0:
   7              		.section	.debug_line,"",%progbits
   8              	.Ldebug_line0:
   9 0000 2D010000 		.text
   9      02005400 
   9      00000201 
   9      FB0E0D00 
   9      01010101 
  10              	.Ltext0:
  11              		.align	2
  12              		.code 16
  13              		.thumb_func
  14              		.type	addSegment, %function
  15              	addSegment:
  16              	.LFB5:
  17              		.file 1 "snake.c"
   1:snake.c       **** /******************************************************************************
   2:snake.c       ****  *
   3:snake.c       ****  * Copyright:
   4:snake.c       ****  *    (C) 2006 Embedded Artists AB
   5:snake.c       ****  *
   6:snake.c       ****  * File:
   7:snake.c       ****  *    snake.c
   8:snake.c       ****  *
   9:snake.c       ****  * Description:
  10:snake.c       ****  *    Implements the snake game.
  11:snake.c       ****  *
  12:snake.c       ****  *****************************************************************************/
  13:snake.c       **** 
  14:snake.c       **** /******************************************************************************
  15:snake.c       ****  * Includes
  16:snake.c       ****  *****************************************************************************/
  17:snake.c       **** #include "../pre_emptive_os/api/osapi.h"
  18:snake.c       **** #include "../pre_emptive_os/api/general.h"
  19:snake.c       **** #include <printf_P.h>
  20:snake.c       **** #include <ea_init.h>
  21:snake.c       **** #include <stdlib.h>
  22:snake.c       **** #include "lcd.h"
  23:snake.c       **** #include "key.h"
  24:snake.c       **** #include "select.h"
  25:snake.c       **** 
  26:snake.c       **** /******************************************************************************
  27:snake.c       ****  * Typedefs and defines
  28:snake.c       ****  *****************************************************************************/
  29:snake.c       **** #define MAXROW 20
  30:snake.c       **** #define MAXCOL 31
  31:snake.c       **** 
  32:snake.c       **** #define SNAKE_START_COL 15
  33:snake.c       **** #define SNAKE_START_ROW  7
  34:snake.c       **** #define PAUSE_LENGTH     2
  35:snake.c       **** 
  36:snake.c       **** /*****************************************************************************
ARM GAS  /cygdrive/c/DOCUME~1/mkwapisz/LOCALS~1/Temp/cc9KLP72.s 			page 2


  37:snake.c       ****  * Local prototypes
  38:snake.c       ****  ****************************************************************************/
  39:snake.c       **** static void showScore();
  40:snake.c       **** static void addSegment();
  41:snake.c       **** static void setupLevel();
  42:snake.c       **** static void gotoxy(tU8 x, tU8 y, tU8 color);
  43:snake.c       **** 
  44:snake.c       **** /*****************************************************************************
  45:snake.c       ****  * Local variables
  46:snake.c       ****  ****************************************************************************/
  47:snake.c       **** static tS32 score;
  48:snake.c       **** static tS32 snakeLength;
  49:snake.c       **** static tS32 speed;
  50:snake.c       **** static tS32 obstacles;
  51:snake.c       **** static tS32 level;
  52:snake.c       **** static tBool firstPress;
  53:snake.c       **** static tS32 high_score = 0;
  54:snake.c       **** static tS8 screenGrid[MAXROW][MAXCOL];
  55:snake.c       **** static tS8 direction = KEY_RIGHT;
  56:snake.c       **** 
  57:snake.c       **** struct snakeSegment {
  58:snake.c       **** 	tS32 row;
  59:snake.c       **** 	tS32 col;
  60:snake.c       **** } snake[100];
  61:snake.c       **** 
  62:snake.c       **** /*****************************************************************************
  63:snake.c       ****  * External variables
  64:snake.c       ****  ****************************************************************************/
  65:snake.c       **** //extern volatile tU32 ms = 1277;
  66:snake.c       **** 
  67:snake.c       **** 
  68:snake.c       **** /*****************************************************************************
  69:snake.c       ****  *
  70:snake.c       ****  * Description:
  71:snake.c       ****  *    Implement Snake game
  72:snake.c       ****  *
  73:snake.c       ****  ****************************************************************************/
  74:snake.c       **** void playSnake(void) {
  75:snake.c       **** 	tU8 keypress;
  76:snake.c       **** 	tU8 done = FALSE;
  77:snake.c       **** 
  78:snake.c       **** 	//game loop
  79:snake.c       **** 	do {
  80:snake.c       **** 		obstacles = 4;
  81:snake.c       **** 		level = 1;
  82:snake.c       **** 		score = 0;
  83:snake.c       **** 		speed = 14;
  84:snake.c       **** 		//srand(msClock); //Ensure random seed initiated
  85:snake.c       **** 		setupLevel();
  86:snake.c       **** 
  87:snake.c       **** 		//main loop
  88:snake.c       **** 		do {
  89:snake.c       **** 			tS32 i;
  90:snake.c       **** 
  91:snake.c       **** 			//delay between snake moves
  92:snake.c       **** 			osSleep(speed * PAUSE_LENGTH);
  93:snake.c       **** 
ARM GAS  /cygdrive/c/DOCUME~1/mkwapisz/LOCALS~1/Temp/cc9KLP72.s 			page 3


  94:snake.c       **** 			//check if key press
  95:snake.c       **** 			keypress = checkKey();
  96:snake.c       **** 			if (keypress != KEY_NOTHING) {
  97:snake.c       **** 				if ((keypress == KEY_UP) || (keypress == KEY_RIGHT)
  98:snake.c       **** 						|| (keypress == KEY_DOWN) || (keypress == KEY_LEFT))
  99:snake.c       **** 					direction = keypress;
 100:snake.c       **** 			}
 101:snake.c       **** 
 102:snake.c       **** 			//add a segment to the end of the snake
 103:snake.c       **** 			addSegment();
 104:snake.c       **** 
 105:snake.c       **** 			//removed last segment of snake
 106:snake.c       **** 			gotoxy(snake[0].col, snake[0].row, 0);
 107:snake.c       **** 
 108:snake.c       **** 			//remove last segment from the array
 109:snake.c       **** 			for (i = 1; i <= snakeLength; i++)
 110:snake.c       **** 				snake[i - 1] = snake[i];
 111:snake.c       **** 
 112:snake.c       **** 			//display snake in yellow
 113:snake.c       **** 			for (i = 0; i <= snakeLength; i++)
 114:snake.c       **** 				gotoxy(snake[i].col, snake[i].row, 0xfc);
 115:snake.c       **** 
 116:snake.c       **** 			//if first press on each level, pause until a key is pressed
 117:snake.c       **** 			if (firstPress == TRUE) {
 118:snake.c       **** 				while (KEY_NOTHING == checkKey())
 119:snake.c       **** 					;
 120:snake.c       **** 				firstPress = FALSE;
 121:snake.c       **** 			}
 122:snake.c       **** 
 123:snake.c       **** 			/* collision detection - walls (bad!) */
 124:snake.c       **** 			if ((snake[snakeLength - 1].row >= MAXROW) || (snake[snakeLength
 125:snake.c       **** 					- 1].row < 0) || (snake[snakeLength - 1].col >= MAXCOL)
 126:snake.c       **** 					|| (snake[snakeLength - 1].col < 0) ||
 127:snake.c       **** 
 128:snake.c       **** 			/* collision detection - obstacles (bad!) */
 129:snake.c       **** 			(screenGrid[snake[snakeLength - 1].row][snake[snakeLength - 1].col]
 130:snake.c       **** 					== 'x'))
 131:snake.c       **** 				keypress = KEY_CENTER;
 132:snake.c       **** 
 133:snake.c       **** 			//collision detection - snake (bad!)
 134:snake.c       **** 			for (i = 0; i < snakeLength - 1; i++)
 135:snake.c       **** 				if ((snake[snakeLength - 1].row) == (snake[i].row)
 136:snake.c       **** 						&& (snake[snakeLength - 1].col) == (snake[i].col)) {
 137:snake.c       **** 					keypress = KEY_CENTER; //exit loop - game over
 138:snake.c       **** 					break;
 139:snake.c       **** 				}
 140:snake.c       **** 
 141:snake.c       **** 			//collision detection - food (good!)
 142:snake.c       **** 			if (screenGrid[snake[snakeLength - 1].row][snake[snakeLength - 1].col]
 143:snake.c       **** 					== '.') {
 144:snake.c       **** 				//increase score and length of snake
 145:snake.c       **** 				score += snakeLength * obstacles;
 146:snake.c       **** 				showScore();
 147:snake.c       **** 				snakeLength++;
 148:snake.c       **** 				addSegment();
 149:snake.c       **** 
 150:snake.c       **** 				//if length of snake reaches certain size, onto next level
ARM GAS  /cygdrive/c/DOCUME~1/mkwapisz/LOCALS~1/Temp/cc9KLP72.s 			page 4


 151:snake.c       **** 				if (snakeLength == (level + 3) * 2) {
 152:snake.c       **** 					score += level * 1000;
 153:snake.c       **** 					obstacles += 2; //add obstacles
 154:snake.c       **** 					level++;
 155:snake.c       **** 
 156:snake.c       **** 					//check if time to inclrease speed (every 5 levels)
 157:snake.c       **** 					if ((level % 5 == 0) && (speed > 1))
 158:snake.c       **** 						speed--;
 159:snake.c       **** 
 160:snake.c       **** 					//draw next level
 161:snake.c       **** 					setupLevel();
 162:snake.c       **** 				}
 163:snake.c       **** 			}
 164:snake.c       **** 		} while (keypress != KEY_CENTER);
 165:snake.c       **** 
 166:snake.c       **** 		//game over message
 167:snake.c       **** 		if (score > high_score)
 168:snake.c       **** 			high_score = score;
 169:snake.c       **** 		showScore();
 170:snake.c       **** 
 171:snake.c       **** 		{
 172:snake.c       **** 			tMenu menu;
 173:snake.c       **** 
 174:snake.c       **** 			menu.xPos = 10;
 175:snake.c       **** 			menu.yPos = 40;
 176:snake.c       **** 			menu.xLen = 6 + (12 * 8);
 177:snake.c       **** 			menu.yLen = 4 * 14;
 178:snake.c       **** 			menu.noOfChoices = 2;
 179:snake.c       **** 			menu.initialChoice = 0;
 180:snake.c       **** 			menu.pHeaderText = "Game over!";
 181:snake.c       **** 			menu.headerTextXpos = 20;
 182:snake.c       **** 			menu.pChoice[0] = "Restart game";
 183:snake.c       **** 			menu.pChoice[1] = "End game";
 184:snake.c       **** 			menu.bgColor = 0;
 185:snake.c       **** 			menu.borderColor = 0x6d;
 186:snake.c       **** 			menu.headerColor = 0;
 187:snake.c       **** 			menu.choicesColor = 0xfd;
 188:snake.c       **** 			menu.selectedColor = 0xe0;
 189:snake.c       **** 
 190:snake.c       **** 			switch (drawMenu(menu)) {
 191:snake.c       **** 			case 0:
 192:snake.c       **** 				done = FALSE;
 193:snake.c       **** 				break; //Restart game
 194:snake.c       **** 			case 1:
 195:snake.c       **** 				done = TRUE;
 196:snake.c       **** 				break; //End game
 197:snake.c       **** 			default:
 198:snake.c       **** 				break;
 199:snake.c       **** 			}
 200:snake.c       **** 		}
 201:snake.c       **** 
 202:snake.c       **** 	} while (done == FALSE);
 203:snake.c       **** }
 204:snake.c       **** 
 205:snake.c       **** /*****************************************************************************
 206:snake.c       ****  *
 207:snake.c       ****  * Description:
ARM GAS  /cygdrive/c/DOCUME~1/mkwapisz/LOCALS~1/Temp/cc9KLP72.s 			page 5


 208:snake.c       ****  *    Initialize one level of the game. Draw game board.
 209:snake.c       ****  *
 210:snake.c       ****  ****************************************************************************/
 211:snake.c       **** void setupLevel() {
 212:snake.c       **** 
 213:snake.c       **** 	tS32 row, col, i;
 214:snake.c       **** 
 215:snake.c       **** 	//clear screen
 216:snake.c       **** 	lcdColor(0, 0xe0);
 217:snake.c       **** 	lcdClrscr();
 218:snake.c       **** 
 219:snake.c       **** 	//draw frame
 220:snake.c       **** 	lcdGotoxy(42, 0);
 221:snake.c       **** 	lcdPuts("Snake");
 222:snake.c       **** 
 223:snake.c       **** 	//draw game board rectangle
 224:snake.c       **** 	lcdRect(0, 14, (4 * MAXCOL) + 4, (4 * MAXROW) + 4, 3);
 225:snake.c       **** 	lcdRect(2, 16, 4 * MAXCOL, 4 * MAXROW, 1);
 226:snake.c       **** 
 227:snake.c       **** 	//set up global variables for new level
 228:snake.c       **** 	snakeLength = level + 4;
 229:snake.c       **** 	direction = KEY_RIGHT;
 230:snake.c       **** 	firstPress = TRUE;
 231:snake.c       **** 
 232:snake.c       **** 	//fill grid with blanks
 233:snake.c       **** 	for (row = 0; row < MAXROW; row++)
 234:snake.c       **** 		for (col = 0; col < MAXCOL; col++)
 235:snake.c       **** 			screenGrid[row][col] = ' ';
 236:snake.c       **** 
 237:snake.c       **** 	//fill grid with Xs and food
 238:snake.c       **** 	for (i = 0; i < obstacles * 2; i++) {
 239:snake.c       **** 		row = rand() % MAXROW;
 240:snake.c       **** 		col = rand() % MAXCOL;
 241:snake.c       **** 		if (i < obstacles)
 242:snake.c       **** 			screenGrid[row][col] = 'x'; //= obstacle
 243:snake.c       **** 		else
 244:snake.c       **** 			screenGrid[row][col] = '.'; //= food
 245:snake.c       **** 	}
 246:snake.c       **** 
 247:snake.c       **** 	//create snake array of length snakeLength
 248:snake.c       **** 	for (i = 0; i < snakeLength; i++) {
 249:snake.c       **** 		snake[i].row = SNAKE_START_ROW;
 250:snake.c       **** 		snake[i].col = SNAKE_START_COL + i;
 251:snake.c       **** 	}
 252:snake.c       **** 
 253:snake.c       **** 	//draw game board
 254:snake.c       **** 	for (row = 0; row < MAXROW; row++) {
 255:snake.c       **** 		for (col = 0; col < MAXCOL; col++) {
 256:snake.c       **** 			switch (screenGrid[row][col]) {
 257:snake.c       **** 			case ' ':
 258:snake.c       **** 				gotoxy(col, row, 0);
 259:snake.c       **** 				break;
 260:snake.c       **** 			case '.':
 261:snake.c       **** 				gotoxy(col, row, 0x1c);
 262:snake.c       **** 				break;
 263:snake.c       **** 			case 'x':
 264:snake.c       **** 				gotoxy(col, row, 0xe0);
ARM GAS  /cygdrive/c/DOCUME~1/mkwapisz/LOCALS~1/Temp/cc9KLP72.s 			page 6


 265:snake.c       **** 				break;
 266:snake.c       **** 			default:
 267:snake.c       **** 				break;
 268:snake.c       **** 			}
 269:snake.c       **** 		}
 270:snake.c       **** 	}
 271:snake.c       **** 
 272:snake.c       **** 	showScore();
 273:snake.c       **** }
 274:snake.c       **** 
 275:snake.c       **** /*****************************************************************************
 276:snake.c       ****  *
 277:snake.c       ****  * Description:
 278:snake.c       ****  *    Draw current score
 279:snake.c       ****  *
 280:snake.c       ****  ****************************************************************************/
 281:snake.c       **** void showScore() {
 282:snake.c       **** 	tU8 str[13];
 283:snake.c       **** 
 284:snake.c       **** 	str[0] = 'L';
 285:snake.c       **** 	str[1] = ':';
 286:snake.c       **** 	str[2] = level + '0';
 287:snake.c       **** 	str[3] = ' ';
 288:snake.c       **** 	str[4] = 'S';
 289:snake.c       **** 	str[5] = ':';
 290:snake.c       **** 	str[6] = score / 100000 + '0';
 291:snake.c       **** 	str[7] = (score / 10000) % 10 + '0';
 292:snake.c       **** 	str[8] = (score / 1000) % 10 + '0';
 293:snake.c       **** 	str[9] = (score / 100) % 10 + '0';
 294:snake.c       **** 	str[10] = (score / 10) % 10 + '0';
 295:snake.c       **** 	str[11] = score % 10 + '0';
 296:snake.c       **** 	str[12] = 0;
 297:snake.c       **** 
 298:snake.c       **** 	//remove leading zeroes
 299:snake.c       **** 	if (str[6] == '0') {
 300:snake.c       **** 		str[6] = ' ';
 301:snake.c       **** 		if (str[7] == '0') {
 302:snake.c       **** 			str[7] = ' ';
 303:snake.c       **** 			if (str[8] == '0') {
 304:snake.c       **** 				str[8] = ' ';
 305:snake.c       **** 				if (str[9] == '0') {
 306:snake.c       **** 					str[9] = ' ';
 307:snake.c       **** 					if (str[10] == '0') {
 308:snake.c       **** 						str[10] = ' ';
 309:snake.c       **** 					}
 310:snake.c       **** 				}
 311:snake.c       **** 			}
 312:snake.c       **** 		}
 313:snake.c       **** 	}
 314:snake.c       **** 	lcdGotoxy(0, 114);
 315:snake.c       **** 	lcdPuts(str);
 316:snake.c       **** }
 317:snake.c       **** 
 318:snake.c       **** /*****************************************************************************
 319:snake.c       ****  *
 320:snake.c       ****  * Description:
 321:snake.c       ****  *    Add one snake segment
ARM GAS  /cygdrive/c/DOCUME~1/mkwapisz/LOCALS~1/Temp/cc9KLP72.s 			page 7


 322:snake.c       ****  *
 323:snake.c       ****  ****************************************************************************/
 324:snake.c       **** void addSegment() {
  18              		.loc 1 324 0
 325:snake.c       **** 	switch (direction) {
  19              		.loc 1 325 0
  20 0000 204B     		ldr	r3, .L11
  21 0002 1B78     		ldrb	r3, [r3]
  22 0004 1B06     		lsl	r3, r3, #24
  23 0006 1B16     		asr	r3, r3, #24
  24              		.loc 1 324 0
  25              		@ lr needed for prologue
  26              		.loc 1 325 0
  27 0008 022B     		cmp	r3, #2
  28 000a 09D0     		beq	.L4
  29 000c 022B     		cmp	r3, #2
  30 000e 02DC     		bgt	.L7
  31 0010 012B     		cmp	r3, #1
  32 0012 35D1     		bne	.L8
  33 0014 1EE0     		b	.L3
  34              	.L7:
  35 0016 042B     		cmp	r3, #4
  36 0018 25D0     		beq	.L5
  37 001a 082B     		cmp	r3, #8
  38 001c 30D1     		bne	.L8
  39 001e 0CE0     		b	.L6
  40              	.L4:
 326:snake.c       **** 	case (KEY_RIGHT):
 327:snake.c       **** 		snake[snakeLength].row = snake[snakeLength - 1].row;
  41              		.loc 1 327 0
  42 0020 194B     		ldr	r3, .L11+4
  43 0022 1A68     		ldr	r2, [r3]
  44 0024 1948     		ldr	r0, .L11+8
  45 0026 511E     		sub	r1, r2, #1
  46 0028 C900     		lsl	r1, r1, #3
  47 002a 0B58     		ldr	r3, [r1, r0]
  48 002c D200     		lsl	r2, r2, #3
 328:snake.c       **** 		snake[snakeLength].col = snake[snakeLength - 1].col + 1;
  49              		.loc 1 328 0
  50 002e 0918     		add	r1, r1, r0
  51              		.loc 1 327 0
  52 0030 1350     		str	r3, [r2, r0]
  53              		.loc 1 328 0
  54 0032 4B68     		ldr	r3, [r1, #4]
  55 0034 1218     		add	r2, r2, r0
  56 0036 0133     		add	r3, r3, #1
  57 0038 21E0     		b	.L9
  58              	.L6:
 329:snake.c       **** 		break;
 330:snake.c       **** 	case (KEY_LEFT):
 331:snake.c       **** 		snake[snakeLength].row = snake[snakeLength - 1].row;
  59              		.loc 1 331 0
  60 003a 134B     		ldr	r3, .L11+4
  61 003c 1A68     		ldr	r2, [r3]
  62 003e 1348     		ldr	r0, .L11+8
  63 0040 511E     		sub	r1, r2, #1
  64 0042 C900     		lsl	r1, r1, #3
ARM GAS  /cygdrive/c/DOCUME~1/mkwapisz/LOCALS~1/Temp/cc9KLP72.s 			page 8


  65 0044 0B58     		ldr	r3, [r1, r0]
  66 0046 D200     		lsl	r2, r2, #3
 332:snake.c       **** 		snake[snakeLength].col = snake[snakeLength - 1].col - 1;
  67              		.loc 1 332 0
  68 0048 0918     		add	r1, r1, r0
  69              		.loc 1 331 0
  70 004a 1350     		str	r3, [r2, r0]
  71              		.loc 1 332 0
  72 004c 4B68     		ldr	r3, [r1, #4]
  73 004e 1218     		add	r2, r2, r0
  74 0050 013B     		sub	r3, r3, #1
  75 0052 14E0     		b	.L9
  76              	.L3:
 333:snake.c       **** 		break;
 334:snake.c       **** 	case (KEY_UP):
 335:snake.c       **** 		snake[snakeLength].row = snake[snakeLength - 1].row - 1;
  77              		.loc 1 335 0
  78 0054 0C4B     		ldr	r3, .L11+4
  79 0056 1A68     		ldr	r2, [r3]
  80 0058 0C48     		ldr	r0, .L11+8
  81 005a 511E     		sub	r1, r2, #1
  82 005c C900     		lsl	r1, r1, #3
  83 005e 0B58     		ldr	r3, [r1, r0]
  84 0060 D200     		lsl	r2, r2, #3
  85 0062 013B     		sub	r3, r3, #1
  86 0064 07E0     		b	.L10
  87              	.L5:
 336:snake.c       **** 		snake[snakeLength].col = snake[snakeLength - 1].col;
 337:snake.c       **** 		break;
 338:snake.c       **** 	case (KEY_DOWN):
 339:snake.c       **** 		snake[snakeLength].row = snake[snakeLength - 1].row + 1;
  88              		.loc 1 339 0
  89 0066 084B     		ldr	r3, .L11+4
  90 0068 1A68     		ldr	r2, [r3]
  91 006a 0848     		ldr	r0, .L11+8
  92 006c 511E     		sub	r1, r2, #1
  93 006e C900     		lsl	r1, r1, #3
  94 0070 0B58     		ldr	r3, [r1, r0]
  95 0072 D200     		lsl	r2, r2, #3
  96 0074 0133     		add	r3, r3, #1
  97              	.L10:
 340:snake.c       **** 		snake[snakeLength].col = snake[snakeLength - 1].col;
  98              		.loc 1 340 0
  99 0076 0918     		add	r1, r1, r0
 100              		.loc 1 339 0
 101 0078 1350     		str	r3, [r2, r0]
 102              		.loc 1 340 0
 103 007a 4B68     		ldr	r3, [r1, #4]
 104 007c 1218     		add	r2, r2, r0
 105              	.L9:
 106 007e 5360     		str	r3, [r2, #4]
 107              	.L8:
 341:snake.c       **** 	}
 342:snake.c       **** }
 108              		.loc 1 342 0
 109              		@ sp needed for prologue
 110 0080 7047     		bx	lr
ARM GAS  /cygdrive/c/DOCUME~1/mkwapisz/LOCALS~1/Temp/cc9KLP72.s 			page 9


 111              	.L12:
 112 0082 0000     		.align	2
 113              	.L11:
 114 0084 00000000 		.word	direction
 115 0088 08000000 		.word	snakeLength
 116 008c 00000000 		.word	snake
 117              	.LFE5:
 118              		.size	addSegment, .-addSegment
 119              		.align	2
 120              		.code 16
 121              		.thumb_func
 122              		.type	gotoxy, %function
 123              	gotoxy:
 124              	.LFB6:
 343:snake.c       **** 
 344:snake.c       **** /*****************************************************************************
 345:snake.c       ****  *
 346:snake.c       ****  * Description:
 347:snake.c       ****  *    Goto a specifc xy position and draw a 4x4 pixel rectangle in
 348:snake.c       ****  *    specified color
 349:snake.c       ****  *
 350:snake.c       ****  ****************************************************************************/
 351:snake.c       **** void gotoxy(tU8 x, tU8 y, tU8 color) {
 125              		.loc 1 351 0
 126 0090 00B5     		push	{lr}
 127              	.LCFI0:
 128              	.LVL0:
 352:snake.c       **** 	lcdRect(2 + (x * 4), 16 + (y * 4), 4, 4, color);
 129              		.loc 1 352 0
 130 0092 8023     		mov	r3, #128
 131 0094 9B04     		lsl	r3, r3, #18
 132 0096 8006     		lsl	r0, r0, #26
 133              	.LVL1:
 134 0098 C018     		add	r0, r0, r3
 135 009a 8023     		mov	r3, #128
 136 009c 5B05     		lsl	r3, r3, #21
 137              		.loc 1 351 0
 138 009e 1206     		lsl	r2, r2, #24
 139              	.LVL2:
 140              		.loc 1 352 0
 141 00a0 8906     		lsl	r1, r1, #26
 142              	.LVL3:
 143              		.loc 1 351 0
 144 00a2 81B0     		sub	sp, sp, #4
 145              	.LCFI1:
 146              		.loc 1 351 0
 147 00a4 120E     		lsr	r2, r2, #24
 148              	.LVL4:
 149              		.loc 1 352 0
 150 00a6 C918     		add	r1, r1, r3
 151 00a8 0092     		str	r2, [sp]
 152 00aa 000E     		lsr	r0, r0, #24
 153 00ac 090E     		lsr	r1, r1, #24
 154 00ae 0422     		mov	r2, #4
 155              	.LVL5:
 156 00b0 0423     		mov	r3, #4
 157 00b2 FFF7FEFF 		bl	lcdRect
ARM GAS  /cygdrive/c/DOCUME~1/mkwapisz/LOCALS~1/Temp/cc9KLP72.s 			page 10


 353:snake.c       **** }
 158              		.loc 1 353 0
 159 00b6 01B0     		add	sp, sp, #4
 160              		@ sp needed for prologue
 161 00b8 01BC     		pop	{r0}
 162 00ba 0047     		bx	r0
 163              	.LFE6:
 164              		.size	gotoxy, .-gotoxy
 165              		.global	__divsi3
 166              		.global	__modsi3
 167              		.align	2
 168              		.code 16
 169              		.thumb_func
 170              		.type	showScore, %function
 171              	showScore:
 172              	.LFB4:
 173              		.loc 1 281 0
 174 00bc 70B5     		push	{r4, r5, r6, lr}
 175              	.LCFI2:
 176 00be 84B0     		sub	sp, sp, #16
 177              	.LCFI3:
 178              		.loc 1 284 0
 179 00c0 6D46     		mov	r5, sp
 180 00c2 0335     		add	r5, r5, #3
 181 00c4 4C23     		mov	r3, #76
 182 00c6 2B70     		strb	r3, [r5]
 183              		.loc 1 286 0
 184 00c8 2F4B     		ldr	r3, .L23
 185 00ca 1B68     		ldr	r3, [r3]
 186 00cc 3033     		add	r3, r3, #48
 187 00ce AB70     		strb	r3, [r5, #2]
 188              		.loc 1 288 0
 189 00d0 5323     		mov	r3, #83
 190 00d2 2B71     		strb	r3, [r5, #4]
 191              		.loc 1 290 0
 192 00d4 2D4B     		ldr	r3, .L23+4
 193 00d6 1C68     		ldr	r4, [r3]
 194              		.loc 1 285 0
 195 00d8 3A22     		mov	r2, #58
 196              		.loc 1 290 0
 197 00da 2D49     		ldr	r1, .L23+8
 198              		.loc 1 287 0
 199 00dc 2026     		mov	r6, #32
 200              		.loc 1 290 0
 201 00de 201C     		mov	r0, r4
 202              		.loc 1 285 0
 203 00e0 6A70     		strb	r2, [r5, #1]
 204              		.loc 1 289 0
 205 00e2 6A71     		strb	r2, [r5, #5]
 206              		.loc 1 287 0
 207 00e4 EE70     		strb	r6, [r5, #3]
 208              		.loc 1 290 0
 209 00e6 FFF7FEFF 		bl	__divsi3
 210 00ea 3030     		add	r0, r0, #48
 211 00ec A871     		strb	r0, [r5, #6]
 212              		.loc 1 291 0
 213 00ee 2949     		ldr	r1, .L23+12
ARM GAS  /cygdrive/c/DOCUME~1/mkwapisz/LOCALS~1/Temp/cc9KLP72.s 			page 11


 214 00f0 201C     		mov	r0, r4
 215 00f2 FFF7FEFF 		bl	__divsi3
 216 00f6 0A21     		mov	r1, #10
 217 00f8 FFF7FEFF 		bl	__modsi3
 218              		.loc 1 292 0
 219 00fc FA21     		mov	r1, #250
 220              		.loc 1 291 0
 221 00fe 3030     		add	r0, r0, #48
 222 0100 E871     		strb	r0, [r5, #7]
 223              		.loc 1 292 0
 224 0102 8900     		lsl	r1, r1, #2
 225 0104 201C     		mov	r0, r4
 226 0106 FFF7FEFF 		bl	__divsi3
 227 010a 0A21     		mov	r1, #10
 228 010c FFF7FEFF 		bl	__modsi3
 229 0110 3030     		add	r0, r0, #48
 230 0112 2872     		strb	r0, [r5, #8]
 231              		.loc 1 293 0
 232 0114 6421     		mov	r1, #100
 233 0116 201C     		mov	r0, r4
 234 0118 FFF7FEFF 		bl	__divsi3
 235 011c 0A21     		mov	r1, #10
 236 011e FFF7FEFF 		bl	__modsi3
 237 0122 3030     		add	r0, r0, #48
 238 0124 6872     		strb	r0, [r5, #9]
 239              		.loc 1 294 0
 240 0126 0A21     		mov	r1, #10
 241 0128 201C     		mov	r0, r4
 242 012a FFF7FEFF 		bl	__divsi3
 243 012e 0A21     		mov	r1, #10
 244 0130 FFF7FEFF 		bl	__modsi3
 245 0134 3030     		add	r0, r0, #48
 246 0136 A872     		strb	r0, [r5, #10]
 247              		.loc 1 295 0
 248 0138 0A21     		mov	r1, #10
 249 013a 201C     		mov	r0, r4
 250 013c FFF7FEFF 		bl	__modsi3
 251              		.loc 1 296 0
 252 0140 0023     		mov	r3, #0
 253 0142 2B73     		strb	r3, [r5, #12]
 254              		.loc 1 299 0
 255 0144 AB79     		ldrb	r3, [r5, #6]
 256              		.loc 1 295 0
 257 0146 3030     		add	r0, r0, #48
 258 0148 E872     		strb	r0, [r5, #11]
 259              		.loc 1 299 0
 260 014a 302B     		cmp	r3, #48
 261 014c 10D1     		bne	.L16
 262              		.loc 1 301 0
 263 014e EB79     		ldrb	r3, [r5, #7]
 264              		.loc 1 300 0
 265 0150 AE71     		strb	r6, [r5, #6]
 266              		.loc 1 301 0
 267 0152 302B     		cmp	r3, #48
 268 0154 0CD1     		bne	.L16
 269              		.loc 1 303 0
 270 0156 2B7A     		ldrb	r3, [r5, #8]
ARM GAS  /cygdrive/c/DOCUME~1/mkwapisz/LOCALS~1/Temp/cc9KLP72.s 			page 12


 271              		.loc 1 302 0
 272 0158 EE71     		strb	r6, [r5, #7]
 273              		.loc 1 303 0
 274 015a 302B     		cmp	r3, #48
 275 015c 08D1     		bne	.L16
 276              		.loc 1 305 0
 277 015e 6B7A     		ldrb	r3, [r5, #9]
 278              		.loc 1 304 0
 279 0160 2E72     		strb	r6, [r5, #8]
 280              		.loc 1 305 0
 281 0162 302B     		cmp	r3, #48
 282 0164 04D1     		bne	.L16
 283              		.loc 1 307 0
 284 0166 AB7A     		ldrb	r3, [r5, #10]
 285              		.loc 1 306 0
 286 0168 6E72     		strb	r6, [r5, #9]
 287              		.loc 1 307 0
 288 016a 302B     		cmp	r3, #48
 289 016c 00D1     		bne	.L16
 290              		.loc 1 308 0
 291 016e AE72     		strb	r6, [r5, #10]
 292              	.L16:
 293              		.loc 1 314 0
 294 0170 7221     		mov	r1, #114
 295 0172 0020     		mov	r0, #0
 296 0174 FFF7FEFF 		bl	lcdGotoxy
 297              		.loc 1 315 0
 298 0178 6846     		mov	r0, sp
 299 017a 0330     		add	r0, r0, #3
 300 017c FFF7FEFF 		bl	lcdPuts
 301              		.loc 1 316 0
 302 0180 04B0     		add	sp, sp, #16
 303              		@ sp needed for prologue
 304 0182 70BC     		pop	{r4, r5, r6}
 305 0184 01BC     		pop	{r0}
 306 0186 0047     		bx	r0
 307              	.L24:
 308              		.align	2
 309              	.L23:
 310 0188 14000000 		.word	level
 311 018c 04000000 		.word	score
 312 0190 A0860100 		.word	100000
 313 0194 10270000 		.word	10000
 314              	.LFE4:
 315              		.size	showScore, .-showScore
 316              		.section	.rodata.str1.4,"aMS",%progbits,1
 317              		.align	2
 318              	.LC6:
 319 0000 536E616B 		.ascii	"Snake\000"
 319      6500
 320              		.text
 321              		.align	2
 322              		.code 16
 323              		.thumb_func
 324              		.type	setupLevel, %function
 325              	setupLevel:
 326              	.LFB3:
ARM GAS  /cygdrive/c/DOCUME~1/mkwapisz/LOCALS~1/Temp/cc9KLP72.s 			page 13


 327              		.loc 1 211 0
 328 0198 70B5     		push	{r4, r5, r6, lr}
 329              	.LCFI4:
 330 019a 81B0     		sub	sp, sp, #4
 331              	.LCFI5:
 332              		.loc 1 216 0
 333 019c 0020     		mov	r0, #0
 334 019e E021     		mov	r1, #224
 335 01a0 FFF7FEFF 		bl	lcdColor
 336              		.loc 1 217 0
 337 01a4 FFF7FEFF 		bl	lcdClrscr
 338              		.loc 1 220 0
 339 01a8 0021     		mov	r1, #0
 340 01aa 2A20     		mov	r0, #42
 341 01ac FFF7FEFF 		bl	lcdGotoxy
 342              		.loc 1 221 0
 343 01b0 4348     		ldr	r0, .L59
 344 01b2 FFF7FEFF 		bl	lcdPuts
 345              		.loc 1 224 0
 346 01b6 0323     		mov	r3, #3
 347 01b8 0093     		str	r3, [sp]
 348 01ba 0020     		mov	r0, #0
 349 01bc 0E21     		mov	r1, #14
 350 01be 8022     		mov	r2, #128
 351 01c0 5423     		mov	r3, #84
 352 01c2 FFF7FEFF 		bl	lcdRect
 353              		.loc 1 225 0
 354 01c6 0124     		mov	r4, #1
 355 01c8 0220     		mov	r0, #2
 356 01ca 7C22     		mov	r2, #124
 357 01cc 5023     		mov	r3, #80
 358 01ce 1021     		mov	r1, #16
 359 01d0 0094     		str	r4, [sp]
 360 01d2 FFF7FEFF 		bl	lcdRect
 361              		.loc 1 228 0
 362 01d6 3B4B     		ldr	r3, .L59+4
 363 01d8 1B68     		ldr	r3, [r3]
 364 01da 3B4A     		ldr	r2, .L59+8
 365 01dc 0433     		add	r3, r3, #4
 366 01de 1360     		str	r3, [r2]
 367              		.loc 1 229 0
 368 01e0 3A4A     		ldr	r2, .L59+12
 369 01e2 0223     		mov	r3, #2
 370 01e4 1370     		strb	r3, [r2]
 371              		.loc 1 230 0
 372 01e6 3A4B     		ldr	r3, .L59+16
 373 01e8 0020     		mov	r0, #0
 374              	.LVL6:
 375 01ea 1C70     		strb	r4, [r3]
 376 01ec 5BE0     		b	.L26
 377              	.LVL7:
 378              	.L27:
 379              		.loc 1 235 0
 380 01ee 2023     		mov	r3, #32
 381              		.loc 1 234 0
 382 01f0 0132     		add	r2, r2, #1
 383              		.loc 1 235 0
ARM GAS  /cygdrive/c/DOCUME~1/mkwapisz/LOCALS~1/Temp/cc9KLP72.s 			page 14


 384 01f2 0B70     		strb	r3, [r1]
 385              		.loc 1 234 0
 386 01f4 0131     		add	r1, r1, #1
 387 01f6 1F2A     		cmp	r2, #31
 388 01f8 F9D1     		bne	.L27
 389              		.loc 1 233 0
 390 01fa 0130     		add	r0, r0, #1
 391 01fc 1428     		cmp	r0, #20
 392 01fe 52D1     		bne	.L26
 393 0200 0026     		mov	r6, #0
 394              	.LVL8:
 395 0202 19E0     		b	.L30
 396              	.LVL9:
 397              	.L31:
 398              		.loc 1 239 0
 399 0204 FFF7FEFF 		bl	rand
 400              	.LVL10:
 401 0208 1421     		mov	r1, #20
 402 020a FFF7FEFF 		bl	__modsi3
 403 020e 041C     		mov	r4, r0
 404              		.loc 1 240 0
 405 0210 FFF7FEFF 		bl	rand
 406 0214 1F21     		mov	r1, #31
 407 0216 FFF7FEFF 		bl	__modsi3
 408              		.loc 1 241 0
 409 021a 2B68     		ldr	r3, [r5]
 410              		.loc 1 240 0
 411 021c 011C     		mov	r1, r0
 412              	.LVL11:
 413 021e 6201     		lsl	r2, r4, #5
 414 0220 2C48     		ldr	r0, .L59+20
 415              		.loc 1 241 0
 416 0222 9E42     		cmp	r6, r3
 417 0224 03DA     		bge	.L32
 418              		.loc 1 242 0
 419 0226 131B     		sub	r3, r2, r4
 420 0228 1B18     		add	r3, r3, r0
 421 022a 7822     		mov	r2, #120
 422 022c 02E0     		b	.L57
 423              	.L32:
 424              		.loc 1 244 0
 425 022e 131B     		sub	r3, r2, r4
 426 0230 1B18     		add	r3, r3, r0
 427 0232 2E22     		mov	r2, #46
 428              	.L57:
 429 0234 5A54     		strb	r2, [r3, r1]
 430              		.loc 1 238 0
 431 0236 0136     		add	r6, r6, #1
 432              	.LVL12:
 433              	.L30:
 434 0238 274D     		ldr	r5, .L59+24
 435 023a 2B68     		ldr	r3, [r5]
 436 023c 5B00     		lsl	r3, r3, #1
 437 023e 9E42     		cmp	r6, r3
 438 0240 E0DB     		blt	.L31
 439              		.loc 1 248 0
 440 0242 214B     		ldr	r3, .L59+8
ARM GAS  /cygdrive/c/DOCUME~1/mkwapisz/LOCALS~1/Temp/cc9KLP72.s 			page 15


 441 0244 254A     		ldr	r2, .L59+28
 442              	.LVL13:
 443 0246 1868     		ldr	r0, [r3]
 444              	.LVL14:
 445 0248 0021     		mov	r1, #0
 446              	.LVL15:
 447 024a 06E0     		b	.L36
 448              	.L37:
 449              		.loc 1 249 0
 450 024c 0723     		mov	r3, #7
 451 024e 1360     		str	r3, [r2]
 452              		.loc 1 250 0
 453 0250 0B1C     		mov	r3, r1
 454 0252 0F33     		add	r3, r3, #15
 455 0254 5360     		str	r3, [r2, #4]
 456              		.loc 1 248 0
 457 0256 0131     		add	r1, r1, #1
 458 0258 0832     		add	r2, r2, #8
 459              	.L36:
 460 025a 8142     		cmp	r1, r0
 461 025c F6DB     		blt	.L37
 462 025e 28E0     		b	.L54
 463              	.LVL16:
 464              	.L39:
 465              		.loc 1 256 0
 466 0260 3378     		ldrb	r3, [r6]
 467 0262 1B06     		lsl	r3, r3, #24
 468 0264 1B16     		asr	r3, r3, #24
 469 0266 2E2B     		cmp	r3, #46
 470 0268 07D0     		beq	.L42
 471 026a 782B     		cmp	r3, #120
 472 026c 09D0     		beq	.L43
 473 026e 202B     		cmp	r3, #32
 474 0270 0CD1     		bne	.L40
 475              		.loc 1 258 0
 476 0272 281C     		mov	r0, r5
 477 0274 211C     		mov	r1, r4
 478              	.LVL17:
 479 0276 0022     		mov	r2, #0
 480 0278 06E0     		b	.L58
 481              	.LVL18:
 482              	.L42:
 483              		.loc 1 261 0
 484 027a 281C     		mov	r0, r5
 485 027c 211C     		mov	r1, r4
 486              	.LVL19:
 487 027e 1C22     		mov	r2, #28
 488 0280 02E0     		b	.L58
 489              	.LVL20:
 490              	.L43:
 491              		.loc 1 264 0
 492 0282 281C     		mov	r0, r5
 493 0284 211C     		mov	r1, r4
 494              	.LVL21:
 495 0286 E022     		mov	r2, #224
 496              	.LVL22:
 497              	.L58:
ARM GAS  /cygdrive/c/DOCUME~1/mkwapisz/LOCALS~1/Temp/cc9KLP72.s 			page 16


 498 0288 FFF702FF 		bl	gotoxy
 499              	.LVL23:
 500              	.L40:
 501              		.loc 1 255 0
 502 028c 0135     		add	r5, r5, #1
 503 028e 0136     		add	r6, r6, #1
 504 0290 1F2D     		cmp	r5, #31
 505 0292 E5D1     		bne	.L39
 506              		.loc 1 254 0
 507 0294 0134     		add	r4, r4, #1
 508 0296 142C     		cmp	r4, #20
 509 0298 0CD1     		bne	.L45
 510              		.loc 1 272 0
 511 029a FFF70FFF 		bl	showScore
 512              	.LVL24:
 513              		.loc 1 273 0
 514 029e 01B0     		add	sp, sp, #4
 515              		@ sp needed for prologue
 516              	.LVL25:
 517              	.LVL26:
 518 02a0 70BC     		pop	{r4, r5, r6}
 519 02a2 01BC     		pop	{r0}
 520 02a4 0047     		bx	r0
 521              	.LVL27:
 522              	.L26:
 523 02a6 0B4A     		ldr	r2, .L59+20
 524              	.LVL28:
 525 02a8 4301     		lsl	r3, r0, #5
 526 02aa 1B1A     		sub	r3, r3, r0
 527 02ac 9918     		add	r1, r3, r2
 528 02ae 0022     		mov	r2, #0
 529              	.LVL29:
 530 02b0 9DE7     		b	.L27
 531              	.LVL30:
 532              	.L54:
 533 02b2 0024     		mov	r4, #0
 534              	.LVL31:
 535              	.L45:
 536 02b4 6301     		lsl	r3, r4, #5
 537 02b6 074A     		ldr	r2, .L59+20
 538 02b8 1B1B     		sub	r3, r3, r4
 539 02ba 9E18     		add	r6, r3, r2
 540              	.LVL32:
 541 02bc 0025     		mov	r5, #0
 542 02be CFE7     		b	.L39
 543              	.L60:
 544              		.align	2
 545              	.L59:
 546 02c0 00000000 		.word	.LC6
 547 02c4 14000000 		.word	level
 548 02c8 08000000 		.word	snakeLength
 549 02cc 00000000 		.word	direction
 550 02d0 18000000 		.word	firstPress
 551 02d4 19000000 		.word	screenGrid
 552 02d8 10000000 		.word	obstacles
 553 02dc 00000000 		.word	snake
 554              	.LFE3:
ARM GAS  /cygdrive/c/DOCUME~1/mkwapisz/LOCALS~1/Temp/cc9KLP72.s 			page 17


 555              		.size	setupLevel, .-setupLevel
 556              		.section	.rodata.str1.4
 557 0006 0000     		.align	2
 558              	.LC27:
 559 0008 47616D65 		.ascii	"Game over!\000"
 559      206F7665 
 559      722100
 560 0013 00       		.align	2
 561              	.LC29:
 562 0014 52657374 		.ascii	"Restart game\000"
 562      61727420 
 562      67616D65 
 562      00
 563 0021 000000   		.align	2
 564              	.LC31:
 565 0024 456E6420 		.ascii	"End game\000"
 565      67616D65 
 565      00
 566 002d 000000   		.text
 567              		.align	2
 568              		.global	playSnake
 569              		.code 16
 570              		.thumb_func
 571              		.type	playSnake, %function
 572              	playSnake:
 573              	.LFB2:
 574              		.loc 1 74 0
 575 02e0 F0B5     		push	{r4, r5, r6, r7, lr}
 576              	.LCFI6:
 577 02e2 94B0     		sub	sp, sp, #80
 578              	.LCFI7:
 579              	.LVL33:
 580              	.L112:
 581              		.loc 1 80 0
 582 02e4 7F4A     		ldr	r2, .L113
 583 02e6 0423     		mov	r3, #4
 584 02e8 1360     		str	r3, [r2]
 585              		.loc 1 81 0
 586 02ea 7F4A     		ldr	r2, .L113+4
 587 02ec 0123     		mov	r3, #1
 588 02ee 1360     		str	r3, [r2]
 589              		.loc 1 82 0
 590 02f0 7E4A     		ldr	r2, .L113+8
 591 02f2 0023     		mov	r3, #0
 592 02f4 1360     		str	r3, [r2]
 593              		.loc 1 83 0
 594 02f6 7E4A     		ldr	r2, .L113+12
 595 02f8 0E23     		mov	r3, #14
 596 02fa 1360     		str	r3, [r2]
 597              		.loc 1 85 0
 598 02fc FFF74CFF 		bl	setupLevel
 599              	.LVL34:
 600              	.L64:
 601              	.LBB2:
 602              		.loc 1 92 0
 603 0300 7B4B     		ldr	r3, .L113+12
 604 0302 1868     		ldr	r0, [r3]
ARM GAS  /cygdrive/c/DOCUME~1/mkwapisz/LOCALS~1/Temp/cc9KLP72.s 			page 18


 605 0304 4000     		lsl	r0, r0, #1
 606 0306 FFF7FEFF 		bl	osSleep
 607              		.loc 1 95 0
 608 030a FFF7FEFF 		bl	checkKey
 609 030e 071C     		mov	r7, r0
 610              		.loc 1 96 0
 611 0310 0028     		cmp	r0, #0
 612 0312 0AD0     		beq	.L65
 613              	.LVL35:
 614              		.loc 1 97 0
 615 0314 431E     		sub	r3, r0, #1
 616 0316 1B06     		lsl	r3, r3, #24
 617 0318 1B0E     		lsr	r3, r3, #24
 618 031a 012B     		cmp	r3, #1
 619 031c 03D9     		bls	.L67
 620 031e 0428     		cmp	r0, #4
 621 0320 01D0     		beq	.L67
 622 0322 0828     		cmp	r0, #8
 623 0324 01D1     		bne	.L65
 624              	.L67:
 625              		.loc 1 99 0
 626 0326 734B     		ldr	r3, .L113+16
 627 0328 1F70     		strb	r7, [r3]
 628              	.L65:
 629              		.loc 1 103 0
 630 032a FFF769FE 		bl	addSegment
 631              	.LVL36:
 632              		.loc 1 106 0
 633 032e 724C     		ldr	r4, .L113+20
 634 0330 0022     		mov	r2, #0
 635 0332 2079     		ldrb	r0, [r4, #4]
 636 0334 2178     		ldrb	r1, [r4]
 637 0336 FFF7ABFE 		bl	gotoxy
 638              		.loc 1 109 0
 639 033a 704B     		ldr	r3, .L113+24
 640 033c 1868     		ldr	r0, [r3]
 641 033e 0121     		mov	r1, #1
 642              	.LVL37:
 643 0340 05E0     		b	.L70
 644              	.L71:
 645              		.loc 1 110 0
 646 0342 A268     		ldr	r2, [r4, #8]
 647 0344 E368     		ldr	r3, [r4, #12]
 648 0346 2260     		str	r2, [r4]
 649 0348 6360     		str	r3, [r4, #4]
 650              		.loc 1 109 0
 651 034a 0131     		add	r1, r1, #1
 652 034c 0834     		add	r4, r4, #8
 653              	.L70:
 654 034e 8142     		cmp	r1, r0
 655 0350 F7DD     		ble	.L71
 656 0352 6B4C     		ldr	r4, .L113+28
 657 0354 0025     		mov	r5, #0
 658              	.LVL38:
 659 0356 07E0     		b	.L73
 660              	.L74:
 661              		.loc 1 114 0
ARM GAS  /cygdrive/c/DOCUME~1/mkwapisz/LOCALS~1/Temp/cc9KLP72.s 			page 19


 662 0358 231F     		sub	r3, r4, #4
 663 035a 2078     		ldrb	r0, [r4]
 664 035c 1978     		ldrb	r1, [r3]
 665              	.LVL39:
 666 035e FC22     		mov	r2, #252
 667 0360 FFF796FE 		bl	gotoxy
 668              		.loc 1 113 0
 669 0364 0135     		add	r5, r5, #1
 670 0366 0834     		add	r4, r4, #8
 671              	.LVL40:
 672              	.L73:
 673 0368 644B     		ldr	r3, .L113+24
 674 036a 1B68     		ldr	r3, [r3]
 675 036c 9D42     		cmp	r5, r3
 676 036e F3DD     		ble	.L74
 677              		.loc 1 117 0
 678 0370 644B     		ldr	r3, .L113+32
 679 0372 1B78     		ldrb	r3, [r3]
 680 0374 012B     		cmp	r3, #1
 681 0376 06D1     		bne	.L76
 682              	.L105:
 683              		.loc 1 118 0
 684 0378 FFF7FEFF 		bl	checkKey
 685              	.LVL41:
 686 037c 0028     		cmp	r0, #0
 687 037e FBD0     		beq	.L105
 688              		.loc 1 120 0
 689 0380 604A     		ldr	r2, .L113+32
 690 0382 0023     		mov	r3, #0
 691 0384 1370     		strb	r3, [r2]
 692              	.LVL42:
 693              	.L76:
 694              		.loc 1 124 0
 695 0386 5D4B     		ldr	r3, .L113+24
 696 0388 1B68     		ldr	r3, [r3]
 697 038a 1C1C     		mov	r4, r3
 698 038c 013C     		sub	r4, r4, #1
 699 038e 5A4A     		ldr	r2, .L113+20
 700 0390 9C46     		mov	ip, r3
 701 0392 E300     		lsl	r3, r4, #3
 702 0394 9858     		ldr	r0, [r3, r2]
 703 0396 1328     		cmp	r0, #19
 704 0398 0CD8     		bhi	.L79
 705 039a 9B18     		add	r3, r3, r2
 706 039c 5968     		ldr	r1, [r3, #4]
 707              	.LVL43:
 708 039e 1E29     		cmp	r1, #30
 709 03a0 08DC     		bgt	.L79
 710 03a2 0029     		cmp	r1, #0
 711 03a4 06DB     		blt	.L79
 712 03a6 584B     		ldr	r3, .L113+36
 713 03a8 4201     		lsl	r2, r0, #5
 714 03aa 121A     		sub	r2, r2, r0
 715 03ac D218     		add	r2, r2, r3
 716 03ae 5356     		ldrsb	r3, [r2, r1]
 717 03b0 782B     		cmp	r3, #120
 718 03b2 00D1     		bne	.L83
ARM GAS  /cygdrive/c/DOCUME~1/mkwapisz/LOCALS~1/Temp/cc9KLP72.s 			page 20


 719              	.LVL44:
 720              	.L79:
 721 03b4 1027     		mov	r7, #16
 722              	.L83:
 723 03b6 5049     		ldr	r1, .L113+20
 724              	.LVL45:
 725 03b8 0025     		mov	r5, #0
 726              	.LVL46:
 727 03ba 0E1C     		mov	r6, r1
 728 03bc 0CE0     		b	.L84
 729              	.L85:
 730              		.loc 1 135 0
 731 03be 0B68     		ldr	r3, [r1]
 732 03c0 9842     		cmp	r0, r3
 733 03c2 07D1     		bne	.L86
 734 03c4 E300     		lsl	r3, r4, #3
 735 03c6 9B19     		add	r3, r3, r6
 736 03c8 5A68     		ldr	r2, [r3, #4]
 737 03ca 4B68     		ldr	r3, [r1, #4]
 738 03cc 9A42     		cmp	r2, r3
 739 03ce 01D1     		bne	.L86
 740 03d0 1027     		mov	r7, #16
 741 03d2 03E0     		b	.L89
 742              	.L86:
 743              		.loc 1 134 0
 744 03d4 0135     		add	r5, r5, #1
 745 03d6 0831     		add	r1, r1, #8
 746              	.L84:
 747 03d8 A542     		cmp	r5, r4
 748 03da F0DB     		blt	.L85
 749              	.L89:
 750              		.loc 1 142 0
 751 03dc 464A     		ldr	r2, .L113+20
 752 03de E300     		lsl	r3, r4, #3
 753 03e0 9B18     		add	r3, r3, r2
 754 03e2 5A68     		ldr	r2, [r3, #4]
 755 03e4 4849     		ldr	r1, .L113+36
 756 03e6 4301     		lsl	r3, r0, #5
 757 03e8 1B1A     		sub	r3, r3, r0
 758 03ea 5B18     		add	r3, r3, r1
 759 03ec 9B56     		ldrsb	r3, [r3, r2]
 760 03ee 2E2B     		cmp	r3, #46
 761 03f0 2FD1     		bne	.L90
 762              		.loc 1 145 0
 763 03f2 3C4E     		ldr	r6, .L113
 764 03f4 3368     		ldr	r3, [r6]
 765 03f6 6246     		mov	r2, ip
 766 03f8 5A43     		mul	r2, r3
 767 03fa 3C4D     		ldr	r5, .L113+8
 768              	.LVL47:
 769 03fc 2B68     		ldr	r3, [r5]
 770 03fe 9B18     		add	r3, r3, r2
 771 0400 2B60     		str	r3, [r5]
 772              		.loc 1 146 0
 773 0402 FFF75BFE 		bl	showScore
 774              		.loc 1 147 0
 775 0406 3D4B     		ldr	r3, .L113+24
ARM GAS  /cygdrive/c/DOCUME~1/mkwapisz/LOCALS~1/Temp/cc9KLP72.s 			page 21


 776 0408 1C68     		ldr	r4, [r3]
 777 040a 0134     		add	r4, r4, #1
 778 040c 1C60     		str	r4, [r3]
 779              		.loc 1 148 0
 780 040e FFF7F7FD 		bl	addSegment
 781              		.loc 1 151 0
 782 0412 3549     		ldr	r1, .L113+4
 783 0414 0868     		ldr	r0, [r1]
 784 0416 4300     		lsl	r3, r0, #1
 785 0418 0633     		add	r3, r3, #6
 786 041a 9C42     		cmp	r4, r3
 787 041c 19D1     		bne	.L90
 788              		.loc 1 152 0
 789 041e 4301     		lsl	r3, r0, #5
 790 0420 1B1A     		sub	r3, r3, r0
 791 0422 9B00     		lsl	r3, r3, #2
 792 0424 1B18     		add	r3, r3, r0
 793 0426 2A68     		ldr	r2, [r5]
 794 0428 DB00     		lsl	r3, r3, #3
 795 042a D218     		add	r2, r2, r3
 796              		.loc 1 153 0
 797 042c 3368     		ldr	r3, [r6]
 798              		.loc 1 154 0
 799 042e 0130     		add	r0, r0, #1
 800              		.loc 1 153 0
 801 0430 0233     		add	r3, r3, #2
 802              		.loc 1 154 0
 803 0432 0860     		str	r0, [r1]
 804              		.loc 1 152 0
 805 0434 2A60     		str	r2, [r5]
 806              		.loc 1 153 0
 807 0436 3360     		str	r3, [r6]
 808              		.loc 1 157 0
 809 0438 0521     		mov	r1, #5
 810 043a FFF7FEFF 		bl	__modsi3
 811 043e 0028     		cmp	r0, #0
 812 0440 05D1     		bne	.L93
 813 0442 2B4A     		ldr	r2, .L113+12
 814 0444 1368     		ldr	r3, [r2]
 815 0446 012B     		cmp	r3, #1
 816 0448 01DD     		ble	.L93
 817              		.loc 1 158 0
 818 044a 013B     		sub	r3, r3, #1
 819 044c 1360     		str	r3, [r2]
 820              	.L93:
 821              		.loc 1 161 0
 822 044e FFF7A3FE 		bl	setupLevel
 823              	.LVL48:
 824              	.L90:
 825              	.LBE2:
 826              		.loc 1 164 0
 827 0452 102F     		cmp	r7, #16
 828 0454 00D0     		beq	.LCB882
 829 0456 53E7     		b	.L64	@long jump
 830              	.LCB882:
 831              		.loc 1 167 0
 832 0458 244B     		ldr	r3, .L113+8
ARM GAS  /cygdrive/c/DOCUME~1/mkwapisz/LOCALS~1/Temp/cc9KLP72.s 			page 22


 833 045a 2C4A     		ldr	r2, .L113+40
 834 045c 1968     		ldr	r1, [r3]
 835 045e 1368     		ldr	r3, [r2]
 836 0460 9942     		cmp	r1, r3
 837 0462 00DD     		ble	.L97
 838              		.loc 1 168 0
 839 0464 1160     		str	r1, [r2]
 840              	.L97:
 841              		.loc 1 169 0
 842 0466 FFF729FE 		bl	showScore
 843              	.LBB3:
 844              		.loc 1 174 0
 845 046a 08A9     		add	r1, sp, #32
 846 046c 0A23     		mov	r3, #10
 847 046e 0B70     		strb	r3, [r1]
 848              		.loc 1 175 0
 849 0470 2823     		mov	r3, #40
 850 0472 4B70     		strb	r3, [r1, #1]
 851              		.loc 1 176 0
 852 0474 6623     		mov	r3, #102
 853 0476 8B70     		strb	r3, [r1, #2]
 854              		.loc 1 177 0
 855 0478 3823     		mov	r3, #56
 856 047a CB70     		strb	r3, [r1, #3]
 857              		.loc 1 178 0
 858 047c 0223     		mov	r3, #2
 859 047e 0B71     		strb	r3, [r1, #4]
 860              		.loc 1 181 0
 861 0480 1423     		mov	r3, #20
 862 0482 0B73     		strb	r3, [r1, #12]
 863              		.loc 1 182 0
 864 0484 224B     		ldr	r3, .L113+44
 865 0486 0C93     		str	r3, [sp, #48]
 866              		.loc 1 183 0
 867 0488 224B     		ldr	r3, .L113+48
 868              		.loc 1 179 0
 869 048a 0020     		mov	r0, #0
 870              		.loc 1 183 0
 871 048c 0D93     		str	r3, [sp, #52]
 872              		.loc 1 184 0
 873 048e 12AB     		add	r3, sp, #72
 874              		.loc 1 179 0
 875 0490 4871     		strb	r0, [r1, #5]
 876              		.loc 1 184 0
 877 0492 1870     		strb	r0, [r3]
 878              		.loc 1 185 0
 879 0494 6D21     		mov	r1, #109
 880 0496 0133     		add	r3, r3, #1
 881 0498 1970     		strb	r1, [r3]
 882              		.loc 1 186 0
 883 049a 0133     		add	r3, r3, #1
 884 049c 1870     		strb	r0, [r3]
 885              		.loc 1 187 0
 886 049e 6946     		mov	r1, sp
 887 04a0 0323     		mov	r3, #3
 888 04a2 5B42     		neg	r3, r3
 889 04a4 4B31     		add	r1, r1, #75
ARM GAS  /cygdrive/c/DOCUME~1/mkwapisz/LOCALS~1/Temp/cc9KLP72.s 			page 23


 890 04a6 0B70     		strb	r3, [r1]
 891              		.loc 1 180 0
 892 04a8 1B4A     		ldr	r2, .L113+52
 893              		.loc 1 188 0
 894 04aa 2023     		mov	r3, #32
 895 04ac 5B42     		neg	r3, r3
 896 04ae 13A9     		add	r1, sp, #76
 897 04b0 0B70     		strb	r3, [r1]
 898              		.loc 1 180 0
 899 04b2 0A92     		str	r2, [sp, #40]
 900              		.loc 1 190 0
 901 04b4 0CAB     		add	r3, sp, #48
 902 04b6 6946     		mov	r1, sp
 903 04b8 31CB     		ldmia	r3!, {r0, r4, r5}
 904 04ba 31C1     		stmia	r1!, {r0, r4, r5}
 905              	.LVL49:
 906 04bc 31CB     		ldmia	r3!, {r0, r4, r5}
 907 04be 31C1     		stmia	r1!, {r0, r4, r5}
 908 04c0 11CB     		ldmia	r3!, {r0, r4}
 909 04c2 11C1     		stmia	r1!, {r0, r4}
 910 04c4 0898     		ldr	r0, [sp, #32]
 911 04c6 0999     		ldr	r1, [sp, #36]
 912 04c8 0B9B     		ldr	r3, [sp, #44]
 913 04ca FFF7FEFF 		bl	drawMenu
 914 04ce 0028     		cmp	r0, #0
 915 04d0 00D1     		bne	.LCB966
 916 04d2 07E7     		b	.L112	@long jump
 917              	.LCB966:
 918 04d4 0128     		cmp	r0, #1
 919 04d6 00D0     		beq	.LCB968
 920 04d8 04E7     		b	.L112	@long jump
 921              	.LCB968:
 922              	.LBE3:
 923              		.loc 1 203 0
 924 04da 14B0     		add	sp, sp, #80
 925              		@ sp needed for prologue
 926              	.LVL50:
 927 04dc F0BC     		pop	{r4, r5, r6, r7}
 928 04de 01BC     		pop	{r0}
 929 04e0 0047     		bx	r0
 930              	.L114:
 931 04e2 0000     		.align	2
 932              	.L113:
 933 04e4 10000000 		.word	obstacles
 934 04e8 14000000 		.word	level
 935 04ec 04000000 		.word	score
 936 04f0 0C000000 		.word	speed
 937 04f4 00000000 		.word	direction
 938 04f8 00000000 		.word	snake
 939 04fc 08000000 		.word	snakeLength
 940 0500 04000000 		.word	snake+4
 941 0504 18000000 		.word	firstPress
 942 0508 19000000 		.word	screenGrid
 943 050c 00000000 		.word	high_score
 944 0510 14000000 		.word	.LC29
 945 0514 24000000 		.word	.LC31
 946 0518 08000000 		.word	.LC27
ARM GAS  /cygdrive/c/DOCUME~1/mkwapisz/LOCALS~1/Temp/cc9KLP72.s 			page 24


 947              	.LFE2:
 948              		.size	playSnake, .-playSnake
 949              		.data
 950              		.type	direction, %object
 951              		.size	direction, 1
 952              	direction:
 953 0000 02       		.byte	2
 954              		.bss
 955              		.align	2
 956              	high_score:
 957 0000 00000000 		.space	4
 958              		.align	2
 959              	score:
 960 0004 00000000 		.space	4
 961              		.align	2
 962              	snakeLength:
 963 0008 00000000 		.space	4
 964              		.align	2
 965              	speed:
 966 000c 00000000 		.space	4
 967              		.align	2
 968              	obstacles:
 969 0010 00000000 		.space	4
 970              		.align	2
 971              	level:
 972 0014 00000000 		.space	4
 973              	firstPress:
 974 0018 00       		.space	1
 975              	screenGrid:
 976 0019 00000000 		.space	620
 976      00000000 
 976      00000000 
 976      00000000 
 976      00000000 
 977              		.comm	snake,800,4
 978 0285 000000   		.section	.debug_frame,"",%progbits
 979              	.Lframe0:
 980 0000 0C000000 		.4byte	.LECIE0-.LSCIE0
 981              	.LSCIE0:
 982 0004 FFFFFFFF 		.4byte	0xffffffff
 983 0008 01       		.byte	0x1
 984 0009 00       		.ascii	"\000"
 985 000a 01       		.uleb128 0x1
 986 000b 7C       		.sleb128 -4
 987 000c 0E       		.byte	0xe
 988 000d 0C       		.byte	0xc
 989 000e 0D       		.uleb128 0xd
 990 000f 00       		.uleb128 0x0
 991              		.align	2
 992              	.LECIE0:
 993              	.LSFDE0:
 994 0010 0C000000 		.4byte	.LEFDE0-.LASFDE0
 995              	.LASFDE0:
 996 0014 00000000 		.4byte	.Lframe0
 997 0018 00000000 		.4byte	.LFB5
 998 001c 90000000 		.4byte	.LFE5-.LFB5
 999              		.align	2
ARM GAS  /cygdrive/c/DOCUME~1/mkwapisz/LOCALS~1/Temp/cc9KLP72.s 			page 25


 1000              	.LEFDE0:
 1001              	.LSFDE2:
 1002 0020 14000000 		.4byte	.LEFDE2-.LASFDE2
 1003              	.LASFDE2:
 1004 0024 00000000 		.4byte	.Lframe0
 1005 0028 90000000 		.4byte	.LFB6
 1006 002c 2C000000 		.4byte	.LFE6-.LFB6
 1007 0030 42       		.byte	0x4
 1008              		.4byte	.LCFI0-.LFB6
 1009 0031 0E       		.byte	0xe
 1010 0032 04       		.uleb128 0x4
 1011 0033 8E       		.byte	0x8e
 1012 0034 01       		.uleb128 0x1
 1013 0035 52       		.byte	0x4
 1014              		.4byte	.LCFI1-.LCFI0
 1015 0036 0E       		.byte	0xe
 1016 0037 08       		.uleb128 0x8
 1017              		.align	2
 1018              	.LEFDE2:
 1019              	.LSFDE4:
 1020 0038 1C000000 		.4byte	.LEFDE4-.LASFDE4
 1021              	.LASFDE4:
 1022 003c 00000000 		.4byte	.Lframe0
 1023 0040 BC000000 		.4byte	.LFB4
 1024 0044 DC000000 		.4byte	.LFE4-.LFB4
 1025 0048 42       		.byte	0x4
 1026              		.4byte	.LCFI2-.LFB4
 1027 0049 0E       		.byte	0xe
 1028 004a 10       		.uleb128 0x10
 1029 004b 84       		.byte	0x84
 1030 004c 04       		.uleb128 0x4
 1031 004d 85       		.byte	0x85
 1032 004e 03       		.uleb128 0x3
 1033 004f 86       		.byte	0x86
 1034 0050 02       		.uleb128 0x2
 1035 0051 8E       		.byte	0x8e
 1036 0052 01       		.uleb128 0x1
 1037 0053 42       		.byte	0x4
 1038              		.4byte	.LCFI3-.LCFI2
 1039 0054 0E       		.byte	0xe
 1040 0055 20       		.uleb128 0x20
 1041 0056 0000     		.align	2
 1042              	.LEFDE4:
 1043              	.LSFDE6:
 1044 0058 1C000000 		.4byte	.LEFDE6-.LASFDE6
 1045              	.LASFDE6:
 1046 005c 00000000 		.4byte	.Lframe0
 1047 0060 98010000 		.4byte	.LFB3
 1048 0064 48010000 		.4byte	.LFE3-.LFB3
 1049 0068 42       		.byte	0x4
 1050              		.4byte	.LCFI4-.LFB3
 1051 0069 0E       		.byte	0xe
 1052 006a 10       		.uleb128 0x10
 1053 006b 84       		.byte	0x84
 1054 006c 04       		.uleb128 0x4
 1055 006d 85       		.byte	0x85
 1056 006e 03       		.uleb128 0x3
ARM GAS  /cygdrive/c/DOCUME~1/mkwapisz/LOCALS~1/Temp/cc9KLP72.s 			page 26


 1057 006f 86       		.byte	0x86
 1058 0070 02       		.uleb128 0x2
 1059 0071 8E       		.byte	0x8e
 1060 0072 01       		.uleb128 0x1
 1061 0073 42       		.byte	0x4
 1062              		.4byte	.LCFI5-.LCFI4
 1063 0074 0E       		.byte	0xe
 1064 0075 14       		.uleb128 0x14
 1065 0076 0000     		.align	2
 1066              	.LEFDE6:
 1067              	.LSFDE8:
 1068 0078 1C000000 		.4byte	.LEFDE8-.LASFDE8
 1069              	.LASFDE8:
 1070 007c 00000000 		.4byte	.Lframe0
 1071 0080 E0020000 		.4byte	.LFB2
 1072 0084 3C020000 		.4byte	.LFE2-.LFB2
 1073 0088 42       		.byte	0x4
 1074              		.4byte	.LCFI6-.LFB2
 1075 0089 0E       		.byte	0xe
 1076 008a 14       		.uleb128 0x14
 1077 008b 84       		.byte	0x84
 1078 008c 05       		.uleb128 0x5
 1079 008d 85       		.byte	0x85
 1080 008e 04       		.uleb128 0x4
 1081 008f 86       		.byte	0x86
 1082 0090 03       		.uleb128 0x3
 1083 0091 87       		.byte	0x87
 1084 0092 02       		.uleb128 0x2
 1085 0093 8E       		.byte	0x8e
 1086 0094 01       		.uleb128 0x1
 1087 0095 42       		.byte	0x4
 1088              		.4byte	.LCFI7-.LCFI6
 1089 0096 0E       		.byte	0xe
 1090 0097 64       		.uleb128 0x64
 1091              		.align	2
 1092              	.LEFDE8:
 1093              		.file 2 "../pre_emptive_os/api/../api/general.h"
 1094              		.file 3 "select.h"
 1095              		.text
 1096              	.Letext0:
 1097              		.section	.debug_loc,"",%progbits
 1098              	.Ldebug_loc0:
 1099              	.LLST1:
 1100 0000 90000000 		.4byte	.LFB6-.Ltext0
 1101 0004 92000000 		.4byte	.LCFI0-.Ltext0
 1102 0008 0100     		.2byte	0x1
 1103 000a 5D       		.byte	0x5d
 1104 000b 92000000 		.4byte	.LCFI0-.Ltext0
 1105 000f A4000000 		.4byte	.LCFI1-.Ltext0
 1106 0013 0200     		.2byte	0x2
 1107 0015 7D       		.byte	0x7d
 1108 0016 04       		.sleb128 4
 1109 0017 A4000000 		.4byte	.LCFI1-.Ltext0
 1110 001b BC000000 		.4byte	.LFE6-.Ltext0
 1111 001f 0200     		.2byte	0x2
 1112 0021 7D       		.byte	0x7d
 1113 0022 08       		.sleb128 8
ARM GAS  /cygdrive/c/DOCUME~1/mkwapisz/LOCALS~1/Temp/cc9KLP72.s 			page 27


 1114 0023 00000000 		.4byte	0x0
 1115 0027 00000000 		.4byte	0x0
 1116              	.LLST2:
 1117 002b 92000000 		.4byte	.LVL0-.Ltext0
 1118 002f 98000000 		.4byte	.LVL1-.Ltext0
 1119 0033 0100     		.2byte	0x1
 1120 0035 50       		.byte	0x50
 1121 0036 00000000 		.4byte	0x0
 1122 003a 00000000 		.4byte	0x0
 1123              	.LLST3:
 1124 003e 92000000 		.4byte	.LVL0-.Ltext0
 1125 0042 A2000000 		.4byte	.LVL3-.Ltext0
 1126 0046 0100     		.2byte	0x1
 1127 0048 51       		.byte	0x51
 1128 0049 00000000 		.4byte	0x0
 1129 004d 00000000 		.4byte	0x0
 1130              	.LLST4:
 1131 0051 92000000 		.4byte	.LVL0-.Ltext0
 1132 0055 A0000000 		.4byte	.LVL2-.Ltext0
 1133 0059 0100     		.2byte	0x1
 1134 005b 52       		.byte	0x52
 1135 005c A6000000 		.4byte	.LVL4-.Ltext0
 1136 0060 B0000000 		.4byte	.LVL5-.Ltext0
 1137 0064 0100     		.2byte	0x1
 1138 0066 52       		.byte	0x52
 1139 0067 00000000 		.4byte	0x0
 1140 006b 00000000 		.4byte	0x0
 1141              	.LLST5:
 1142 006f BC000000 		.4byte	.LFB4-.Ltext0
 1143 0073 BE000000 		.4byte	.LCFI2-.Ltext0
 1144 0077 0100     		.2byte	0x1
 1145 0079 5D       		.byte	0x5d
 1146 007a BE000000 		.4byte	.LCFI2-.Ltext0
 1147 007e C0000000 		.4byte	.LCFI3-.Ltext0
 1148 0082 0200     		.2byte	0x2
 1149 0084 7D       		.byte	0x7d
 1150 0085 10       		.sleb128 16
 1151 0086 C0000000 		.4byte	.LCFI3-.Ltext0
 1152 008a 98010000 		.4byte	.LFE4-.Ltext0
 1153 008e 0200     		.2byte	0x2
 1154 0090 7D       		.byte	0x7d
 1155 0091 20       		.sleb128 32
 1156 0092 00000000 		.4byte	0x0
 1157 0096 00000000 		.4byte	0x0
 1158              	.LLST6:
 1159 009a 98010000 		.4byte	.LFB3-.Ltext0
 1160 009e 9A010000 		.4byte	.LCFI4-.Ltext0
 1161 00a2 0100     		.2byte	0x1
 1162 00a4 5D       		.byte	0x5d
 1163 00a5 9A010000 		.4byte	.LCFI4-.Ltext0
 1164 00a9 9C010000 		.4byte	.LCFI5-.Ltext0
 1165 00ad 0200     		.2byte	0x2
 1166 00af 7D       		.byte	0x7d
 1167 00b0 10       		.sleb128 16
 1168 00b1 9C010000 		.4byte	.LCFI5-.Ltext0
 1169 00b5 E0020000 		.4byte	.LFE3-.Ltext0
 1170 00b9 0200     		.2byte	0x2
ARM GAS  /cygdrive/c/DOCUME~1/mkwapisz/LOCALS~1/Temp/cc9KLP72.s 			page 28


 1171 00bb 7D       		.byte	0x7d
 1172 00bc 14       		.sleb128 20
 1173 00bd 00000000 		.4byte	0x0
 1174 00c1 00000000 		.4byte	0x0
 1175              	.LLST7:
 1176 00c5 EA010000 		.4byte	.LVL6-.Ltext0
 1177 00c9 04020000 		.4byte	.LVL9-.Ltext0
 1178 00cd 0100     		.2byte	0x1
 1179 00cf 50       		.byte	0x50
 1180 00d0 04020000 		.4byte	.LVL9-.Ltext0
 1181 00d4 08020000 		.4byte	.LVL10-.Ltext0
 1182 00d8 0100     		.2byte	0x1
 1183 00da 54       		.byte	0x54
 1184 00db 38020000 		.4byte	.LVL12-.Ltext0
 1185 00df 48020000 		.4byte	.LVL14-.Ltext0
 1186 00e3 0100     		.2byte	0x1
 1187 00e5 50       		.byte	0x50
 1188 00e6 60020000 		.4byte	.LVL16-.Ltext0
 1189 00ea 88020000 		.4byte	.LVL22-.Ltext0
 1190 00ee 0100     		.2byte	0x1
 1191 00f0 54       		.byte	0x54
 1192 00f1 88020000 		.4byte	.LVL22-.Ltext0
 1193 00f5 8C020000 		.4byte	.LVL23-.Ltext0
 1194 00f9 0100     		.2byte	0x1
 1195 00fb 51       		.byte	0x51
 1196 00fc 8C020000 		.4byte	.LVL23-.Ltext0
 1197 0100 A0020000 		.4byte	.LVL25-.Ltext0
 1198 0104 0100     		.2byte	0x1
 1199 0106 54       		.byte	0x54
 1200 0107 A6020000 		.4byte	.LVL27-.Ltext0
 1201 010b B2020000 		.4byte	.LVL30-.Ltext0
 1202 010f 0100     		.2byte	0x1
 1203 0111 50       		.byte	0x50
 1204 0112 B2020000 		.4byte	.LVL30-.Ltext0
 1205 0116 B2020000 		.4byte	.LVL30-.Ltext0
 1206 011a 0100     		.2byte	0x1
 1207 011c 54       		.byte	0x54
 1208 011d B4020000 		.4byte	.LVL31-.Ltext0
 1209 0121 B4020000 		.4byte	.LVL31-.Ltext0
 1210 0125 0100     		.2byte	0x1
 1211 0127 54       		.byte	0x54
 1212 0128 00000000 		.4byte	0x0
 1213 012c 00000000 		.4byte	0x0
 1214              	.LLST8:
 1215 0130 EE010000 		.4byte	.LVL7-.Ltext0
 1216 0134 04020000 		.4byte	.LVL9-.Ltext0
 1217 0138 0100     		.2byte	0x1
 1218 013a 52       		.byte	0x52
 1219 013b 04020000 		.4byte	.LVL9-.Ltext0
 1220 013f 08020000 		.4byte	.LVL10-.Ltext0
 1221 0143 0100     		.2byte	0x1
 1222 0145 51       		.byte	0x51
 1223 0146 1E020000 		.4byte	.LVL11-.Ltext0
 1224 014a 38020000 		.4byte	.LVL12-.Ltext0
 1225 014e 0100     		.2byte	0x1
 1226 0150 51       		.byte	0x51
 1227 0151 38020000 		.4byte	.LVL12-.Ltext0
ARM GAS  /cygdrive/c/DOCUME~1/mkwapisz/LOCALS~1/Temp/cc9KLP72.s 			page 29


 1228 0155 46020000 		.4byte	.LVL13-.Ltext0
 1229 0159 0100     		.2byte	0x1
 1230 015b 52       		.byte	0x52
 1231 015c 60020000 		.4byte	.LVL16-.Ltext0
 1232 0160 88020000 		.4byte	.LVL22-.Ltext0
 1233 0164 0100     		.2byte	0x1
 1234 0166 55       		.byte	0x55
 1235 0167 88020000 		.4byte	.LVL22-.Ltext0
 1236 016b 8C020000 		.4byte	.LVL23-.Ltext0
 1237 016f 0100     		.2byte	0x1
 1238 0171 50       		.byte	0x50
 1239 0172 8C020000 		.4byte	.LVL23-.Ltext0
 1240 0176 A0020000 		.4byte	.LVL26-.Ltext0
 1241 017a 0100     		.2byte	0x1
 1242 017c 55       		.byte	0x55
 1243 017d A6020000 		.4byte	.LVL27-.Ltext0
 1244 0181 A8020000 		.4byte	.LVL28-.Ltext0
 1245 0185 0100     		.2byte	0x1
 1246 0187 52       		.byte	0x52
 1247 0188 B0020000 		.4byte	.LVL29-.Ltext0
 1248 018c B2020000 		.4byte	.LVL30-.Ltext0
 1249 0190 0100     		.2byte	0x1
 1250 0192 52       		.byte	0x52
 1251 0193 B4020000 		.4byte	.LVL31-.Ltext0
 1252 0197 E0020000 		.4byte	.LFE3-.Ltext0
 1253 019b 0100     		.2byte	0x1
 1254 019d 55       		.byte	0x55
 1255 019e 00000000 		.4byte	0x0
 1256 01a2 00000000 		.4byte	0x0
 1257              	.LLST9:
 1258 01a6 02020000 		.4byte	.LVL8-.Ltext0
 1259 01aa 4A020000 		.4byte	.LVL15-.Ltext0
 1260 01ae 0100     		.2byte	0x1
 1261 01b0 56       		.byte	0x56
 1262 01b1 4A020000 		.4byte	.LVL15-.Ltext0
 1263 01b5 60020000 		.4byte	.LVL16-.Ltext0
 1264 01b9 0100     		.2byte	0x1
 1265 01bb 51       		.byte	0x51
 1266 01bc 7A020000 		.4byte	.LVL18-.Ltext0
 1267 01c0 7E020000 		.4byte	.LVL19-.Ltext0
 1268 01c4 0100     		.2byte	0x1
 1269 01c6 51       		.byte	0x51
 1270 01c7 82020000 		.4byte	.LVL20-.Ltext0
 1271 01cb 86020000 		.4byte	.LVL21-.Ltext0
 1272 01cf 0100     		.2byte	0x1
 1273 01d1 51       		.byte	0x51
 1274 01d2 8C020000 		.4byte	.LVL23-.Ltext0
 1275 01d6 9E020000 		.4byte	.LVL24-.Ltext0
 1276 01da 0100     		.2byte	0x1
 1277 01dc 51       		.byte	0x51
 1278 01dd B2020000 		.4byte	.LVL30-.Ltext0
 1279 01e1 B2020000 		.4byte	.LVL30-.Ltext0
 1280 01e5 0100     		.2byte	0x1
 1281 01e7 51       		.byte	0x51
 1282 01e8 B2020000 		.4byte	.LVL30-.Ltext0
 1283 01ec BC020000 		.4byte	.LVL32-.Ltext0
 1284 01f0 0100     		.2byte	0x1
ARM GAS  /cygdrive/c/DOCUME~1/mkwapisz/LOCALS~1/Temp/cc9KLP72.s 			page 30


 1285 01f2 56       		.byte	0x56
 1286 01f3 00000000 		.4byte	0x0
 1287 01f7 00000000 		.4byte	0x0
 1288              	.LLST10:
 1289 01fb E0020000 		.4byte	.LFB2-.Ltext0
 1290 01ff E2020000 		.4byte	.LCFI6-.Ltext0
 1291 0203 0100     		.2byte	0x1
 1292 0205 5D       		.byte	0x5d
 1293 0206 E2020000 		.4byte	.LCFI6-.Ltext0
 1294 020a E4020000 		.4byte	.LCFI7-.Ltext0
 1295 020e 0200     		.2byte	0x2
 1296 0210 7D       		.byte	0x7d
 1297 0211 14       		.sleb128 20
 1298 0212 E4020000 		.4byte	.LCFI7-.Ltext0
 1299 0216 1C050000 		.4byte	.LFE2-.Ltext0
 1300 021a 0300     		.2byte	0x3
 1301 021c 7D       		.byte	0x7d
 1302 021d E400     		.sleb128 100
 1303 021f 00000000 		.4byte	0x0
 1304 0223 00000000 		.4byte	0x0
 1305              	.LLST11:
 1306 0227 E4020000 		.4byte	.LVL33-.Ltext0
 1307 022b 14030000 		.4byte	.LVL35-.Ltext0
 1308 022f 0100     		.2byte	0x1
 1309 0231 57       		.byte	0x57
 1310 0232 14030000 		.4byte	.LVL35-.Ltext0
 1311 0236 2E030000 		.4byte	.LVL36-.Ltext0
 1312 023a 0100     		.2byte	0x1
 1313 023c 50       		.byte	0x50
 1314 023d 2E030000 		.4byte	.LVL36-.Ltext0
 1315 0241 DC040000 		.4byte	.LVL50-.Ltext0
 1316 0245 0100     		.2byte	0x1
 1317 0247 57       		.byte	0x57
 1318 0248 00000000 		.4byte	0x0
 1319 024c 00000000 		.4byte	0x0
 1320              	.LLST12:
 1321 0250 00030000 		.4byte	.LVL34-.Ltext0
 1322 0254 40030000 		.4byte	.LVL37-.Ltext0
 1323 0258 0100     		.2byte	0x1
 1324 025a 55       		.byte	0x55
 1325 025b 40030000 		.4byte	.LVL37-.Ltext0
 1326 025f 56030000 		.4byte	.LVL38-.Ltext0
 1327 0263 0100     		.2byte	0x1
 1328 0265 51       		.byte	0x51
 1329 0266 56030000 		.4byte	.LVL38-.Ltext0
 1330 026a 5E030000 		.4byte	.LVL39-.Ltext0
 1331 026e 0100     		.2byte	0x1
 1332 0270 55       		.byte	0x55
 1333 0271 68030000 		.4byte	.LVL40-.Ltext0
 1334 0275 7C030000 		.4byte	.LVL41-.Ltext0
 1335 0279 0100     		.2byte	0x1
 1336 027b 51       		.byte	0x51
 1337 027c 86030000 		.4byte	.LVL42-.Ltext0
 1338 0280 9E030000 		.4byte	.LVL43-.Ltext0
 1339 0284 0100     		.2byte	0x1
 1340 0286 51       		.byte	0x51
 1341 0287 B4030000 		.4byte	.LVL44-.Ltext0
ARM GAS  /cygdrive/c/DOCUME~1/mkwapisz/LOCALS~1/Temp/cc9KLP72.s 			page 31


 1342 028b B8030000 		.4byte	.LVL45-.Ltext0
 1343 028f 0100     		.2byte	0x1
 1344 0291 51       		.byte	0x51
 1345 0292 BA030000 		.4byte	.LVL46-.Ltext0
 1346 0296 BA030000 		.4byte	.LVL46-.Ltext0
 1347 029a 0100     		.2byte	0x1
 1348 029c 55       		.byte	0x55
 1349 029d 52040000 		.4byte	.LVL48-.Ltext0
 1350 02a1 BC040000 		.4byte	.LVL49-.Ltext0
 1351 02a5 0100     		.2byte	0x1
 1352 02a7 55       		.byte	0x55
 1353 02a8 00000000 		.4byte	0x0
 1354 02ac 00000000 		.4byte	0x0
 1355              		.section	.debug_info
 1356 0000 C5030000 		.4byte	0x3c5
 1357 0004 0200     		.2byte	0x2
 1358 0006 00000000 		.4byte	.Ldebug_abbrev0
 1359 000a 04       		.byte	0x4
 1360 000b 01       		.uleb128 0x1
 1361 000c 00000000 		.4byte	.Ldebug_line0
 1362 0010 1C050000 		.4byte	.Letext0
 1363 0014 00000000 		.4byte	.Ltext0
 1364 0018 A6010000 		.4byte	.LASF44
 1365 001c 01       		.byte	0x1
 1366 001d F3010000 		.4byte	.LASF45
 1367 0021 98000000 		.4byte	.LASF46
 1368 0025 02       		.uleb128 0x2
 1369 0026 74553800 		.ascii	"tU8\000"
 1370 002a 02       		.byte	0x2
 1371 002b 47       		.byte	0x47
 1372 002c 30000000 		.4byte	0x30
 1373 0030 03       		.uleb128 0x3
 1374 0031 98010000 		.4byte	.LASF0
 1375 0035 01       		.byte	0x1
 1376 0036 08       		.byte	0x8
 1377 0037 03       		.uleb128 0x3
 1378 0038 33010000 		.4byte	.LASF1
 1379 003c 02       		.byte	0x2
 1380 003d 07       		.byte	0x7
 1381 003e 03       		.uleb128 0x3
 1382 003f FF000000 		.4byte	.LASF2
 1383 0043 04       		.byte	0x4
 1384 0044 07       		.byte	0x7
 1385 0045 02       		.uleb128 0x2
 1386 0046 74533800 		.ascii	"tS8\000"
 1387 004a 02       		.byte	0x2
 1388 004b 4A       		.byte	0x4a
 1389 004c 50000000 		.4byte	0x50
 1390 0050 03       		.uleb128 0x3
 1391 0051 00000000 		.4byte	.LASF3
 1392 0055 01       		.byte	0x1
 1393 0056 06       		.byte	0x6
 1394 0057 03       		.uleb128 0x3
 1395 0058 BE010000 		.4byte	.LASF4
 1396 005c 02       		.byte	0x2
 1397 005d 05       		.byte	0x5
 1398 005e 04       		.uleb128 0x4
ARM GAS  /cygdrive/c/DOCUME~1/mkwapisz/LOCALS~1/Temp/cc9KLP72.s 			page 32


 1399 005f DD010000 		.4byte	.LASF5
 1400 0063 02       		.byte	0x2
 1401 0064 4C       		.byte	0x4c
 1402 0065 69000000 		.4byte	0x69
 1403 0069 05       		.uleb128 0x5
 1404 006a 696E7400 		.ascii	"int\000"
 1405 006e 04       		.byte	0x4
 1406 006f 05       		.byte	0x5
 1407 0070 04       		.uleb128 0x4
 1408 0071 7A000000 		.4byte	.LASF6
 1409 0075 02       		.byte	0x2
 1410 0076 4D       		.byte	0x4d
 1411 0077 30000000 		.4byte	0x30
 1412 007b 06       		.uleb128 0x6
 1413 007c 04       		.byte	0x4
 1414 007d 25000000 		.4byte	0x25
 1415 0081 03       		.uleb128 0x3
 1416 0082 1B010000 		.4byte	.LASF7
 1417 0086 04       		.byte	0x4
 1418 0087 07       		.byte	0x7
 1419 0088 03       		.uleb128 0x3
 1420 0089 1B010000 		.4byte	.LASF7
 1421 008d 04       		.byte	0x4
 1422 008e 07       		.byte	0x7
 1423 008f 03       		.uleb128 0x3
 1424 0090 8A000000 		.4byte	.LASF8
 1425 0094 04       		.byte	0x4
 1426 0095 05       		.byte	0x5
 1427 0096 03       		.uleb128 0x3
 1428 0097 6C000000 		.4byte	.LASF9
 1429 009b 08       		.byte	0x8
 1430 009c 05       		.byte	0x5
 1431 009d 03       		.uleb128 0x3
 1432 009e D8010000 		.4byte	.LASF10
 1433 00a2 01       		.byte	0x1
 1434 00a3 08       		.byte	0x8
 1435 00a4 03       		.uleb128 0x3
 1436 00a5 26000000 		.4byte	.LASF11
 1437 00a9 08       		.byte	0x8
 1438 00aa 07       		.byte	0x7
 1439 00ab 07       		.uleb128 0x7
 1440 00ac 78010000 		.4byte	0x178
 1441 00b0 30       		.byte	0x30
 1442 00b1 03       		.byte	0x3
 1443 00b2 1A       		.byte	0x1a
 1444 00b3 08       		.uleb128 0x8
 1445 00b4 13020000 		.4byte	.LASF12
 1446 00b8 03       		.byte	0x3
 1447 00b9 1B       		.byte	0x1b
 1448 00ba 25000000 		.4byte	0x25
 1449 00be 02       		.byte	0x2
 1450 00bf 23       		.byte	0x23
 1451 00c0 00       		.uleb128 0x0
 1452 00c1 08       		.uleb128 0x8
 1453 00c2 E2010000 		.4byte	.LASF13
 1454 00c6 03       		.byte	0x3
 1455 00c7 1C       		.byte	0x1c
ARM GAS  /cygdrive/c/DOCUME~1/mkwapisz/LOCALS~1/Temp/cc9KLP72.s 			page 33


 1456 00c8 25000000 		.4byte	0x25
 1457 00cc 02       		.byte	0x2
 1458 00cd 23       		.byte	0x23
 1459 00ce 01       		.uleb128 0x1
 1460 00cf 08       		.uleb128 0x8
 1461 00d0 C8010000 		.4byte	.LASF14
 1462 00d4 03       		.byte	0x3
 1463 00d5 1D       		.byte	0x1d
 1464 00d6 25000000 		.4byte	0x25
 1465 00da 02       		.byte	0x2
 1466 00db 23       		.byte	0x23
 1467 00dc 02       		.uleb128 0x2
 1468 00dd 08       		.uleb128 0x8
 1469 00de 93000000 		.4byte	.LASF15
 1470 00e2 03       		.byte	0x3
 1471 00e3 1E       		.byte	0x1e
 1472 00e4 25000000 		.4byte	0x25
 1473 00e8 02       		.byte	0x2
 1474 00e9 23       		.byte	0x23
 1475 00ea 03       		.uleb128 0x3
 1476 00eb 08       		.uleb128 0x8
 1477 00ec D8000000 		.4byte	.LASF16
 1478 00f0 03       		.byte	0x3
 1479 00f1 1F       		.byte	0x1f
 1480 00f2 25000000 		.4byte	0x25
 1481 00f6 02       		.byte	0x2
 1482 00f7 23       		.byte	0x23
 1483 00f8 04       		.uleb128 0x4
 1484 00f9 08       		.uleb128 0x8
 1485 00fa F1000000 		.4byte	.LASF17
 1486 00fe 03       		.byte	0x3
 1487 00ff 20       		.byte	0x20
 1488 0100 25000000 		.4byte	0x25
 1489 0104 02       		.byte	0x2
 1490 0105 23       		.byte	0x23
 1491 0106 05       		.uleb128 0x5
 1492 0107 08       		.uleb128 0x8
 1493 0108 1E020000 		.4byte	.LASF18
 1494 010c 03       		.byte	0x3
 1495 010d 21       		.byte	0x21
 1496 010e 7B000000 		.4byte	0x7b
 1497 0112 02       		.byte	0x2
 1498 0113 23       		.byte	0x23
 1499 0114 08       		.uleb128 0x8
 1500 0115 08       		.uleb128 0x8
 1501 0116 0C010000 		.4byte	.LASF19
 1502 011a 03       		.byte	0x3
 1503 011b 22       		.byte	0x22
 1504 011c 25000000 		.4byte	0x25
 1505 0120 02       		.byte	0x2
 1506 0121 23       		.byte	0x23
 1507 0122 0C       		.uleb128 0xc
 1508 0123 08       		.uleb128 0x8
 1509 0124 55010000 		.4byte	.LASF20
 1510 0128 03       		.byte	0x3
 1511 0129 23       		.byte	0x23
 1512 012a 78010000 		.4byte	0x178
ARM GAS  /cygdrive/c/DOCUME~1/mkwapisz/LOCALS~1/Temp/cc9KLP72.s 			page 34


 1513 012e 02       		.byte	0x2
 1514 012f 23       		.byte	0x23
 1515 0130 10       		.uleb128 0x10
 1516 0131 08       		.uleb128 0x8
 1517 0132 68010000 		.4byte	.LASF21
 1518 0136 03       		.byte	0x3
 1519 0137 24       		.byte	0x24
 1520 0138 25000000 		.4byte	0x25
 1521 013c 02       		.byte	0x2
 1522 013d 23       		.byte	0x23
 1523 013e 28       		.uleb128 0x28
 1524 013f 08       		.uleb128 0x8
 1525 0140 56000000 		.4byte	.LASF22
 1526 0144 03       		.byte	0x3
 1527 0145 25       		.byte	0x25
 1528 0146 25000000 		.4byte	0x25
 1529 014a 02       		.byte	0x2
 1530 014b 23       		.byte	0x23
 1531 014c 29       		.uleb128 0x29
 1532 014d 08       		.uleb128 0x8
 1533 014e E7010000 		.4byte	.LASF23
 1534 0152 03       		.byte	0x3
 1535 0153 26       		.byte	0x26
 1536 0154 25000000 		.4byte	0x25
 1537 0158 02       		.byte	0x2
 1538 0159 23       		.byte	0x23
 1539 015a 2A       		.uleb128 0x2a
 1540 015b 08       		.uleb128 0x8
 1541 015c E4000000 		.4byte	.LASF24
 1542 0160 03       		.byte	0x3
 1543 0161 27       		.byte	0x27
 1544 0162 25000000 		.4byte	0x25
 1545 0166 02       		.byte	0x2
 1546 0167 23       		.byte	0x23
 1547 0168 2B       		.uleb128 0x2b
 1548 0169 08       		.uleb128 0x8
 1549 016a 3D000000 		.4byte	.LASF25
 1550 016e 03       		.byte	0x3
 1551 016f 28       		.byte	0x28
 1552 0170 25000000 		.4byte	0x25
 1553 0174 02       		.byte	0x2
 1554 0175 23       		.byte	0x23
 1555 0176 2C       		.uleb128 0x2c
 1556 0177 00       		.byte	0x0
 1557 0178 09       		.uleb128 0x9
 1558 0179 88010000 		.4byte	0x188
 1559 017d 7B000000 		.4byte	0x7b
 1560 0181 0A       		.uleb128 0xa
 1561 0182 81000000 		.4byte	0x81
 1562 0186 05       		.byte	0x5
 1563 0187 00       		.byte	0x0
 1564 0188 04       		.uleb128 0x4
 1565 0189 92010000 		.4byte	.LASF26
 1566 018d 03       		.byte	0x3
 1567 018e 29       		.byte	0x29
 1568 018f AB000000 		.4byte	0xab
 1569 0193 0B       		.uleb128 0xb
ARM GAS  /cygdrive/c/DOCUME~1/mkwapisz/LOCALS~1/Temp/cc9KLP72.s 			page 35


 1570 0194 BC010000 		.4byte	0x1bc
 1571 0198 FB010000 		.4byte	.LASF47
 1572 019c 08       		.byte	0x8
 1573 019d 01       		.byte	0x1
 1574 019e 39       		.byte	0x39
 1575 019f 0C       		.uleb128 0xc
 1576 01a0 726F7700 		.ascii	"row\000"
 1577 01a4 01       		.byte	0x1
 1578 01a5 3A       		.byte	0x3a
 1579 01a6 5E000000 		.4byte	0x5e
 1580 01aa 02       		.byte	0x2
 1581 01ab 23       		.byte	0x23
 1582 01ac 00       		.uleb128 0x0
 1583 01ad 0C       		.uleb128 0xc
 1584 01ae 636F6C00 		.ascii	"col\000"
 1585 01b2 01       		.byte	0x1
 1586 01b3 3B       		.byte	0x3b
 1587 01b4 5E000000 		.4byte	0x5e
 1588 01b8 02       		.byte	0x2
 1589 01b9 23       		.byte	0x23
 1590 01ba 04       		.uleb128 0x4
 1591 01bb 00       		.byte	0x0
 1592 01bc 0D       		.uleb128 0xd
 1593 01bd 1B000000 		.4byte	.LASF48
 1594 01c1 01       		.byte	0x1
 1595 01c2 4401     		.2byte	0x144
 1596 01c4 00000000 		.4byte	.LFB5
 1597 01c8 90000000 		.4byte	.LFE5
 1598 01cc 01       		.byte	0x1
 1599 01cd 5D       		.byte	0x5d
 1600 01ce 0E       		.uleb128 0xe
 1601 01cf 14020000 		.4byte	0x214
 1602 01d3 8B010000 		.4byte	.LASF28
 1603 01d7 01       		.byte	0x1
 1604 01d8 5F01     		.2byte	0x15f
 1605 01da 01       		.byte	0x1
 1606 01db 90000000 		.4byte	.LFB6
 1607 01df BC000000 		.4byte	.LFE6
 1608 01e3 00000000 		.4byte	.LLST1
 1609 01e7 0F       		.uleb128 0xf
 1610 01e8 7800     		.ascii	"x\000"
 1611 01ea 01       		.byte	0x1
 1612 01eb 5F01     		.2byte	0x15f
 1613 01ed 25000000 		.4byte	0x25
 1614 01f1 2B000000 		.4byte	.LLST2
 1615 01f5 0F       		.uleb128 0xf
 1616 01f6 7900     		.ascii	"y\000"
 1617 01f8 01       		.byte	0x1
 1618 01f9 5F01     		.2byte	0x15f
 1619 01fb 25000000 		.4byte	0x25
 1620 01ff 3E000000 		.4byte	.LLST3
 1621 0203 10       		.uleb128 0x10
 1622 0204 4F010000 		.4byte	.LASF27
 1623 0208 01       		.byte	0x1
 1624 0209 5F01     		.2byte	0x15f
 1625 020b 25000000 		.4byte	0x25
 1626 020f 51000000 		.4byte	.LLST4
ARM GAS  /cygdrive/c/DOCUME~1/mkwapisz/LOCALS~1/Temp/cc9KLP72.s 			page 36


 1627 0213 00       		.byte	0x0
 1628 0214 11       		.uleb128 0x11
 1629 0215 3C020000 		.4byte	0x23c
 1630 0219 80000000 		.4byte	.LASF29
 1631 021d 01       		.byte	0x1
 1632 021e 1901     		.2byte	0x119
 1633 0220 BC000000 		.4byte	.LFB4
 1634 0224 98010000 		.4byte	.LFE4
 1635 0228 6F000000 		.4byte	.LLST5
 1636 022c 12       		.uleb128 0x12
 1637 022d 73747200 		.ascii	"str\000"
 1638 0231 01       		.byte	0x1
 1639 0232 1A01     		.2byte	0x11a
 1640 0234 3C020000 		.4byte	0x23c
 1641 0238 02       		.byte	0x2
 1642 0239 91       		.byte	0x91
 1643 023a 63       		.sleb128 -29
 1644 023b 00       		.byte	0x0
 1645 023c 09       		.uleb128 0x9
 1646 023d 4C020000 		.4byte	0x24c
 1647 0241 25000000 		.4byte	0x25
 1648 0245 0A       		.uleb128 0xa
 1649 0246 81000000 		.4byte	0x81
 1650 024a 0C       		.byte	0xc
 1651 024b 00       		.byte	0x0
 1652 024c 13       		.uleb128 0x13
 1653 024d 8F020000 		.4byte	0x28f
 1654 0251 70010000 		.4byte	.LASF30
 1655 0255 01       		.byte	0x1
 1656 0256 D3       		.byte	0xd3
 1657 0257 98010000 		.4byte	.LFB3
 1658 025b E0020000 		.4byte	.LFE3
 1659 025f 9A000000 		.4byte	.LLST6
 1660 0263 14       		.uleb128 0x14
 1661 0264 726F7700 		.ascii	"row\000"
 1662 0268 01       		.byte	0x1
 1663 0269 D5       		.byte	0xd5
 1664 026a 5E000000 		.4byte	0x5e
 1665 026e C5000000 		.4byte	.LLST7
 1666 0272 14       		.uleb128 0x14
 1667 0273 636F6C00 		.ascii	"col\000"
 1668 0277 01       		.byte	0x1
 1669 0278 D5       		.byte	0xd5
 1670 0279 5E000000 		.4byte	0x5e
 1671 027d 30010000 		.4byte	.LLST8
 1672 0281 14       		.uleb128 0x14
 1673 0282 6900     		.ascii	"i\000"
 1674 0284 01       		.byte	0x1
 1675 0285 D5       		.byte	0xd5
 1676 0286 5E000000 		.4byte	0x5e
 1677 028a A6010000 		.4byte	.LLST9
 1678 028e 00       		.byte	0x0
 1679 028f 15       		.uleb128 0x15
 1680 0290 F7020000 		.4byte	0x2f7
 1681 0294 01       		.byte	0x1
 1682 0295 11000000 		.4byte	.LASF49
 1683 0299 01       		.byte	0x1
ARM GAS  /cygdrive/c/DOCUME~1/mkwapisz/LOCALS~1/Temp/cc9KLP72.s 			page 37


 1684 029a 4A       		.byte	0x4a
 1685 029b 01       		.byte	0x1
 1686 029c E0020000 		.4byte	.LFB2
 1687 02a0 1C050000 		.4byte	.LFE2
 1688 02a4 FB010000 		.4byte	.LLST10
 1689 02a8 16       		.uleb128 0x16
 1690 02a9 46010000 		.4byte	.LASF31
 1691 02ad 01       		.byte	0x1
 1692 02ae 4B       		.byte	0x4b
 1693 02af 25000000 		.4byte	0x25
 1694 02b3 27020000 		.4byte	.LLST11
 1695 02b7 17       		.uleb128 0x17
 1696 02b8 0C000000 		.4byte	.LASF32
 1697 02bc 01       		.byte	0x1
 1698 02bd 4C       		.byte	0x4c
 1699 02be 25000000 		.4byte	0x25
 1700 02c2 18       		.uleb128 0x18
 1701 02c3 DD020000 		.4byte	0x2dd
 1702 02c7 00030000 		.4byte	.LBB2
 1703 02cb 52040000 		.4byte	.LBE2
 1704 02cf 14       		.uleb128 0x14
 1705 02d0 6900     		.ascii	"i\000"
 1706 02d2 01       		.byte	0x1
 1707 02d3 59       		.byte	0x59
 1708 02d4 5E000000 		.4byte	0x5e
 1709 02d8 50020000 		.4byte	.LLST12
 1710 02dc 00       		.byte	0x0
 1711 02dd 19       		.uleb128 0x19
 1712 02de 6A040000 		.4byte	.LBB3
 1713 02e2 DA040000 		.4byte	.LBE3
 1714 02e6 1A       		.uleb128 0x1a
 1715 02e7 08020000 		.4byte	.LASF33
 1716 02eb 01       		.byte	0x1
 1717 02ec AC       		.byte	0xac
 1718 02ed 88010000 		.4byte	0x188
 1719 02f1 03       		.byte	0x3
 1720 02f2 91       		.byte	0x91
 1721 02f3 BC7F     		.sleb128 -68
 1722 02f5 00       		.byte	0x0
 1723 02f6 00       		.byte	0x0
 1724 02f7 1A       		.uleb128 0x1a
 1725 02f8 18020000 		.4byte	.LASF34
 1726 02fc 01       		.byte	0x1
 1727 02fd 2F       		.byte	0x2f
 1728 02fe 5E000000 		.4byte	0x5e
 1729 0302 05       		.byte	0x5
 1730 0303 03       		.byte	0x3
 1731 0304 04000000 		.4byte	score
 1732 0308 1A       		.uleb128 0x1a
 1733 0309 B2010000 		.4byte	.LASF35
 1734 030d 01       		.byte	0x1
 1735 030e 30       		.byte	0x30
 1736 030f 5E000000 		.4byte	0x5e
 1737 0313 05       		.byte	0x5
 1738 0314 03       		.byte	0x3
 1739 0315 08000000 		.4byte	snakeLength
 1740 0319 1A       		.uleb128 0x1a
ARM GAS  /cygdrive/c/DOCUME~1/mkwapisz/LOCALS~1/Temp/cc9KLP72.s 			page 38


 1741 031a 0D020000 		.4byte	.LASF36
 1742 031e 01       		.byte	0x1
 1743 031f 31       		.byte	0x31
 1744 0320 5E000000 		.4byte	0x5e
 1745 0324 05       		.byte	0x5
 1746 0325 03       		.byte	0x3
 1747 0326 0C000000 		.4byte	speed
 1748 032a 1A       		.uleb128 0x1a
 1749 032b 62000000 		.4byte	.LASF37
 1750 032f 01       		.byte	0x1
 1751 0330 32       		.byte	0x32
 1752 0331 5E000000 		.4byte	0x5e
 1753 0335 05       		.byte	0x5
 1754 0336 03       		.byte	0x3
 1755 0337 10000000 		.4byte	obstacles
 1756 033b 1A       		.uleb128 0x1a
 1757 033c 2D010000 		.4byte	.LASF38
 1758 0340 01       		.byte	0x1
 1759 0341 33       		.byte	0x33
 1760 0342 5E000000 		.4byte	0x5e
 1761 0346 05       		.byte	0x5
 1762 0347 03       		.byte	0x3
 1763 0348 14000000 		.4byte	level
 1764 034c 1A       		.uleb128 0x1a
 1765 034d CD010000 		.4byte	.LASF39
 1766 0351 01       		.byte	0x1
 1767 0352 34       		.byte	0x34
 1768 0353 70000000 		.4byte	0x70
 1769 0357 05       		.byte	0x5
 1770 0358 03       		.byte	0x3
 1771 0359 18000000 		.4byte	firstPress
 1772 035d 1A       		.uleb128 0x1a
 1773 035e 4B000000 		.4byte	.LASF40
 1774 0362 01       		.byte	0x1
 1775 0363 35       		.byte	0x35
 1776 0364 5E000000 		.4byte	0x5e
 1777 0368 05       		.byte	0x5
 1778 0369 03       		.byte	0x3
 1779 036a 00000000 		.4byte	high_score
 1780 036e 09       		.uleb128 0x9
 1781 036f 84030000 		.4byte	0x384
 1782 0373 45000000 		.4byte	0x45
 1783 0377 0A       		.uleb128 0xa
 1784 0378 81000000 		.4byte	0x81
 1785 037c 13       		.byte	0x13
 1786 037d 0A       		.uleb128 0xa
 1787 037e 81000000 		.4byte	0x81
 1788 0382 1E       		.byte	0x1e
 1789 0383 00       		.byte	0x0
 1790 0384 1A       		.uleb128 0x1a
 1791 0385 5D010000 		.4byte	.LASF41
 1792 0389 01       		.byte	0x1
 1793 038a 36       		.byte	0x36
 1794 038b 6E030000 		.4byte	0x36e
 1795 038f 05       		.byte	0x5
 1796 0390 03       		.byte	0x3
 1797 0391 19000000 		.4byte	screenGrid
ARM GAS  /cygdrive/c/DOCUME~1/mkwapisz/LOCALS~1/Temp/cc9KLP72.s 			page 39


 1798 0395 1A       		.uleb128 0x1a
 1799 0396 7B010000 		.4byte	.LASF42
 1800 039a 01       		.byte	0x1
 1801 039b 37       		.byte	0x37
 1802 039c 45000000 		.4byte	0x45
 1803 03a0 05       		.byte	0x5
 1804 03a1 03       		.byte	0x3
 1805 03a2 00000000 		.4byte	direction
 1806 03a6 09       		.uleb128 0x9
 1807 03a7 B6030000 		.4byte	0x3b6
 1808 03ab 93010000 		.4byte	0x193
 1809 03af 0A       		.uleb128 0xa
 1810 03b0 81000000 		.4byte	0x81
 1811 03b4 63       		.byte	0x63
 1812 03b5 00       		.byte	0x0
 1813 03b6 1B       		.uleb128 0x1b
 1814 03b7 85010000 		.4byte	.LASF43
 1815 03bb 01       		.byte	0x1
 1816 03bc 3C       		.byte	0x3c
 1817 03bd A6030000 		.4byte	0x3a6
 1818 03c1 01       		.byte	0x1
 1819 03c2 05       		.byte	0x5
 1820 03c3 03       		.byte	0x3
 1821 03c4 00000000 		.4byte	snake
 1822 03c8 00       		.byte	0x0
 1823              		.section	.debug_abbrev
 1824 0000 01       		.uleb128 0x1
 1825 0001 11       		.uleb128 0x11
 1826 0002 01       		.byte	0x1
 1827 0003 10       		.uleb128 0x10
 1828 0004 06       		.uleb128 0x6
 1829 0005 12       		.uleb128 0x12
 1830 0006 01       		.uleb128 0x1
 1831 0007 11       		.uleb128 0x11
 1832 0008 01       		.uleb128 0x1
 1833 0009 25       		.uleb128 0x25
 1834 000a 0E       		.uleb128 0xe
 1835 000b 13       		.uleb128 0x13
 1836 000c 0B       		.uleb128 0xb
 1837 000d 03       		.uleb128 0x3
 1838 000e 0E       		.uleb128 0xe
 1839 000f 1B       		.uleb128 0x1b
 1840 0010 0E       		.uleb128 0xe
 1841 0011 00       		.byte	0x0
 1842 0012 00       		.byte	0x0
 1843 0013 02       		.uleb128 0x2
 1844 0014 16       		.uleb128 0x16
 1845 0015 00       		.byte	0x0
 1846 0016 03       		.uleb128 0x3
 1847 0017 08       		.uleb128 0x8
 1848 0018 3A       		.uleb128 0x3a
 1849 0019 0B       		.uleb128 0xb
 1850 001a 3B       		.uleb128 0x3b
 1851 001b 0B       		.uleb128 0xb
 1852 001c 49       		.uleb128 0x49
 1853 001d 13       		.uleb128 0x13
 1854 001e 00       		.byte	0x0
ARM GAS  /cygdrive/c/DOCUME~1/mkwapisz/LOCALS~1/Temp/cc9KLP72.s 			page 40


 1855 001f 00       		.byte	0x0
 1856 0020 03       		.uleb128 0x3
 1857 0021 24       		.uleb128 0x24
 1858 0022 00       		.byte	0x0
 1859 0023 03       		.uleb128 0x3
 1860 0024 0E       		.uleb128 0xe
 1861 0025 0B       		.uleb128 0xb
 1862 0026 0B       		.uleb128 0xb
 1863 0027 3E       		.uleb128 0x3e
 1864 0028 0B       		.uleb128 0xb
 1865 0029 00       		.byte	0x0
 1866 002a 00       		.byte	0x0
 1867 002b 04       		.uleb128 0x4
 1868 002c 16       		.uleb128 0x16
 1869 002d 00       		.byte	0x0
 1870 002e 03       		.uleb128 0x3
 1871 002f 0E       		.uleb128 0xe
 1872 0030 3A       		.uleb128 0x3a
 1873 0031 0B       		.uleb128 0xb
 1874 0032 3B       		.uleb128 0x3b
 1875 0033 0B       		.uleb128 0xb
 1876 0034 49       		.uleb128 0x49
 1877 0035 13       		.uleb128 0x13
 1878 0036 00       		.byte	0x0
 1879 0037 00       		.byte	0x0
 1880 0038 05       		.uleb128 0x5
 1881 0039 24       		.uleb128 0x24
 1882 003a 00       		.byte	0x0
 1883 003b 03       		.uleb128 0x3
 1884 003c 08       		.uleb128 0x8
 1885 003d 0B       		.uleb128 0xb
 1886 003e 0B       		.uleb128 0xb
 1887 003f 3E       		.uleb128 0x3e
 1888 0040 0B       		.uleb128 0xb
 1889 0041 00       		.byte	0x0
 1890 0042 00       		.byte	0x0
 1891 0043 06       		.uleb128 0x6
 1892 0044 0F       		.uleb128 0xf
 1893 0045 00       		.byte	0x0
 1894 0046 0B       		.uleb128 0xb
 1895 0047 0B       		.uleb128 0xb
 1896 0048 49       		.uleb128 0x49
 1897 0049 13       		.uleb128 0x13
 1898 004a 00       		.byte	0x0
 1899 004b 00       		.byte	0x0
 1900 004c 07       		.uleb128 0x7
 1901 004d 13       		.uleb128 0x13
 1902 004e 01       		.byte	0x1
 1903 004f 01       		.uleb128 0x1
 1904 0050 13       		.uleb128 0x13
 1905 0051 0B       		.uleb128 0xb
 1906 0052 0B       		.uleb128 0xb
 1907 0053 3A       		.uleb128 0x3a
 1908 0054 0B       		.uleb128 0xb
 1909 0055 3B       		.uleb128 0x3b
 1910 0056 0B       		.uleb128 0xb
 1911 0057 00       		.byte	0x0
ARM GAS  /cygdrive/c/DOCUME~1/mkwapisz/LOCALS~1/Temp/cc9KLP72.s 			page 41


 1912 0058 00       		.byte	0x0
 1913 0059 08       		.uleb128 0x8
 1914 005a 0D       		.uleb128 0xd
 1915 005b 00       		.byte	0x0
 1916 005c 03       		.uleb128 0x3
 1917 005d 0E       		.uleb128 0xe
 1918 005e 3A       		.uleb128 0x3a
 1919 005f 0B       		.uleb128 0xb
 1920 0060 3B       		.uleb128 0x3b
 1921 0061 0B       		.uleb128 0xb
 1922 0062 49       		.uleb128 0x49
 1923 0063 13       		.uleb128 0x13
 1924 0064 38       		.uleb128 0x38
 1925 0065 0A       		.uleb128 0xa
 1926 0066 00       		.byte	0x0
 1927 0067 00       		.byte	0x0
 1928 0068 09       		.uleb128 0x9
 1929 0069 01       		.uleb128 0x1
 1930 006a 01       		.byte	0x1
 1931 006b 01       		.uleb128 0x1
 1932 006c 13       		.uleb128 0x13
 1933 006d 49       		.uleb128 0x49
 1934 006e 13       		.uleb128 0x13
 1935 006f 00       		.byte	0x0
 1936 0070 00       		.byte	0x0
 1937 0071 0A       		.uleb128 0xa
 1938 0072 21       		.uleb128 0x21
 1939 0073 00       		.byte	0x0
 1940 0074 49       		.uleb128 0x49
 1941 0075 13       		.uleb128 0x13
 1942 0076 2F       		.uleb128 0x2f
 1943 0077 0B       		.uleb128 0xb
 1944 0078 00       		.byte	0x0
 1945 0079 00       		.byte	0x0
 1946 007a 0B       		.uleb128 0xb
 1947 007b 13       		.uleb128 0x13
 1948 007c 01       		.byte	0x1
 1949 007d 01       		.uleb128 0x1
 1950 007e 13       		.uleb128 0x13
 1951 007f 03       		.uleb128 0x3
 1952 0080 0E       		.uleb128 0xe
 1953 0081 0B       		.uleb128 0xb
 1954 0082 0B       		.uleb128 0xb
 1955 0083 3A       		.uleb128 0x3a
 1956 0084 0B       		.uleb128 0xb
 1957 0085 3B       		.uleb128 0x3b
 1958 0086 0B       		.uleb128 0xb
 1959 0087 00       		.byte	0x0
 1960 0088 00       		.byte	0x0
 1961 0089 0C       		.uleb128 0xc
 1962 008a 0D       		.uleb128 0xd
 1963 008b 00       		.byte	0x0
 1964 008c 03       		.uleb128 0x3
 1965 008d 08       		.uleb128 0x8
 1966 008e 3A       		.uleb128 0x3a
 1967 008f 0B       		.uleb128 0xb
 1968 0090 3B       		.uleb128 0x3b
ARM GAS  /cygdrive/c/DOCUME~1/mkwapisz/LOCALS~1/Temp/cc9KLP72.s 			page 42


 1969 0091 0B       		.uleb128 0xb
 1970 0092 49       		.uleb128 0x49
 1971 0093 13       		.uleb128 0x13
 1972 0094 38       		.uleb128 0x38
 1973 0095 0A       		.uleb128 0xa
 1974 0096 00       		.byte	0x0
 1975 0097 00       		.byte	0x0
 1976 0098 0D       		.uleb128 0xd
 1977 0099 2E       		.uleb128 0x2e
 1978 009a 00       		.byte	0x0
 1979 009b 03       		.uleb128 0x3
 1980 009c 0E       		.uleb128 0xe
 1981 009d 3A       		.uleb128 0x3a
 1982 009e 0B       		.uleb128 0xb
 1983 009f 3B       		.uleb128 0x3b
 1984 00a0 05       		.uleb128 0x5
 1985 00a1 11       		.uleb128 0x11
 1986 00a2 01       		.uleb128 0x1
 1987 00a3 12       		.uleb128 0x12
 1988 00a4 01       		.uleb128 0x1
 1989 00a5 40       		.uleb128 0x40
 1990 00a6 0A       		.uleb128 0xa
 1991 00a7 00       		.byte	0x0
 1992 00a8 00       		.byte	0x0
 1993 00a9 0E       		.uleb128 0xe
 1994 00aa 2E       		.uleb128 0x2e
 1995 00ab 01       		.byte	0x1
 1996 00ac 01       		.uleb128 0x1
 1997 00ad 13       		.uleb128 0x13
 1998 00ae 03       		.uleb128 0x3
 1999 00af 0E       		.uleb128 0xe
 2000 00b0 3A       		.uleb128 0x3a
 2001 00b1 0B       		.uleb128 0xb
 2002 00b2 3B       		.uleb128 0x3b
 2003 00b3 05       		.uleb128 0x5
 2004 00b4 27       		.uleb128 0x27
 2005 00b5 0C       		.uleb128 0xc
 2006 00b6 11       		.uleb128 0x11
 2007 00b7 01       		.uleb128 0x1
 2008 00b8 12       		.uleb128 0x12
 2009 00b9 01       		.uleb128 0x1
 2010 00ba 40       		.uleb128 0x40
 2011 00bb 06       		.uleb128 0x6
 2012 00bc 00       		.byte	0x0
 2013 00bd 00       		.byte	0x0
 2014 00be 0F       		.uleb128 0xf
 2015 00bf 05       		.uleb128 0x5
 2016 00c0 00       		.byte	0x0
 2017 00c1 03       		.uleb128 0x3
 2018 00c2 08       		.uleb128 0x8
 2019 00c3 3A       		.uleb128 0x3a
 2020 00c4 0B       		.uleb128 0xb
 2021 00c5 3B       		.uleb128 0x3b
 2022 00c6 05       		.uleb128 0x5
 2023 00c7 49       		.uleb128 0x49
 2024 00c8 13       		.uleb128 0x13
 2025 00c9 02       		.uleb128 0x2
ARM GAS  /cygdrive/c/DOCUME~1/mkwapisz/LOCALS~1/Temp/cc9KLP72.s 			page 43


 2026 00ca 06       		.uleb128 0x6
 2027 00cb 00       		.byte	0x0
 2028 00cc 00       		.byte	0x0
 2029 00cd 10       		.uleb128 0x10
 2030 00ce 05       		.uleb128 0x5
 2031 00cf 00       		.byte	0x0
 2032 00d0 03       		.uleb128 0x3
 2033 00d1 0E       		.uleb128 0xe
 2034 00d2 3A       		.uleb128 0x3a
 2035 00d3 0B       		.uleb128 0xb
 2036 00d4 3B       		.uleb128 0x3b
 2037 00d5 05       		.uleb128 0x5
 2038 00d6 49       		.uleb128 0x49
 2039 00d7 13       		.uleb128 0x13
 2040 00d8 02       		.uleb128 0x2
 2041 00d9 06       		.uleb128 0x6
 2042 00da 00       		.byte	0x0
 2043 00db 00       		.byte	0x0
 2044 00dc 11       		.uleb128 0x11
 2045 00dd 2E       		.uleb128 0x2e
 2046 00de 01       		.byte	0x1
 2047 00df 01       		.uleb128 0x1
 2048 00e0 13       		.uleb128 0x13
 2049 00e1 03       		.uleb128 0x3
 2050 00e2 0E       		.uleb128 0xe
 2051 00e3 3A       		.uleb128 0x3a
 2052 00e4 0B       		.uleb128 0xb
 2053 00e5 3B       		.uleb128 0x3b
 2054 00e6 05       		.uleb128 0x5
 2055 00e7 11       		.uleb128 0x11
 2056 00e8 01       		.uleb128 0x1
 2057 00e9 12       		.uleb128 0x12
 2058 00ea 01       		.uleb128 0x1
 2059 00eb 40       		.uleb128 0x40
 2060 00ec 06       		.uleb128 0x6
 2061 00ed 00       		.byte	0x0
 2062 00ee 00       		.byte	0x0
 2063 00ef 12       		.uleb128 0x12
 2064 00f0 34       		.uleb128 0x34
 2065 00f1 00       		.byte	0x0
 2066 00f2 03       		.uleb128 0x3
 2067 00f3 08       		.uleb128 0x8
 2068 00f4 3A       		.uleb128 0x3a
 2069 00f5 0B       		.uleb128 0xb
 2070 00f6 3B       		.uleb128 0x3b
 2071 00f7 05       		.uleb128 0x5
 2072 00f8 49       		.uleb128 0x49
 2073 00f9 13       		.uleb128 0x13
 2074 00fa 02       		.uleb128 0x2
 2075 00fb 0A       		.uleb128 0xa
 2076 00fc 00       		.byte	0x0
 2077 00fd 00       		.byte	0x0
 2078 00fe 13       		.uleb128 0x13
 2079 00ff 2E       		.uleb128 0x2e
 2080 0100 01       		.byte	0x1
 2081 0101 01       		.uleb128 0x1
 2082 0102 13       		.uleb128 0x13
ARM GAS  /cygdrive/c/DOCUME~1/mkwapisz/LOCALS~1/Temp/cc9KLP72.s 			page 44


 2083 0103 03       		.uleb128 0x3
 2084 0104 0E       		.uleb128 0xe
 2085 0105 3A       		.uleb128 0x3a
 2086 0106 0B       		.uleb128 0xb
 2087 0107 3B       		.uleb128 0x3b
 2088 0108 0B       		.uleb128 0xb
 2089 0109 11       		.uleb128 0x11
 2090 010a 01       		.uleb128 0x1
 2091 010b 12       		.uleb128 0x12
 2092 010c 01       		.uleb128 0x1
 2093 010d 40       		.uleb128 0x40
 2094 010e 06       		.uleb128 0x6
 2095 010f 00       		.byte	0x0
 2096 0110 00       		.byte	0x0
 2097 0111 14       		.uleb128 0x14
 2098 0112 34       		.uleb128 0x34
 2099 0113 00       		.byte	0x0
 2100 0114 03       		.uleb128 0x3
 2101 0115 08       		.uleb128 0x8
 2102 0116 3A       		.uleb128 0x3a
 2103 0117 0B       		.uleb128 0xb
 2104 0118 3B       		.uleb128 0x3b
 2105 0119 0B       		.uleb128 0xb
 2106 011a 49       		.uleb128 0x49
 2107 011b 13       		.uleb128 0x13
 2108 011c 02       		.uleb128 0x2
 2109 011d 06       		.uleb128 0x6
 2110 011e 00       		.byte	0x0
 2111 011f 00       		.byte	0x0
 2112 0120 15       		.uleb128 0x15
 2113 0121 2E       		.uleb128 0x2e
 2114 0122 01       		.byte	0x1
 2115 0123 01       		.uleb128 0x1
 2116 0124 13       		.uleb128 0x13
 2117 0125 3F       		.uleb128 0x3f
 2118 0126 0C       		.uleb128 0xc
 2119 0127 03       		.uleb128 0x3
 2120 0128 0E       		.uleb128 0xe
 2121 0129 3A       		.uleb128 0x3a
 2122 012a 0B       		.uleb128 0xb
 2123 012b 3B       		.uleb128 0x3b
 2124 012c 0B       		.uleb128 0xb
 2125 012d 27       		.uleb128 0x27
 2126 012e 0C       		.uleb128 0xc
 2127 012f 11       		.uleb128 0x11
 2128 0130 01       		.uleb128 0x1
 2129 0131 12       		.uleb128 0x12
 2130 0132 01       		.uleb128 0x1
 2131 0133 40       		.uleb128 0x40
 2132 0134 06       		.uleb128 0x6
 2133 0135 00       		.byte	0x0
 2134 0136 00       		.byte	0x0
 2135 0137 16       		.uleb128 0x16
 2136 0138 34       		.uleb128 0x34
 2137 0139 00       		.byte	0x0
 2138 013a 03       		.uleb128 0x3
 2139 013b 0E       		.uleb128 0xe
ARM GAS  /cygdrive/c/DOCUME~1/mkwapisz/LOCALS~1/Temp/cc9KLP72.s 			page 45


 2140 013c 3A       		.uleb128 0x3a
 2141 013d 0B       		.uleb128 0xb
 2142 013e 3B       		.uleb128 0x3b
 2143 013f 0B       		.uleb128 0xb
 2144 0140 49       		.uleb128 0x49
 2145 0141 13       		.uleb128 0x13
 2146 0142 02       		.uleb128 0x2
 2147 0143 06       		.uleb128 0x6
 2148 0144 00       		.byte	0x0
 2149 0145 00       		.byte	0x0
 2150 0146 17       		.uleb128 0x17
 2151 0147 34       		.uleb128 0x34
 2152 0148 00       		.byte	0x0
 2153 0149 03       		.uleb128 0x3
 2154 014a 0E       		.uleb128 0xe
 2155 014b 3A       		.uleb128 0x3a
 2156 014c 0B       		.uleb128 0xb
 2157 014d 3B       		.uleb128 0x3b
 2158 014e 0B       		.uleb128 0xb
 2159 014f 49       		.uleb128 0x49
 2160 0150 13       		.uleb128 0x13
 2161 0151 00       		.byte	0x0
 2162 0152 00       		.byte	0x0
 2163 0153 18       		.uleb128 0x18
 2164 0154 0B       		.uleb128 0xb
 2165 0155 01       		.byte	0x1
 2166 0156 01       		.uleb128 0x1
 2167 0157 13       		.uleb128 0x13
 2168 0158 11       		.uleb128 0x11
 2169 0159 01       		.uleb128 0x1
 2170 015a 12       		.uleb128 0x12
 2171 015b 01       		.uleb128 0x1
 2172 015c 00       		.byte	0x0
 2173 015d 00       		.byte	0x0
 2174 015e 19       		.uleb128 0x19
 2175 015f 0B       		.uleb128 0xb
 2176 0160 01       		.byte	0x1
 2177 0161 11       		.uleb128 0x11
 2178 0162 01       		.uleb128 0x1
 2179 0163 12       		.uleb128 0x12
 2180 0164 01       		.uleb128 0x1
 2181 0165 00       		.byte	0x0
 2182 0166 00       		.byte	0x0
 2183 0167 1A       		.uleb128 0x1a
 2184 0168 34       		.uleb128 0x34
 2185 0169 00       		.byte	0x0
 2186 016a 03       		.uleb128 0x3
 2187 016b 0E       		.uleb128 0xe
 2188 016c 3A       		.uleb128 0x3a
 2189 016d 0B       		.uleb128 0xb
 2190 016e 3B       		.uleb128 0x3b
 2191 016f 0B       		.uleb128 0xb
 2192 0170 49       		.uleb128 0x49
 2193 0171 13       		.uleb128 0x13
 2194 0172 02       		.uleb128 0x2
 2195 0173 0A       		.uleb128 0xa
 2196 0174 00       		.byte	0x0
ARM GAS  /cygdrive/c/DOCUME~1/mkwapisz/LOCALS~1/Temp/cc9KLP72.s 			page 46


 2197 0175 00       		.byte	0x0
 2198 0176 1B       		.uleb128 0x1b
 2199 0177 34       		.uleb128 0x34
 2200 0178 00       		.byte	0x0
 2201 0179 03       		.uleb128 0x3
 2202 017a 0E       		.uleb128 0xe
 2203 017b 3A       		.uleb128 0x3a
 2204 017c 0B       		.uleb128 0xb
 2205 017d 3B       		.uleb128 0x3b
 2206 017e 0B       		.uleb128 0xb
 2207 017f 49       		.uleb128 0x49
 2208 0180 13       		.uleb128 0x13
 2209 0181 3F       		.uleb128 0x3f
 2210 0182 0C       		.uleb128 0xc
 2211 0183 02       		.uleb128 0x2
 2212 0184 0A       		.uleb128 0xa
 2213 0185 00       		.byte	0x0
 2214 0186 00       		.byte	0x0
 2215 0187 00       		.byte	0x0
 2216              		.section	.debug_pubnames,"",%progbits
 2217 0000 26000000 		.4byte	0x26
 2218 0004 0200     		.2byte	0x2
 2219 0006 00000000 		.4byte	.Ldebug_info0
 2220 000a C9030000 		.4byte	0x3c9
 2221 000e 8F020000 		.4byte	0x28f
 2222 0012 706C6179 		.ascii	"playSnake\000"
 2222      536E616B 
 2222      6500
 2223 001c B6030000 		.4byte	0x3b6
 2224 0020 736E616B 		.ascii	"snake\000"
 2224      6500
 2225 0026 00000000 		.4byte	0x0
 2226              		.section	.debug_aranges,"",%progbits
 2227 0000 1C000000 		.4byte	0x1c
 2228 0004 0200     		.2byte	0x2
 2229 0006 00000000 		.4byte	.Ldebug_info0
 2230 000a 04       		.byte	0x4
 2231 000b 00       		.byte	0x0
 2232 000c 0000     		.2byte	0x0
 2233 000e 0000     		.2byte	0x0
 2234 0010 00000000 		.4byte	.Ltext0
 2235 0014 1C050000 		.4byte	.Letext0-.Ltext0
 2236 0018 00000000 		.4byte	0x0
 2237 001c 00000000 		.4byte	0x0
 2238              		.section	.debug_str,"MS",%progbits,1
 2239              	.LASF3:
 2240 0000 7369676E 		.ascii	"signed char\000"
 2240      65642063 
 2240      68617200 
 2241              	.LASF32:
 2242 000c 646F6E65 		.ascii	"done\000"
 2242      00
 2243              	.LASF49:
 2244 0011 706C6179 		.ascii	"playSnake\000"
 2244      536E616B 
 2244      6500
 2245              	.LASF48:
ARM GAS  /cygdrive/c/DOCUME~1/mkwapisz/LOCALS~1/Temp/cc9KLP72.s 			page 47


 2246 001b 61646453 		.ascii	"addSegment\000"
 2246      65676D65 
 2246      6E7400
 2247              	.LASF11:
 2248 0026 6C6F6E67 		.ascii	"long long unsigned int\000"
 2248      206C6F6E 
 2248      6720756E 
 2248      7369676E 
 2248      65642069 
 2249              	.LASF25:
 2250 003d 73656C65 		.ascii	"selectedColor\000"
 2250      63746564 
 2250      436F6C6F 
 2250      7200
 2251              	.LASF40:
 2252 004b 68696768 		.ascii	"high_score\000"
 2252      5F73636F 
 2252      726500
 2253              	.LASF22:
 2254 0056 626F7264 		.ascii	"borderColor\000"
 2254      6572436F 
 2254      6C6F7200 
 2255              	.LASF37:
 2256 0062 6F627374 		.ascii	"obstacles\000"
 2256      61636C65 
 2256      7300
 2257              	.LASF9:
 2258 006c 6C6F6E67 		.ascii	"long long int\000"
 2258      206C6F6E 
 2258      6720696E 
 2258      7400
 2259              	.LASF6:
 2260 007a 74426F6F 		.ascii	"tBool\000"
 2260      6C00
 2261              	.LASF29:
 2262 0080 73686F77 		.ascii	"showScore\000"
 2262      53636F72 
 2262      6500
 2263              	.LASF8:
 2264 008a 6C6F6E67 		.ascii	"long int\000"
 2264      20696E74 
 2264      00
 2265              	.LASF15:
 2266 0093 794C656E 		.ascii	"yLen\000"
 2266      00
 2267              	.LASF46:
 2268 0098 2F637967 		.ascii	"/cygdrive/g/servers/github/SysWbud/2148/testProgram"
 2268      64726976 
 2268      652F672F 
 2268      73657276 
 2268      6572732F 
 2269 00cb 5F6C7063 		.ascii	"_lpc2148_edu\000"
 2269      32313438 
 2269      5F656475 
 2269      00
 2270              	.LASF16:
 2271 00d8 6E6F4F66 		.ascii	"noOfChoices\000"
ARM GAS  /cygdrive/c/DOCUME~1/mkwapisz/LOCALS~1/Temp/cc9KLP72.s 			page 48


 2271      43686F69 
 2271      63657300 
 2272              	.LASF24:
 2273 00e4 63686F69 		.ascii	"choicesColor\000"
 2273      63657343 
 2273      6F6C6F72 
 2273      00
 2274              	.LASF17:
 2275 00f1 696E6974 		.ascii	"initialChoice\000"
 2275      69616C43 
 2275      686F6963 
 2275      6500
 2276              	.LASF2:
 2277 00ff 756E7369 		.ascii	"unsigned int\000"
 2277      676E6564 
 2277      20696E74 
 2277      00
 2278              	.LASF19:
 2279 010c 68656164 		.ascii	"headerTextXpos\000"
 2279      65725465 
 2279      78745870 
 2279      6F7300
 2280              	.LASF7:
 2281 011b 6C6F6E67 		.ascii	"long unsigned int\000"
 2281      20756E73 
 2281      69676E65 
 2281      6420696E 
 2281      7400
 2282              	.LASF38:
 2283 012d 6C657665 		.ascii	"level\000"
 2283      6C00
 2284              	.LASF1:
 2285 0133 73686F72 		.ascii	"short unsigned int\000"
 2285      7420756E 
 2285      7369676E 
 2285      65642069 
 2285      6E7400
 2286              	.LASF31:
 2287 0146 6B657970 		.ascii	"keypress\000"
 2287      72657373 
 2287      00
 2288              	.LASF27:
 2289 014f 636F6C6F 		.ascii	"color\000"
 2289      7200
 2290              	.LASF20:
 2291 0155 7043686F 		.ascii	"pChoice\000"
 2291      69636500 
 2292              	.LASF41:
 2293 015d 73637265 		.ascii	"screenGrid\000"
 2293      656E4772 
 2293      696400
 2294              	.LASF21:
 2295 0168 6267436F 		.ascii	"bgColor\000"
 2295      6C6F7200 
 2296              	.LASF30:
 2297 0170 73657475 		.ascii	"setupLevel\000"
 2297      704C6576 
ARM GAS  /cygdrive/c/DOCUME~1/mkwapisz/LOCALS~1/Temp/cc9KLP72.s 			page 49


 2297      656C00
 2298              	.LASF42:
 2299 017b 64697265 		.ascii	"direction\000"
 2299      6374696F 
 2299      6E00
 2300              	.LASF43:
 2301 0185 736E616B 		.ascii	"snake\000"
 2301      6500
 2302              	.LASF28:
 2303 018b 676F746F 		.ascii	"gotoxy\000"
 2303      787900
 2304              	.LASF26:
 2305 0192 744D656E 		.ascii	"tMenu\000"
 2305      7500
 2306              	.LASF0:
 2307 0198 756E7369 		.ascii	"unsigned char\000"
 2307      676E6564 
 2307      20636861 
 2307      7200
 2308              	.LASF44:
 2309 01a6 474E5520 		.ascii	"GNU C 4.1.1\000"
 2309      4320342E 
 2309      312E3100 
 2310              	.LASF35:
 2311 01b2 736E616B 		.ascii	"snakeLength\000"
 2311      654C656E 
 2311      67746800 
 2312              	.LASF4:
 2313 01be 73686F72 		.ascii	"short int\000"
 2313      7420696E 
 2313      7400
 2314              	.LASF14:
 2315 01c8 784C656E 		.ascii	"xLen\000"
 2315      00
 2316              	.LASF39:
 2317 01cd 66697273 		.ascii	"firstPress\000"
 2317      74507265 
 2317      737300
 2318              	.LASF10:
 2319 01d8 63686172 		.ascii	"char\000"
 2319      00
 2320              	.LASF5:
 2321 01dd 74533332 		.ascii	"tS32\000"
 2321      00
 2322              	.LASF13:
 2323 01e2 79506F73 		.ascii	"yPos\000"
 2323      00
 2324              	.LASF23:
 2325 01e7 68656164 		.ascii	"headerColor\000"
 2325      6572436F 
 2325      6C6F7200 
 2326              	.LASF45:
 2327 01f3 736E616B 		.ascii	"snake.c\000"
 2327      652E6300 
 2328              	.LASF47:
 2329 01fb 736E616B 		.ascii	"snakeSegment\000"
 2329      65536567 
ARM GAS  /cygdrive/c/DOCUME~1/mkwapisz/LOCALS~1/Temp/cc9KLP72.s 			page 50


 2329      6D656E74 
 2329      00
 2330              	.LASF33:
 2331 0208 6D656E75 		.ascii	"menu\000"
 2331      00
 2332              	.LASF36:
 2333 020d 73706565 		.ascii	"speed\000"
 2333      6400
 2334              	.LASF12:
 2335 0213 78506F73 		.ascii	"xPos\000"
 2335      00
 2336              	.LASF34:
 2337 0218 73636F72 		.ascii	"score\000"
 2337      6500
 2338              	.LASF18:
 2339 021e 70486561 		.ascii	"pHeaderText\000"
 2339      64657254 
 2339      65787400 
 2340              		.ident	"GCC: (GNU) 4.1.1"
ARM GAS  /cygdrive/c/DOCUME~1/mkwapisz/LOCALS~1/Temp/cc9KLP72.s 			page 51


DEFINED SYMBOLS
                            *ABS*:00000000 snake.c
/cygdrive/c/DOCUME~1/mkwapisz/LOCALS~1/Temp/cc9KLP72.s:1      .text:00000000 $t
/cygdrive/c/DOCUME~1/mkwapisz/LOCALS~1/Temp/cc9KLP72.s:15     .text:00000000 addSegment
/cygdrive/c/DOCUME~1/mkwapisz/LOCALS~1/Temp/cc9KLP72.s:114    .text:00000084 $d
/cygdrive/c/DOCUME~1/mkwapisz/LOCALS~1/Temp/cc9KLP72.s:952    .data:00000000 direction
/cygdrive/c/DOCUME~1/mkwapisz/LOCALS~1/Temp/cc9KLP72.s:962    .bss:00000008 snakeLength
                            *COM*:00000320 snake
/cygdrive/c/DOCUME~1/mkwapisz/LOCALS~1/Temp/cc9KLP72.s:120    .text:00000090 $t
/cygdrive/c/DOCUME~1/mkwapisz/LOCALS~1/Temp/cc9KLP72.s:123    .text:00000090 gotoxy
/cygdrive/c/DOCUME~1/mkwapisz/LOCALS~1/Temp/cc9KLP72.s:171    .text:000000bc showScore
/cygdrive/c/DOCUME~1/mkwapisz/LOCALS~1/Temp/cc9KLP72.s:310    .text:00000188 $d
/cygdrive/c/DOCUME~1/mkwapisz/LOCALS~1/Temp/cc9KLP72.s:971    .bss:00000014 level
/cygdrive/c/DOCUME~1/mkwapisz/LOCALS~1/Temp/cc9KLP72.s:959    .bss:00000004 score
/cygdrive/c/DOCUME~1/mkwapisz/LOCALS~1/Temp/cc9KLP72.s:322    .text:00000198 $t
/cygdrive/c/DOCUME~1/mkwapisz/LOCALS~1/Temp/cc9KLP72.s:325    .text:00000198 setupLevel
/cygdrive/c/DOCUME~1/mkwapisz/LOCALS~1/Temp/cc9KLP72.s:546    .text:000002c0 $d
/cygdrive/c/DOCUME~1/mkwapisz/LOCALS~1/Temp/cc9KLP72.s:973    .bss:00000018 firstPress
/cygdrive/c/DOCUME~1/mkwapisz/LOCALS~1/Temp/cc9KLP72.s:975    .bss:00000019 screenGrid
/cygdrive/c/DOCUME~1/mkwapisz/LOCALS~1/Temp/cc9KLP72.s:968    .bss:00000010 obstacles
/cygdrive/c/DOCUME~1/mkwapisz/LOCALS~1/Temp/cc9KLP72.s:572    .text:000002e0 playSnake
/cygdrive/c/DOCUME~1/mkwapisz/LOCALS~1/Temp/cc9KLP72.s:569    .text:000002e0 $t
/cygdrive/c/DOCUME~1/mkwapisz/LOCALS~1/Temp/cc9KLP72.s:933    .text:000004e4 $d
/cygdrive/c/DOCUME~1/mkwapisz/LOCALS~1/Temp/cc9KLP72.s:965    .bss:0000000c speed
/cygdrive/c/DOCUME~1/mkwapisz/LOCALS~1/Temp/cc9KLP72.s:956    .bss:00000000 high_score
                             .bss:00000000 $d

UNDEFINED SYMBOLS
lcdRect
__divsi3
__modsi3
lcdGotoxy
lcdPuts
lcdColor
lcdClrscr
rand
osSleep
checkKey
drawMenu
